 oleaut32

 Timestamp is 5da85f01 (Thu Oct 17 20:30:57 2019)

 Preferred load address is 10000000

 Start         Length     Name                   Class
 0001:00000000 00060212H .text                   CODE
 0002:00000000 00000004H .CRT$XCA                DATA
 0002:00000004 00000008H .CRT$XCU                DATA
 0002:0000000c 00000004H .CRT$XCZ                DATA
 0002:00000010 00000004H .CRT$XIA                DATA
 0002:00000014 00000004H .CRT$XIZ                DATA
 0002:00000020 00001098H .rdata                  DATA
 0002:000010c0 00000e9dH .edata                  DATA
 0003:00000000 00004cb0H .data                   DATA
 0003:00004cb0 00000250H .bss                    DATA
 0004:00000000 00000078H .idata$2                DATA
 0004:00000078 00000014H .idata$3                DATA
 0004:0000008c 0000022cH .idata$4                DATA
 0004:000002b8 0000022cH .idata$5                DATA
 0004:000004e4 00000800H .idata$6                DATA
 0005:00000000 000000bcH .rsrc$01                DATA
 0005:000000c0 000005f0H .rsrc$02                DATA
 0007:00000000 00000110H .debug$E                DATA
 0007:00000110 00000030H .debug$F                DATA
 0007:00000140 00023ff4H .debug$G                DATA
 0007:00024134 00000008H .debug$H                DATA
 0007:0002413c 00035330H .debug$P                DATA
 0007:0005946c 000b1bd5H .debug$S                DATA
 0007:0010b041 000dade0H .debug$T                DATA

  Address         Publics by Value              Rva+Base   Lib:Object

 0001:00000000       ?FIsBadReadPtr@@YGHPBXI@Z  10001000 f validat.obj
 0001:00000020       ?FIsBadWritePtr@@YGHPAXI@Z 10001020 f validat.obj
 0001:00000040       ?FIsBadCodePtr@@YGHPAX@Z   10001040 f validat.obj
 0001:0000005c       ?FIsBadStringPtr@@YGHPAGI@Z 1000105c f validat.obj
 0001:000000cb       ?FIsBadInterface@@YGHPAXI@Z 100010cb f validat.obj
 0001:00000170       ?IsBadDispParams@@YGHPAUtagDISPPARAMS@@@Z 10001170 f validat.obj
 0001:0000021a       ?IsBadReadSA@@YGHPAUtagSAFEARRAY@@@Z 1000121a f validat.obj
 0001:0000027b       ?IsBadWriteSA@@YGHPAUtagSAFEARRAY@@@Z 1000127b f validat.obj
 0001:000002e0       ?AssertDlgProc@@YGHPAUHWND__@@GGJ@Z 100012e0 f assert.obj
 0001:000003bd       _DispAssert@12             100013bd f assert.obj
 0001:000004e0       _DllMain@12                100014e0 f oledisp.obj
 0001:000005f0       ?Pappdata@@YAPAUAPP_DATA@@XZ 100015f0 f oledisp.obj
 0001:00000640       ?Create@COleAutomationPSFactory@@SAPAUIPSFactoryBuffer@@XZ 10001640 f psfactry.obj
 0001:0000069a       ?QueryInterface@COleAutomationPSFactory@@UAGJABU_GUID@@PAPAX@Z 1000169a f psfactry.obj
 0001:00000713       ?AddRef@COleAutomationPSFactory@@UAGKXZ 10001713 f psfactry.obj
 0001:00000731       ?Release@COleAutomationPSFactory@@UAGKXZ 10001731 f psfactry.obj
 0001:0000077e       ?CreateProxy@COleAutomationPSFactory@@UAGJPAUIUnknown@@ABU_GUID@@PAPAUIRpcProxyBuffer@@PAPAX@Z 1000177e f psfactry.obj
 0001:000009fe       ?CreateStub@COleAutomationPSFactory@@UAGJABU_GUID@@PAUIUnknown@@PAPAUIRpcStubBuffer@@@Z 100019fe f psfactry.obj
 0001:00000c11       ?IsAutomationCLSID@@YAHABU_GUID@@@Z 10001c11 f psfactry.obj
 0001:00000cf5       _DllGetClassObject@12      10001cf5 f psfactry.obj
 0001:00000d50       ?ProxyStubCLSIDOfInterface@@YAJABU_GUID@@PAU1@@Z 10001d50 f psfactry.obj
 0001:00000e60       ??0COleAutomationPSFactory@@QAE@XZ 10001e60 f psfactry.obj
 0001:00000ea0       ??0IPSFactoryBuffer@@QAE@XZ 10001ea0 f psfactry.obj
 0001:00000ed0       ??0IUnknown@@QAE@XZ        10001ed0 f psfactry.obj
 0001:00000f00       ?IsEqualGUID@@YAHABU_GUID@@0@Z 10001f00 f psfactry.obj
 0001:00000f40       ??8@YAHABU_GUID@@0@Z       10001f40 f psfactry.obj
 0001:00000f80       ?BstrWrite@@YAJPAUIStream@@PAGW4tagSYSKIND@@@Z 10001f80 f dispmrsh.obj
 0001:0000111d       ?BstrRead@@YAJPAUIStream@@PAPAGW4tagSYSKIND@@@Z 1000211d f dispmrsh.obj
 0001:00001313       _DispMarshalHresult@8      10002313 f dispmrsh.obj
 0001:00001425       _DispUnmarshalHresult@8    10002425 f dispmrsh.obj
 0001:00001539       ?VariantWrite@@YAJPAUIStream@@PAUtagVARIANT@@W4tagSYSKIND@@@Z 10002539 f dispmrsh.obj
 0001:000019f6       ?VariantRead@@YAJPAUIStream@@PAUtagVARIANT@@1W4tagSYSKIND@@@Z 100029f6 f dispmrsh.obj
 0001:00001eae       ?VariantReadType@@YAJPAUIStream@@PAUtagVARIANT@@W4tagSYSKIND@@@Z 10002eae f dispmrsh.obj
 0001:00002505       ?ExcepinfoRead@@YAJPAUIStream@@PAUtagEXCEPINFO@@W4tagSYSKIND@@@Z 10003505 f dispmrsh.obj
 0001:00002607       ?ExcepinfoWrite@@YAJPAUIStream@@PAUtagEXCEPINFO@@W4tagSYSKIND@@@Z 10003607 f dispmrsh.obj
 0001:00002731       ?MarshalErrorInfo@@YAJPAUIStream@@W4tagSYSKIND@@@Z 10003731 f dispmrsh.obj
 0001:000029b0       ?UnmarshalErrorInfo@@YAJPAUIStream@@W4tagSYSKIND@@@Z 100039b0 f dispmrsh.obj
 0001:00002c42       ?SafeArrayWrite@@YAJPAUIStream@@PAUtagSAFEARRAY@@W4tagSYSKIND@@@Z 10003c42 f dispmrsh.obj
 0001:00003027       ?SafeArrayReadData@@YAJPAUIStream@@PAUtagSAFEARRAY@@W4tagSYSKIND@@@Z 10004027 f dispmrsh.obj
 0001:0000332b       ?SafeArrayRead@@YAJPAUIStream@@PAPAUtagSAFEARRAY@@W4tagSYSKIND@@@Z 1000432b f dispmrsh.obj
 0001:000035b7       ?SafeArrayReadExisting@@YGJPAUIStream@@EPAPAUtagSAFEARRAY@@W4tagSYSKIND@@@Z 100045b7 f dispmrsh.obj
 0001:00003a69       ?StructWrite@@YAJPAUIStream@@PAUtagFIELDDESC@@PAXW4tagSYSKIND@@@Z 10004a69 f dispmrsh.obj
 0001:00003d0a       ?StructRead@@YAJPAUIStream@@PAUtagFIELDDESC@@PAXW4tagSYSKIND@@@Z 10004d0a f dispmrsh.obj
 0001:00003fa9       ??0CHolder@@QAE@XZ         10004fa9 f dispmrsh.obj
 0001:00003fe7       ??1CHolder@@QAE@XZ         10004fe7 f dispmrsh.obj
 0001:00004025       ?QueryInterface@CHolder@@UAGJABU_GUID@@PAPAX@Z 10005025 f dispmrsh.obj
 0001:00004073       ?AddRef@CHolder@@UAGKXZ    10005073 f dispmrsh.obj
 0001:00004091       ?Release@CHolder@@UAGKXZ   10005091 f dispmrsh.obj
 0001:000040eb       _DispMarshalInterface@12   100050eb f dispmrsh.obj
 0001:00004283       _DispUnmarshalInterface@12 10005283 f dispmrsh.obj
 0001:00004390       ??_GCHolder@@QAEPAXI@Z     10005390 f dispmrsh.obj
 0001:000043d0       ??0CProxDisp@@AAE@PAUIUnknown@@ABU_GUID@@@Z 100053d0 f dispprox.obj
 0001:0000444d       ??1CProxDisp@@AAE@XZ       1000544d f dispprox.obj
 0001:00004481       ?Create@CProxDisp@@SAPAUIUnknown@@PAU2@ABU_GUID@@@Z 10005481 f dispprox.obj
 0001:000044e8       ??0CPDUnkImpl@@QAE@PAVCProxDisp@@@Z 100054e8 f dispprox.obj
 0001:0000451d       ??1CPDUnkImpl@@QAE@XZ      1000551d f dispprox.obj
 0001:0000453c       ?QueryInterface@CPDUnkImpl@@UAGJABU_GUID@@PAPAX@Z 1000553c f dispprox.obj
 0001:00004631       ?AddRef@CPDUnkImpl@@UAGKXZ 10005631 f dispprox.obj
 0001:00004655       ?Release@CPDUnkImpl@@UAGKXZ 10005655 f dispprox.obj
 0001:000046bb       ??0CPDProxImpl@@QAE@PAVCProxDisp@@@Z 100056bb f dispprox.obj
 0001:000046f0       ??1CPDProxImpl@@QAE@XZ     100056f0 f dispprox.obj
 0001:00004744       ?QueryInterface@CPDProxImpl@@UAGJABU_GUID@@PAPAX@Z 10005744 f dispprox.obj
 0001:0000476f       ?AddRef@CPDProxImpl@@UAGKXZ 1000576f f dispprox.obj
 0001:00004793       ?Release@CPDProxImpl@@UAGKXZ 10005793 f dispprox.obj
 0001:000047b7       ?Connect@CPDProxImpl@@UAGJPAUIRpcChannelBuffer@@@Z 100057b7 f dispprox.obj
 0001:0000480d       ?Disconnect@CPDProxImpl@@UAGXXZ 1000580d f dispprox.obj
 0001:00004854       ??0CPDDispImpl@@QAE@PAVCProxDisp@@@Z 10005854 f dispprox.obj
 0001:00004889       ??1CPDDispImpl@@QAE@XZ     10005889 f dispprox.obj
 0001:000048a8       ?QueryInterface@CPDDispImpl@@UAGJABU_GUID@@PAPAX@Z 100058a8 f dispprox.obj
 0001:000048d9       ?AddRef@CPDDispImpl@@UAGKXZ 100058d9 f dispprox.obj
 0001:00004903       ?Release@CPDDispImpl@@UAGKXZ 10005903 f dispprox.obj
 0001:0000492d       ?SysKind@CPDDispImpl@@UAGJXZ 1000592d f dispprox.obj
 0001:00004a58       ?ProxyGetTypeInfoCount@@YAJPAUIRpcChannelBuffer@@W4tagSYSKIND@@PAI@Z 10005a58 f dispprox.obj
 0001:00004bf7       ?GetTypeInfoCount@CPDDispImpl@@UAGJPAI@Z 10005bf7 f dispprox.obj
 0001:00004c26       ?ProxyGetTypeInfo@@YAJPAUIRpcChannelBuffer@@W4tagSYSKIND@@IKPAPAUITypeInfo@@@Z 10005c26 f dispprox.obj
 0001:00004e30       ?GetTypeInfo@CPDDispImpl@@UAGJIKPAPAUITypeInfo@@@Z 10005e30 f dispprox.obj
 0001:00004e67       ?ProxyGetIDsOfNames@@YAJPAUIRpcChannelBuffer@@W4tagSYSKIND@@ABU_GUID@@PAPAGIKPAJ@Z 10005e67 f dispprox.obj
 0001:000053b9       ?GetIDsOfNames@CPDDispImpl@@UAGJABU_GUID@@PAPAGIKPAJ@Z 100063b9 f dispprox.obj
 0001:000053f8       ?ProxyInvoke@@YAJPAUIRpcChannelBuffer@@W4tagSYSKIND@@JABU_GUID@@KGPAUtagDISPPARAMS@@PAUtagVARIANT@@PAUtagEXCEPINFO@@PAI@Z 100063f8 f dispprox.obj
 0001:0000596e       ?Invoke@CPDDispImpl@@UAGJJABU_GUID@@KGPAUtagDISPPARAMS@@PAUtagVARIANT@@PAUtagEXCEPINFO@@PAI@Z 1000696e f dispprox.obj
 0001:000059c0       ??_GCProxDisp@@AAEPAXI@Z   100069c0 f dispprox.obj
 0001:00005a00       ??0IRpcProxyBuffer@@QAE@XZ 10006a00 f dispprox.obj
 0001:00005a30       ??0IDispatch@@QAE@XZ       10006a30 f dispprox.obj
 0001:00005a60       ?ValidateWritePtr@@YAJPAXI@Z 10006a60 f dispprox.obj
 0001:00005aa0       ??0CStubDisp@@AAE@XZ       10006aa0 f dispstub.obj
 0001:00005b09       ??1CStubDisp@@AAE@XZ       10006b09 f dispstub.obj
 0001:00005b31       ?Create@CStubDisp@@SAJPAUIUnknown@@ABU_GUID@@PAPAUIRpcStubBuffer@@@Z 10006b31 f dispstub.obj
 0001:00005bda       ?QueryInterface@CStubDisp@@UAGJABU_GUID@@PAPAX@Z 10006bda f dispstub.obj
 0001:00005c53       ?AddRef@CStubDisp@@UAGKXZ  10006c53 f dispstub.obj
 0001:00005c71       ?Release@CStubDisp@@UAGKXZ 10006c71 f dispstub.obj
 0001:00005ccb       ?Connect@CStubDisp@@UAGJPAUIUnknown@@@Z 10006ccb f dispstub.obj
 0001:00005d58       ?Disconnect@CStubDisp@@UAGXXZ 10006d58 f dispstub.obj
 0001:00005dbc       ?DispatchGetSysKind@@YGJPAUIStream@@@Z 10006dbc f dispstub.obj
 0001:00005e15       ?StubGetTypeInfoCount@@YAJPAUIDispatch@@PAUIStream@@@Z 10006e15 f dispstub.obj
 0001:00005ea6       ?StubGetTypeInfo@@YAJPAUIDispatch@@PAUIStream@@@Z 10006ea6 f dispstub.obj
 0001:00005fe1       ?StubGetIDsOfNames@@YAJPAUIDispatch@@PAUIStream@@@Z 10006fe1 f dispstub.obj
 0001:000064e1       ?StubInvoke@@YAJPAUIDispatch@@PAUIStream@@@Z 100074e1 f dispstub.obj
 0001:00006c5a       ?Invoke@CStubDisp@@UAGJPAUtagRPCOLEMESSAGE@@PAUIRpcChannelBuffer@@@Z 10007c5a f dispstub.obj
 0001:00006dd3       ?IsIIDSupported@CStubDisp@@UAGPAUIRpcStubBuffer@@ABU_GUID@@@Z 10007dd3 f dispstub.obj
 0001:00006e1d       ?CountRefs@CStubDisp@@UAGKXZ 10007e1d f dispstub.obj
 0001:00006e5c       ?DebugServerQueryInterface@CStubDisp@@UAGJPAPAX@Z 10007e5c f dispstub.obj
 0001:00006e7b       ?DebugServerRelease@CStubDisp@@UAGXPAX@Z 10007e7b f dispstub.obj
 0001:00006e90       ??0IRpcStubBuffer@@QAE@XZ  10007e90 f dispstub.obj
 0001:00006ec0       ??_GCStubDisp@@AAEPAXI@Z   10007ec0 f dispstub.obj
 0001:00006f00       ??_GCStreamOnBuffer@@QAEPAXI@Z 10007f00 f dispstub.obj
 0001:00006f40       ??0CProxEnumVARIANT@@AAE@PAUIUnknown@@@Z 10007f40 f evprox.obj
 0001:00006f9e       ?Create@CProxEnumVARIANT@@SAPAUIUnknown@@PAU2@@Z 10007f9e f evprox.obj
 0001:00007001       ??0CPEVUnkImpl@@QAE@PAVCProxEnumVARIANT@@@Z 10008001 f evprox.obj
 0001:00007036       ?QueryInterface@CPEVUnkImpl@@UAGJABU_GUID@@PAPAX@Z 10008036 f evprox.obj
 0001:0000710d       ?AddRef@CPEVUnkImpl@@UAGKXZ 1000810d f evprox.obj
 0001:00007131       ?Release@CPEVUnkImpl@@UAGKXZ 10008131 f evprox.obj
 0001:00007197       ??0CPEVProxImpl@@QAE@PAVCProxEnumVARIANT@@@Z 10008197 f evprox.obj
 0001:000071cc       ??1CPEVProxImpl@@QAE@XZ    100081cc f evprox.obj
 0001:00007213       ?QueryInterface@CPEVProxImpl@@UAGJABU_GUID@@PAPAX@Z 10008213 f evprox.obj
 0001:0000723e       ?AddRef@CPEVProxImpl@@UAGKXZ 1000823e f evprox.obj
 0001:00007262       ?Release@CPEVProxImpl@@UAGKXZ 10008262 f evprox.obj
 0001:00007286       ?Connect@CPEVProxImpl@@UAGJPAUIRpcChannelBuffer@@@Z 10008286 f evprox.obj
 0001:000072c6       ?Disconnect@CPEVProxImpl@@UAGXXZ 100082c6 f evprox.obj
 0001:0000730d       ??0CPEVEnumVARIANTImpl@@QAE@PAVCProxEnumVARIANT@@@Z 1000830d f evprox.obj
 0001:00007342       ?QueryInterface@CPEVEnumVARIANTImpl@@UAGJABU_GUID@@PAPAX@Z 10008342 f evprox.obj
 0001:00007373       ?AddRef@CPEVEnumVARIANTImpl@@UAGKXZ 10008373 f evprox.obj
 0001:0000739d       ?Release@CPEVEnumVARIANTImpl@@UAGKXZ 1000839d f evprox.obj
 0001:000073c7       ?Next@CPEVEnumVARIANTImpl@@UAGJKPAUtagVARIANT@@PAK@Z 100083c7 f evprox.obj
 0001:0000769d       ?Skip@CPEVEnumVARIANTImpl@@UAGJK@Z 1000869d f evprox.obj
 0001:000077f4       ?Reset@CPEVEnumVARIANTImpl@@UAGJXZ 100087f4 f evprox.obj
 0001:00007915       ?Clone@CPEVEnumVARIANTImpl@@UAGJPAPAUIEnumVARIANT@@@Z 10008915 f evprox.obj
 0001:00007a90       ??_GCProxEnumVARIANT@@QAEPAXI@Z 10008a90 f evprox.obj
 0001:00007ad0       ??1CProxEnumVARIANT@@QAE@XZ 10008ad0 f evprox.obj
 0001:00007b00       ??0IEnumVARIANT@@QAE@XZ    10008b00 f evprox.obj
 0001:00007b30       ??0CStubEnumVARIANT@@AAE@XZ 10008b30 f evstub.obj
 0001:00007b78       ??1CStubEnumVARIANT@@AAE@XZ 10008b78 f evstub.obj
 0001:00007ba0       ?Create@CStubEnumVARIANT@@SAJPAUIUnknown@@PAPAUIRpcStubBuffer@@@Z 10008ba0 f evstub.obj
 0001:00007c28       ?QueryInterface@CStubEnumVARIANT@@UAGJABU_GUID@@PAPAX@Z 10008c28 f evstub.obj
 0001:00007ca1       ?AddRef@CStubEnumVARIANT@@UAGKXZ 10008ca1 f evstub.obj
 0001:00007cbf       ?Release@CStubEnumVARIANT@@UAGKXZ 10008cbf f evstub.obj
 0001:00007d19       ?Connect@CStubEnumVARIANT@@UAGJPAUIUnknown@@@Z 10008d19 f evstub.obj
 0001:00007da4       ?Disconnect@CStubEnumVARIANT@@UAGXXZ 10008da4 f evstub.obj
 0001:00007e08       ?DispatchNext@@YGJPAUIEnumVARIANT@@PAUIStream@@@Z 10008e08 f evstub.obj
 0001:00008093       ?DispatchSkip@@YGJPAUIEnumVARIANT@@PAUIStream@@@Z 10009093 f evstub.obj
 0001:00008158       ?DispatchReset@@YGJPAUIEnumVARIANT@@PAUIStream@@@Z 10009158 f evstub.obj
 0001:00008195       ?DispatchClone@@YGJPAUIEnumVARIANT@@PAUIStream@@@Z 10009195 f evstub.obj
 0001:0000821a       ?Invoke@CStubEnumVARIANT@@UAGJPAUtagRPCOLEMESSAGE@@PAUIRpcChannelBuffer@@@Z 1000921a f evstub.obj
 0001:00008372       ?IsIIDSupported@CStubEnumVARIANT@@UAGPAUIRpcStubBuffer@@ABU_GUID@@@Z 10009372 f evstub.obj
 0001:000083bc       ?CountRefs@CStubEnumVARIANT@@UAGKXZ 100093bc f evstub.obj
 0001:000083fb       ?DebugServerQueryInterface@CStubEnumVARIANT@@UAGJPAPAX@Z 100093fb f evstub.obj
 0001:0000841a       ?DebugServerRelease@CStubEnumVARIANT@@UAGXPAX@Z 1000941a f evstub.obj
 0001:00008430       ??_GCStubEnumVARIANT@@AAEPAXI@Z 10009430 f evstub.obj
 0001:00008470       ??0CProxTypeInfo@@AAE@PAUIUnknown@@@Z 10009470 f tiprox.obj
 0001:000084ce       ?Create@CProxTypeInfo@@SAPAUIUnknown@@PAU2@@Z 100094ce f tiprox.obj
 0001:00008531       ??0CPTIUnkImpl@@QAE@PAVCProxTypeInfo@@@Z 10009531 f tiprox.obj
 0001:00008566       ?QueryInterface@CPTIUnkImpl@@UAGJABU_GUID@@PAPAX@Z 10009566 f tiprox.obj
 0001:0000863d       ?AddRef@CPTIUnkImpl@@UAGKXZ 1000963d f tiprox.obj
 0001:00008661       ?Release@CPTIUnkImpl@@UAGKXZ 10009661 f tiprox.obj
 0001:000086c7       ??0CPTIProxImpl@@QAE@PAVCProxTypeInfo@@@Z 100096c7 f tiprox.obj
 0001:000086fc       ??1CPTIProxImpl@@QAE@XZ    100096fc f tiprox.obj
 0001:00008743       ?QueryInterface@CPTIProxImpl@@UAGJABU_GUID@@PAPAX@Z 10009743 f tiprox.obj
 0001:0000876e       ?AddRef@CPTIProxImpl@@UAGKXZ 1000976e f tiprox.obj
 0001:00008792       ?Release@CPTIProxImpl@@UAGKXZ 10009792 f tiprox.obj
 0001:000087b6       ?Connect@CPTIProxImpl@@UAGJPAUIRpcChannelBuffer@@@Z 100097b6 f tiprox.obj
 0001:000087f6       ?Disconnect@CPTIProxImpl@@UAGXXZ 100097f6 f tiprox.obj
 0001:0000883d       ??0CPTITypeInfoImpl@@QAE@PAVCProxTypeInfo@@@Z 1000983d f tiprox.obj
 0001:00008872       ?QueryInterface@CPTITypeInfoImpl@@UAGJABU_GUID@@PAPAX@Z 10009872 f tiprox.obj
 0001:000088a3       ?AddRef@CPTITypeInfoImpl@@UAGKXZ 100098a3 f tiprox.obj
 0001:000088cd       ?Release@CPTITypeInfoImpl@@UAGKXZ 100098cd f tiprox.obj
 0001:000088f7       ?GetTypeAttr@CPTITypeInfoImpl@@UAGJPAPAUtagTYPEATTR@@@Z 100098f7 f tiprox.obj
 0001:00008b15       ?GetTypeComp@CPTITypeInfoImpl@@UAGJPAPAUITypeComp@@@Z 10009b15 f tiprox.obj
 0001:00008c8c       ?GetFuncDesc@CPTITypeInfoImpl@@UAGJIPAPAUtagFUNCDESC@@@Z 10009c8c f tiprox.obj
 0001:00008ee6       ?GetVarDesc@CPTITypeInfoImpl@@UAGJIPAPAUtagVARDESC@@@Z 10009ee6 f tiprox.obj
 0001:00009140       ?GetNames@CPTITypeInfoImpl@@UAGJJPAPAGIPAI@Z 1000a140 f tiprox.obj
 0001:000094dd       ?GetRefTypeOfImplType@CPTITypeInfoImpl@@UAGJIPAK@Z 1000a4dd f tiprox.obj
 0001:00009697       ?GetImplTypeFlags@CPTITypeInfoImpl@@UAGJIPAH@Z 1000a697 f tiprox.obj
 0001:00009851       ?GetIDsOfNames@CPTITypeInfoImpl@@UAGJPAPAGIPAJ@Z 1000a851 f tiprox.obj
 0001:00009868       ?Invoke@CPTITypeInfoImpl@@UAGJPAXJGPAUtagDISPPARAMS@@PAUtagVARIANT@@PAUtagEXCEPINFO@@PAI@Z 1000a868 f tiprox.obj
 0001:0000987f       ?GetDocumentation@CPTITypeInfoImpl@@UAGJJPAPAG0PAK0@Z 1000a87f f tiprox.obj
 0001:00009c90       ?GetDllEntry@CPTITypeInfoImpl@@UAGJJW4tagINVOKEKIND@@PAPAG1PAG@Z 1000ac90 f tiprox.obj
 0001:00009fcd       ?GetRefTypeInfo@CPTITypeInfoImpl@@UAGJKPAPAUITypeInfo@@@Z 1000afcd f tiprox.obj
 0001:0000a17a       ?AddressOfMember@CPTITypeInfoImpl@@UAGJJW4tagINVOKEKIND@@PAPAX@Z 1000b17a f tiprox.obj
 0001:0000a191       ?CreateInstance@CPTITypeInfoImpl@@UAGJPAUIUnknown@@ABU_GUID@@PAPAX@Z 1000b191 f tiprox.obj
 0001:0000a351       ?GetMops@CPTITypeInfoImpl@@UAGJJPAPAG@Z 1000b351 f tiprox.obj
 0001:0000a36e       ?GetContainingTypeLib@CPTITypeInfoImpl@@UAGJPAPAUITypeLib@@PAI@Z 1000b36e f tiprox.obj
 0001:0000a529       ?ReleaseTypeAttr@CPTITypeInfoImpl@@UAGXPAUtagTYPEATTR@@@Z 1000b529 f tiprox.obj
 0001:0000a556       ?DoReleaseDanglingTypeDesc@@YGXPAUtagTYPEDESC@@@Z 1000b556 f tiprox.obj
 0001:0000a65c       ?DoReleaseFuncDesc@@YGXPAUtagFUNCDESC@@@Z 1000b65c f tiprox.obj
 0001:0000a6ea       ?ReleaseFuncDesc@CPTITypeInfoImpl@@UAGXPAUtagFUNCDESC@@@Z 1000b6ea f tiprox.obj
 0001:0000a705       ?DoReleaseVarDesc@@YGXPAUtagVARDESC@@@Z 1000b705 f tiprox.obj
 0001:0000a73e       ?ReleaseVarDesc@CPTITypeInfoImpl@@UAGXPAUtagVARDESC@@@Z 1000b73e f tiprox.obj
 0001:0000a759       ?GetStream@CPTITypeInfoImpl@@QAEJHKPAPAUIStream@@@Z 1000b759 f tiprox.obj
 0001:0000a773       ?LrpcCall@CPTITypeInfoImpl@@QAEJPAUIStream@@PAJ@Z 1000b773 f tiprox.obj
 0001:0000a78d       _TypedescRead              1000b78d f tiprox.obj
 0001:0000a9e3       ?TypedescWrite@@YAJPAUIStream@@PAUtagTYPEDESC@@W4tagSYSKIND@@@Z 1000b9e3 f tiprox.obj
 0001:0000abd8       _TypedescReadOrWrite       1000bbd8 f tiprox.obj
 0001:0000ac13       ?TypeattrWrite@@YGJPAUIStream@@PAUtagTYPEATTR@@W4tagSYSKIND@@@Z 1000bc13 f tiprox.obj
 0001:0000ac9d       ?TypeattrRead@@YGJPAUIStream@@PAUtagTYPEATTR@@W4tagSYSKIND@@@Z 1000bc9d f tiprox.obj
 0001:0000ad3b       ?FuncdescWrite@@YGJPAUIStream@@PAUtagFUNCDESC@@W4tagSYSKIND@@@Z 1000bd3b f tiprox.obj
 0001:0000ade9       ?FuncdescRead@@YGJPAUIStream@@PAUtagFUNCDESC@@W4tagSYSKIND@@@Z 1000bde9 f tiprox.obj
 0001:0000af15       ?VardescWrite@@YGJPAUIStream@@PAUtagVARDESC@@W4tagSYSKIND@@@Z 1000bf15 f tiprox.obj
 0001:0000b004       ?VardescRead@@YGJPAUIStream@@PAUtagVARDESC@@W4tagSYSKIND@@@Z 1000c004 f tiprox.obj
 0001:0000b140       ??_GCProxTypeInfo@@QAEPAXI@Z 1000c140 f tiprox.obj
 0001:0000b180       ??1CProxTypeInfo@@QAE@XZ   1000c180 f tiprox.obj
 0001:0000b1b0       ??0ITypeInfo@@QAE@XZ       1000c1b0 f tiprox.obj
 0001:0000b1e0       ??0CStubTypeInfo@@AAE@XZ   1000c1e0 f tistub.obj
 0001:0000b232       ??1CStubTypeInfo@@AAE@XZ   1000c232 f tistub.obj
 0001:0000b25a       ?Create@CStubTypeInfo@@SAJPAUIUnknown@@PAPAUIRpcStubBuffer@@@Z 1000c25a f tistub.obj
 0001:0000b2e2       ?QueryInterface@CStubTypeInfo@@UAGJABU_GUID@@PAPAX@Z 1000c2e2 f tistub.obj
 0001:0000b35b       ?AddRef@CStubTypeInfo@@UAGKXZ 1000c35b f tistub.obj
 0001:0000b379       ?Release@CStubTypeInfo@@UAGKXZ 1000c379 f tistub.obj
 0001:0000b3d3       ?Connect@CStubTypeInfo@@UAGJPAUIUnknown@@@Z 1000c3d3 f tistub.obj
 0001:0000b45e       ?Disconnect@CStubTypeInfo@@UAGXXZ 1000c45e f tistub.obj
 0001:0000b4c2       ?Invoke@CStubTypeInfo@@UAGJPAUtagRPCOLEMESSAGE@@PAUIRpcChannelBuffer@@@Z 1000c4c2 f tistub.obj
 0001:0000b6e1       ?IsIIDSupported@CStubTypeInfo@@UAGPAUIRpcStubBuffer@@ABU_GUID@@@Z 1000c6e1 f tistub.obj
 0001:0000b72b       ?CountRefs@CStubTypeInfo@@UAGKXZ 1000c72b f tistub.obj
 0001:0000b76a       ?GetTypeAttr@CStubTypeInfo@@QAEJXZ 1000c76a f tistub.obj
 0001:0000b8cc       ?GetTypeComp@CStubTypeInfo@@QAEJXZ 1000c8cc f tistub.obj
 0001:0000b9a6       ?GetFuncDesc@CStubTypeInfo@@QAEJXZ 1000c9a6 f tistub.obj
 0001:0000bb43       ?GetVarDesc@CStubTypeInfo@@QAEJXZ 1000cb43 f tistub.obj
 0001:0000bcff       ?GetNames@CStubTypeInfo@@QAEJXZ 1000ccff f tistub.obj
 0001:0000bfdd       ?GetRefTypeOfImplType@CStubTypeInfo@@QAEJXZ 1000cfdd f tistub.obj
 0001:0000c0da       ?GetImplTypeFlags@CStubTypeInfo@@QAEJXZ 1000d0da f tistub.obj
 0001:0000c1dd       ?GetIDsOfNames@CStubTypeInfo@@QAEJXZ 1000d1dd f tistub.obj
 0001:0000c1f8       ?GetDocumentation@CStubTypeInfo@@QAEJXZ 1000d1f8 f tistub.obj
 0001:0000c495       ?GetDllEntry@CStubTypeInfo@@QAEJXZ 1000d495 f tistub.obj
 0001:0000c72b       ?GetRefTypeInfo@CStubTypeInfo@@QAEJXZ 1000d72b f tistub.obj
 0001:0000c83a       ?CreateInstance@CStubTypeInfo@@QAEJXZ 1000d83a f tistub.obj
 0001:0000c939       ?GetContainingTypeLib@CStubTypeInfo@@QAEJXZ 1000d939 f tistub.obj
 0001:0000ca30       ?MarshalResult@CStubTypeInfo@@QAEJXZ 1000da30 f tistub.obj
 0001:0000ca59       ?DebugServerQueryInterface@CStubTypeInfo@@UAGJPAPAX@Z 1000da59 f tistub.obj
 0001:0000ca78       ?DebugServerRelease@CStubTypeInfo@@UAGXPAX@Z 1000da78 f tistub.obj
 0001:0000ca90       ??_GCStubTypeInfo@@AAEPAXI@Z 1000da90 f tistub.obj
 0001:0000cad0       ??0CErrorInfo@@QAE@XZ      1000dad0 f errinfo.obj
 0001:0000cb62       ??1CErrorInfo@@QAE@XZ      1000db62 f errinfo.obj
 0001:0000cbaf       ?Create@CErrorInfo@@SAJPAPAV1@@Z 1000dbaf f errinfo.obj
 0001:0000cc18       ?QueryInterface@CErrorInfo@@UAGJABU_GUID@@PAPAX@Z 1000dc18 f errinfo.obj
 0001:0000cce3       ?AddRef@CErrorInfo@@UAGKXZ 1000dce3 f errinfo.obj
 0001:0000cd01       ?Release@CErrorInfo@@UAGKXZ 1000dd01 f errinfo.obj
 0001:0000cd7e       ?GetGUID@CErrorInfo@@UAGJPAU_GUID@@@Z 1000dd7e f errinfo.obj
 0001:0000cddd       ?GetSource@CErrorInfo@@UAGJPAPAG@Z 1000dddd f errinfo.obj
 0001:0000cea5       ?GetDescription@CErrorInfo@@UAGJPAPAG@Z 1000dea5 f errinfo.obj
 0001:0000cef6       ?GetHelpFile@CErrorInfo@@UAGJPAPAG@Z 1000def6 f errinfo.obj
 0001:0000cf47       ?GetHelpContext@CErrorInfo@@UAGJPAK@Z 1000df47 f errinfo.obj
 0001:0000cf92       ?SetGUID@CErrorInfo@@UAGJABU_GUID@@@Z 1000df92 f errinfo.obj
 0001:0000cff1       ?SetSource@CErrorInfo@@UAGJPAG@Z 1000dff1 f errinfo.obj
 0001:0000d050       ?SetDescription@CErrorInfo@@UAGJPAG@Z 1000e050 f errinfo.obj
 0001:0000d0af       ?SetHelpFile@CErrorInfo@@UAGJPAG@Z 1000e0af f errinfo.obj
 0001:0000d10e       ?SetHelpContext@CErrorInfo@@UAGJK@Z 1000e10e f errinfo.obj
 0001:0000d12b       _SetErrorInfo@8            1000e12b f errinfo.obj
 0001:0000d1dc       _GetErrorInfo@8            1000e1dc f errinfo.obj
 0001:0000d27c       _CreateErrorInfo@4         1000e27c f errinfo.obj
 0001:0000d310       ??0IErrorInfo@@QAE@XZ      1000e310 f errinfo.obj
 0001:0000d340       ??0ICreateErrorInfo@@QAE@XZ 1000e340 f errinfo.obj
 0001:0000d370       ??_GCErrorInfo@@QAEPAXI@Z  1000e370 f errinfo.obj
 0001:0000d3b0       ?ValidateReadPtr@@YAJPBXI@Z 1000e3b0 f errinfo.obj
 0001:0000d3f0       ?GetAppData@@YAJPAPAUAPP_DATA@@@Z 1000e3f0 f errinfo.obj
 0001:0000d440       ?QueryInterface@CErrorInfo@@W3AGJABU_GUID@@PAPAX@Z 1000e440 f errinfo.obj
 0001:0000d450       ?AddRef@CErrorInfo@@W3AGKXZ 1000e450 f errinfo.obj
 0001:0000d460       ?Release@CErrorInfo@@W3AGKXZ 1000e460 f errinfo.obj
 0001:0000d470       ?GetPrimaryInterface@@YGJPAUITypeInfo@@PAPAU1@@Z 1000e470 f tiutil.obj
 0001:0000d700       ??0CProxTypeLib@@AAE@PAUIUnknown@@@Z 1000e700 f tlprox.obj
 0001:0000d75e       ?Create@CProxTypeLib@@SAPAUIUnknown@@PAU2@@Z 1000e75e f tlprox.obj
 0001:0000d7c1       ??0CPTLibUnkImpl@@QAE@PAVCProxTypeLib@@@Z 1000e7c1 f tlprox.obj
 0001:0000d7f6       ?QueryInterface@CPTLibUnkImpl@@UAGJABU_GUID@@PAPAX@Z 1000e7f6 f tlprox.obj
 0001:0000d8b5       ?AddRef@CPTLibUnkImpl@@UAGKXZ 1000e8b5 f tlprox.obj
 0001:0000d8d9       ?Release@CPTLibUnkImpl@@UAGKXZ 1000e8d9 f tlprox.obj
 0001:0000d93f       ??0CPTLibProxImpl@@QAE@PAVCProxTypeLib@@@Z 1000e93f f tlprox.obj
 0001:0000d974       ??1CPTLibProxImpl@@QAE@XZ  1000e974 f tlprox.obj
 0001:0000d9bb       ?QueryInterface@CPTLibProxImpl@@UAGJABU_GUID@@PAPAX@Z 1000e9bb f tlprox.obj
 0001:0000d9e6       ?AddRef@CPTLibProxImpl@@UAGKXZ 1000e9e6 f tlprox.obj
 0001:0000da0a       ?Release@CPTLibProxImpl@@UAGKXZ 1000ea0a f tlprox.obj
 0001:0000da2e       ?Connect@CPTLibProxImpl@@UAGJPAUIRpcChannelBuffer@@@Z 1000ea2e f tlprox.obj
 0001:0000da7a       ?Disconnect@CPTLibProxImpl@@UAGXXZ 1000ea7a f tlprox.obj
 0001:0000dac1       ??0CPTLibTypeLibImpl@@QAE@PAVCProxTypeLib@@@Z 1000eac1 f tlprox.obj
 0001:0000db00       ?QueryInterface@CPTLibTypeLibImpl@@UAGJABU_GUID@@PAPAX@Z 1000eb00 f tlprox.obj
 0001:0000db31       ?AddRef@CPTLibTypeLibImpl@@UAGKXZ 1000eb31 f tlprox.obj
 0001:0000db5b       ?Release@CPTLibTypeLibImpl@@UAGKXZ 1000eb5b f tlprox.obj
 0001:0000db85       ?DoGetTypeInfoCount@CPTLibTypeLibImpl@@QAEJPAI@Z 1000eb85 f tlprox.obj
 0001:0000dcb5       ?GetTypeInfoCount@CPTLibTypeLibImpl@@UAGIXZ 1000ecb5 f tlprox.obj
 0001:0000dcf3       ?GetTypeInfo@CPTLibTypeLibImpl@@UAGJIPAPAUITypeInfo@@@Z 1000ecf3 f tlprox.obj
 0001:0000dea6       ?GetTypeInfoType@CPTLibTypeLibImpl@@UAGJIPAW4tagTYPEKIND@@@Z 1000eea6 f tlprox.obj
 0001:0000e069       ?GetTypeInfoOfGuid@CPTLibTypeLibImpl@@UAGJABU_GUID@@PAPAUITypeInfo@@@Z 1000f069 f tlprox.obj
 0001:0000e216       ?GetLibAttr@CPTLibTypeLibImpl@@UAGJPAPAUtagTLIBATTR@@@Z 1000f216 f tlprox.obj
 0001:0000e3d5       ?GetTypeComp@CPTLibTypeLibImpl@@UAGJPAPAUITypeComp@@@Z 1000f3d5 f tlprox.obj
 0001:0000e54c       ?GetDocumentation@CPTLibTypeLibImpl@@UAGJHPAPAG0PAK0@Z 1000f54c f tlprox.obj
 0001:0000e9c6       ?IsName@CPTLibTypeLibImpl@@UAGJPAGKPAH@Z 1000f9c6 f tlprox.obj
 0001:0000ebf5       ?FindName@CPTLibTypeLibImpl@@UAGJPAGKPAPAUITypeInfo@@PAJ0@Z 1000fbf5 f tlprox.obj
 0001:0000efb9       ?ReleaseTLibAttr@CPTLibTypeLibImpl@@UAGXPAUtagTLIBATTR@@@Z 1000ffb9 f tlprox.obj
 0001:0000eff0       ?SysKind@CPTLibTypeLibImpl@@QAEJXZ 1000fff0 f tlprox.obj
 0001:0000f159       ?ReadLibAttr@@YGJPAUIStream@@PAUtagTLIBATTR@@@Z 10010159 f tlprox.obj
 0001:0000f29f       ?WriteLibAttr@@YGJPAUIStream@@PAUtagTLIBATTR@@@Z 1001029f f tlprox.obj
 0001:0000f3f0       ??_GCProxTypeLib@@QAEPAXI@Z 100103f0 f tlprox.obj
 0001:0000f430       ??1CProxTypeLib@@QAE@XZ    10010430 f tlprox.obj
 0001:0000f460       ??0ITypeLib@@QAE@XZ        10010460 f tlprox.obj
 0001:0000f490       ??0CStubTypeLib@@AAE@XZ    10010490 f tlstub.obj
 0001:0000f4ec       ??1CStubTypeLib@@AAE@XZ    100104ec f tlstub.obj
 0001:0000f514       ?Create@CStubTypeLib@@SAJPAUIUnknown@@PAPAUIRpcStubBuffer@@@Z 10010514 f tlstub.obj
 0001:0000f59c       ?QueryInterface@CStubTypeLib@@UAGJABU_GUID@@PAPAX@Z 1001059c f tlstub.obj
 0001:0000f615       ?AddRef@CStubTypeLib@@UAGKXZ 10010615 f tlstub.obj
 0001:0000f633       ?Release@CStubTypeLib@@UAGKXZ 10010633 f tlstub.obj
 0001:0000f68d       ?Connect@CStubTypeLib@@UAGJPAUIUnknown@@@Z 1001068d f tlstub.obj
 0001:0000f718       ?Disconnect@CStubTypeLib@@UAGXXZ 10010718 f tlstub.obj
 0001:0000f77c       ?Invoke@CStubTypeLib@@UAGJPAUtagRPCOLEMESSAGE@@PAUIRpcChannelBuffer@@@Z 1001077c f tlstub.obj
 0001:0000f943       ?IsIIDSupported@CStubTypeLib@@UAGPAUIRpcStubBuffer@@ABU_GUID@@@Z 10010943 f tlstub.obj
 0001:0000f98d       ?CountRefs@CStubTypeLib@@UAGKXZ 1001098d f tlstub.obj
 0001:0000f9cc       ?GetTypeInfoCount@CStubTypeLib@@QAEJXZ 100109cc f tlstub.obj
 0001:0000fa23       ?GetTypeInfo@CStubTypeLib@@QAEJXZ 10010a23 f tlstub.obj
 0001:0000fb59       ?GetTypeInfoType@CStubTypeLib@@QAEJXZ 10010b59 f tlstub.obj
 0001:0000fc7d       ?GetTypeInfoOfGuid@CStubTypeLib@@QAEJXZ 10010c7d f tlstub.obj
 0001:0000fdad       ?GetLibAttr@CStubTypeLib@@QAEJXZ 10010dad f tlstub.obj
 0001:0000fea2       ?GetTypeComp@CStubTypeLib@@QAEJXZ 10010ea2 f tlstub.obj
 0001:0000ff92       ?GetDocumentation@CStubTypeLib@@QAEJXZ 10010f92 f tlstub.obj
 0001:00010340       ?IsName@CStubTypeLib@@QAEJXZ 10011340 f tlstub.obj
 0001:000104ae       ?FindName@CStubTypeLib@@QAEJXZ 100114ae f tlstub.obj
 0001:00010879       ?SysKind@CStubTypeLib@@QAEJXZ 10011879 f tlstub.obj
 0001:0001091d       ?DebugServerQueryInterface@CStubTypeLib@@UAGJPAPAX@Z 1001191d f tlstub.obj
 0001:0001093c       ?DebugServerRelease@CStubTypeLib@@UAGXPAX@Z 1001193c f tlstub.obj
 0001:00010950       ??_GCStubTypeLib@@AAEPAXI@Z 10011950 f tlstub.obj
 0001:00010990       ??0CProxTypeComp@@AAE@PAUIUnknown@@@Z 10011990 f tcprox.obj
 0001:000109ee       ?Create@CProxTypeComp@@SAPAUIUnknown@@PAU2@@Z 100119ee f tcprox.obj
 0001:00010a51       ??0CPTCompUnkImpl@@QAE@PAVCProxTypeComp@@@Z 10011a51 f tcprox.obj
 0001:00010a86       ?QueryInterface@CPTCompUnkImpl@@UAGJABU_GUID@@PAPAX@Z 10011a86 f tcprox.obj
 0001:00010b45       ?AddRef@CPTCompUnkImpl@@UAGKXZ 10011b45 f tcprox.obj
 0001:00010b69       ?Release@CPTCompUnkImpl@@UAGKXZ 10011b69 f tcprox.obj
 0001:00010bcf       ??0CPTCompProxImpl@@QAE@PAVCProxTypeComp@@@Z 10011bcf f tcprox.obj
 0001:00010c04       ??1CPTCompProxImpl@@QAE@XZ 10011c04 f tcprox.obj
 0001:00010c4b       ?QueryInterface@CPTCompProxImpl@@UAGJABU_GUID@@PAPAX@Z 10011c4b f tcprox.obj
 0001:00010c76       ?AddRef@CPTCompProxImpl@@UAGKXZ 10011c76 f tcprox.obj
 0001:00010c9a       ?Release@CPTCompProxImpl@@UAGKXZ 10011c9a f tcprox.obj
 0001:00010cbe       ?Connect@CPTCompProxImpl@@UAGJPAUIRpcChannelBuffer@@@Z 10011cbe f tcprox.obj
 0001:00010d0a       ?Disconnect@CPTCompProxImpl@@UAGXXZ 10011d0a f tcprox.obj
 0001:00010d51       ??0CPTCompTypeCompImpl@@QAE@PAVCProxTypeComp@@@Z 10011d51 f tcprox.obj
 0001:00010d90       ?QueryInterface@CPTCompTypeCompImpl@@UAGJABU_GUID@@PAPAX@Z 10011d90 f tcprox.obj
 0001:00010dc1       ?AddRef@CPTCompTypeCompImpl@@UAGKXZ 10011dc1 f tcprox.obj
 0001:00010deb       ?Release@CPTCompTypeCompImpl@@UAGKXZ 10011deb f tcprox.obj
 0001:00010e15       ?Bind@CPTCompTypeCompImpl@@UAGJPAGKGPAPAUITypeInfo@@PAW4tagDESCKIND@@PATtagBINDPTR@@@Z 10011e15 f tcprox.obj
 0001:000112cd       ?BindType@CPTCompTypeCompImpl@@UAGJPAGKPAPAUITypeInfo@@PAPAUITypeComp@@@Z 100122cd f tcprox.obj
 0001:0001158d       ?SysKind@CPTCompTypeCompImpl@@QAEJXZ 1001258d f tcprox.obj
 0001:00011700       ??_GCProxTypeComp@@QAEPAXI@Z 10012700 f tcprox.obj
 0001:00011740       ??1CProxTypeComp@@QAE@XZ   10012740 f tcprox.obj
 0001:00011770       ??0ITypeComp@@QAE@XZ       10012770 f tcprox.obj
 0001:000117a0       ??0CStubTypeComp@@AAE@XZ   100127a0 f tcstub.obj
 0001:000117fc       ??1CStubTypeComp@@AAE@XZ   100127fc f tcstub.obj
 0001:00011824       ?Create@CStubTypeComp@@SAJPAUIUnknown@@PAPAUIRpcStubBuffer@@@Z 10012824 f tcstub.obj
 0001:000118ac       ?QueryInterface@CStubTypeComp@@UAGJABU_GUID@@PAPAX@Z 100128ac f tcstub.obj
 0001:00011925       ?AddRef@CStubTypeComp@@UAGKXZ 10012925 f tcstub.obj
 0001:00011943       ?Release@CStubTypeComp@@UAGKXZ 10012943 f tcstub.obj
 0001:0001199d       ?Connect@CStubTypeComp@@UAGJPAUIUnknown@@@Z 1001299d f tcstub.obj
 0001:00011a28       ?Disconnect@CStubTypeComp@@UAGXXZ 10012a28 f tcstub.obj
 0001:00011a8c       ?Invoke@CStubTypeComp@@UAGJPAUtagRPCOLEMESSAGE@@PAUIRpcChannelBuffer@@@Z 10012a8c f tcstub.obj
 0001:00011bc2       ?IsIIDSupported@CStubTypeComp@@UAGPAUIRpcStubBuffer@@ABU_GUID@@@Z 10012bc2 f tcstub.obj
 0001:00011c0c       ?CountRefs@CStubTypeComp@@UAGKXZ 10012c0c f tcstub.obj
 0001:00011c4b       ?Bind@CStubTypeComp@@QAEJXZ 10012c4b f tcstub.obj
 0001:0001206d       ?BindType@CStubTypeComp@@QAEJXZ 1001306d f tcstub.obj
 0001:000121f2       ?SysKind@CStubTypeComp@@QAEJXZ 100131f2 f tcstub.obj
 0001:00012296       ?DebugServerQueryInterface@CStubTypeComp@@UAGJPAPAX@Z 10013296 f tcstub.obj
 0001:000122b5       ?DebugServerRelease@CStubTypeComp@@UAGXPAX@Z 100132b5 f tcstub.obj
 0001:000122d0       ??_GCStubTypeComp@@AAEPAXI@Z 100132d0 f tcstub.obj
 0001:00012310       ??0CProxUniv@@QAE@PAUIUnknown@@@Z 10013310 f ups.obj
 0001:000123c6       ??1CProxUniv@@QAE@XZ       100133c6 f ups.obj
 0001:0001249d       ?CanWeRemoteIt@@YAJPAUITypeInfo@@PAGPAH@Z 1001349d f ups.obj
 0001:000125d0       ?Create@CProxUniv@@SAJPAUIUnknown@@ABU_GUID@@PAPAU2@@Z 100135d0 f ups.obj
 0001:00012897       ?CacheFuncDescs@CProxUniv@@QAEJPAUITypeInfo@@@Z 10013897 f ups.obj
 0001:00012b41       ?QueryInterface@CPriv@CProxUniv@@UAGJABU_GUID@@PAPAX@Z 10013b41 f ups.obj
 0001:00012bed       ?AddRef@CPriv@CProxUniv@@UAGKXZ 10013bed f ups.obj
 0001:00012c19       ?Release@CPriv@CProxUniv@@UAGKXZ 10013c19 f ups.obj
 0001:00012c7e       ?Connect@CPriv@CProxUniv@@UAGJPAUIRpcChannelBuffer@@@Z 10013c7e f ups.obj
 0001:00012cec       ?Disconnect@CPriv@CProxUniv@@UAGXXZ 10013cec f ups.obj
 0001:00012d3f       ?PSInit@CProxUniv@@QAEJXZ  10013d3f f ups.obj
 0001:00012f46       _ProxyMethod@16            10013f46 f ups.obj
 0001:0001378f       ??0CStubUniv@@AAE@XZ       1001478f f ups.obj
 0001:00013816       ??1CStubUniv@@AAE@XZ       10014816 f ups.obj
 0001:0001383e       ?Create@CStubUniv@@SAJPAUIUnknown@@ABU_GUID@@PAPAUIRpcStubBuffer@@@Z 1001483e f ups.obj
 0001:000138e2       ?QueryInterface@CStubUniv@@UAGJABU_GUID@@PAPAX@Z 100148e2 f ups.obj
 0001:0001395b       ?AddRef@CStubUniv@@UAGKXZ  1001495b f ups.obj
 0001:00013979       ?Release@CStubUniv@@UAGKXZ 10014979 f ups.obj
 0001:000139d3       ?Connect@CStubUniv@@UAGJPAUIUnknown@@@Z 100149d3 f ups.obj
 0001:00013a63       ?Disconnect@CStubUniv@@UAGXXZ 10014a63 f ups.obj
 0001:00013ac7       ?Invoke@CStubUniv@@UAGJPAUtagRPCOLEMESSAGE@@PAUIRpcChannelBuffer@@@Z 10014ac7 f ups.obj
 0001:00013d52       ?IsIIDSupported@CStubUniv@@UAGPAUIRpcStubBuffer@@ABU_GUID@@@Z 10014d52 f ups.obj
 0001:00013d9e       ?CountRefs@CStubUniv@@UAGKXZ 10014d9e f ups.obj
 0001:00013ddd       ?DebugServerQueryInterface@CStubUniv@@UAGJPAPAX@Z 10014ddd f ups.obj
 0001:00013dfc       ?DebugServerRelease@CStubUniv@@UAGXPAX@Z 10014dfc f ups.obj
 0001:00013e0e       ?PSInit@CStubUniv@@QAEJXZ  10014e0e f ups.obj
 0001:00013f4c       ?DispatchMethod@CStubUniv@@QAEJH@Z 10014f4c f ups.obj
 0001:0001456f       ?VarVtOfIface@@YAJPAUITypeInfo@@PAUtagTYPEATTR@@PAGPAU_GUID@@@Z 1001556f f ups.obj
 0001:0001462c       ?VarVtOfUDT@@YAJPAUITypeInfo@@PAUtagTYPEDESC@@PAGPAU_GUID@@@Z 1001562c f ups.obj
 0001:0001484a       ?VarVtOfTypeDesc@@YAJPAUITypeInfo@@PAUtagTYPEDESC@@PAGPAU_GUID@@@Z 1001584a f ups.obj
 0001:00014b12       ?SzLibIdOfIID@@YAJABU_GUID@@PADJ@Z 10015b12 f ups.obj
 0001:00014b81       ?FIsLCID@@YAHPAD@Z         10015b81 f ups.obj
 0001:00014bf1       ?GetTypeInfoOfIID@@YAJABU_GUID@@PAPAUITypeInfo@@@Z 10015bf1 f ups.obj
 0001:000150c2       ?GetCbStackCleanupOfFuncDesc@@YAJPAUtagFUNCDESC@@PAUITypeInfo@@PAH@Z 100160c2 f ups.obj
 0001:00015210       ??0CPriv@CProxUniv@@QAE@XZ 10016210 f ups.obj
 0001:00015240       ??_GCProxUniv@@QAEPAXI@Z   10016240 f ups.obj
 0001:00015280       ?PProx@CPriv@CProxUniv@@QAEPAV2@XZ 10016280 f ups.obj
 0001:000152e0       ??_GCStubUniv@@AAEPAXI@Z   100162e0 f ups.obj
 0001:00015320       ?UnivQueryInterface@@YGJPAVCProxUniv@@ABU_GUID@@PAPAX@Z 10016320 f uvft.obj
 0001:0001534b       ?UnivAddRef@@YGKPAVCProxUniv@@@Z 1001634b f uvft.obj
 0001:0001536f       ?UnivRelease@@YGKPAVCProxUniv@@@Z 1001636f f uvft.obj
 0001:00015393       ?UnivGetTypeInfoCount@@YGJPAVCProxUniv@@PAI@Z 10016393 f uvft.obj
 0001:000153bf       ?UnivGetTypeInfo@@YGJPAVCProxUniv@@IKPAPAUITypeInfo@@@Z 100163bf f uvft.obj
 0001:000153f3       ?UnivGetIDsOfNames@@YGJPAVCProxUniv@@ABU_GUID@@PAPAGIKPAJ@Z 100163f3 f uvft.obj
 0001:0001542f       ?UnivInvoke@@YGJPAVCProxUniv@@JABU_GUID@@KGPAUtagDISPPARAMS@@PAUtagVARIANT@@PAUtagEXCEPINFO@@PAI@Z 1001642f f uvft.obj
 0001:00015480       ??0CStreamOnBuffer@@QAE@PAUIRpcChannelBuffer@@PAUtagRPCOLEMESSAGE@@ABU_GUID@@K@Z 10016480 f dispstrm.obj
 0001:0001557e       ??1CStreamOnBuffer@@QAE@XZ 1001657e f dispstrm.obj
 0001:000155c3       ?QueryInterface@CStreamOnBuffer@@UAGJABU_GUID@@PAPAX@Z 100165c3 f dispstrm.obj
 0001:00015642       ?AddRef@CStreamOnBuffer@@UAGKXZ 10016642 f dispstrm.obj
 0001:00015660       ?Release@CStreamOnBuffer@@UAGKXZ 10016660 f dispstrm.obj
 0001:000156d8       ?Read@CStreamOnBuffer@@UAGJPAXKPAK@Z 100166d8 f dispstrm.obj
 0001:000157a6       ?Write@CStreamOnBuffer@@UAGJPBXKPAK@Z 100167a6 f dispstrm.obj
 0001:0001589f       ?Seek@CStreamOnBuffer@@UAGJT_LARGE_INTEGER@@KPAT_ULARGE_INTEGER@@@Z 1001689f f dispstrm.obj
 0001:00015988       ?SetSize@CStreamOnBuffer@@UAGJT_ULARGE_INTEGER@@@Z 10016988 f dispstrm.obj
 0001:0001599f       ?CopyTo@CStreamOnBuffer@@UAGJPAUIStream@@T_ULARGE_INTEGER@@PAT3@2@Z 1001699f f dispstrm.obj
 0001:000159b6       ?Commit@CStreamOnBuffer@@UAGJK@Z 100169b6 f dispstrm.obj
 0001:000159cd       ?Revert@CStreamOnBuffer@@UAGJXZ 100169cd f dispstrm.obj
 0001:000159e4       ?LockRegion@CStreamOnBuffer@@UAGJT_ULARGE_INTEGER@@0K@Z 100169e4 f dispstrm.obj
 0001:000159fb       ?UnlockRegion@CStreamOnBuffer@@UAGJT_ULARGE_INTEGER@@0K@Z 100169fb f dispstrm.obj
 0001:00015a12       ?Stat@CStreamOnBuffer@@UAGJPAUtagSTATSTG@@K@Z 10016a12 f dispstrm.obj
 0001:00015a29       ?Clone@CStreamOnBuffer@@UAGJPAPAUIStream@@@Z 10016a29 f dispstrm.obj
 0001:00015a40       ?Call@CStreamOnBuffer@@UAGJXZ 10016a40 f dispstrm.obj
 0001:00015b69       ?RewindBuffer@CStreamOnBuffer@@UAGJXZ 10016b69 f dispstrm.obj
 0001:00015c03       ?ResetBuffer@CStreamOnBuffer@@UAGJXZ 10016c03 f dispstrm.obj
 0001:00015ce6       ?ResizeBuffer@CStreamOnBuffer@@UAGJK@Z 10016ce6 f dispstrm.obj
 0001:00015dd0       ??0IStream@@QAE@XZ         10016dd0 f dispstrm.obj
 0001:00015e00       ??0ISequentialStream@@QAE@XZ 10016e00 f dispstrm.obj
 0001:00015e30       ?GetMalloc@@YAJPAPAUIMalloc@@@Z 10016e30 f dispstrm.obj
 0001:00015e70       ?Pmalloc@@YAPAUIMalloc@@XZ 10016e70 f dispstrm.obj
 0001:00015e90       _IndexOfParam@12           10016e90 f disphelp.obj
 0001:00015f4d       _DispGetParam@20           10016f4d f disphelp.obj
 0001:00015fcd       _DispGetIDsOfNames@16      10016fcd f disphelp.obj
 0001:00015ff7       _DispInvoke@32             10016ff7 f disphelp.obj
 0001:00016040       _DoInvokeMethod@32         10017040 f invhelp.obj
 0001:000160f4       _InvokeCdecl               100170f4 f invoke.obj
 0001:0001626d       _InvokeStdCall             1001726d f invoke.obj
 0001:000163e3       _UM3                       100173e3   invoke.obj
 0001:000163ed       _UM4                       100173ed   invoke.obj
 0001:000163f7       _UM5                       100173f7   invoke.obj
 0001:00016401       _UM6                       10017401   invoke.obj
 0001:0001640b       _UM7                       1001740b   invoke.obj
 0001:00016415       _UM8                       10017415   invoke.obj
 0001:0001641f       _UM9                       1001741f   invoke.obj
 0001:00016429       _UM10                      10017429   invoke.obj
 0001:00016433       _UM11                      10017433   invoke.obj
 0001:0001643d       _UM12                      1001743d   invoke.obj
 0001:00016447       _UM13                      10017447   invoke.obj
 0001:00016451       _UM14                      10017451   invoke.obj
 0001:0001645b       _UM15                      1001745b   invoke.obj
 0001:00016465       _UM16                      10017465   invoke.obj
 0001:0001646f       _UM17                      1001746f   invoke.obj
 0001:00016479       _UM18                      10017479   invoke.obj
 0001:00016483       _UM19                      10017483   invoke.obj
 0001:0001648d       _UM20                      1001748d   invoke.obj
 0001:00016497       _UM21                      10017497   invoke.obj
 0001:000164a1       _UM22                      100174a1   invoke.obj
 0001:000164ab       _UM23                      100174ab   invoke.obj
 0001:000164b5       _UM24                      100174b5   invoke.obj
 0001:000164bf       _UM25                      100174bf   invoke.obj
 0001:000164c9       _UM26                      100174c9   invoke.obj
 0001:000164d3       _UM27                      100174d3   invoke.obj
 0001:000164dd       _UM28                      100174dd   invoke.obj
 0001:000164e7       _UM29                      100174e7   invoke.obj
 0001:000164f1       _UM30                      100174f1   invoke.obj
 0001:000164fb       _UM31                      100174fb   invoke.obj
 0001:00016505       _UM32                      10017505   invoke.obj
 0001:0001650f       _UM33                      1001750f   invoke.obj
 0001:00016519       _UM34                      10017519   invoke.obj
 0001:00016523       _UM35                      10017523   invoke.obj
 0001:0001652d       _UM36                      1001752d   invoke.obj
 0001:00016537       _UM37                      10017537   invoke.obj
 0001:00016541       _UM38                      10017541   invoke.obj
 0001:0001654b       _UM39                      1001754b   invoke.obj
 0001:00016555       _UM40                      10017555   invoke.obj
 0001:0001655f       _UM41                      1001755f   invoke.obj
 0001:00016569       _UM42                      10017569   invoke.obj
 0001:00016573       _UM43                      10017573   invoke.obj
 0001:0001657d       _UM44                      1001757d   invoke.obj
 0001:00016587       _UM45                      10017587   invoke.obj
 0001:00016591       _UM46                      10017591   invoke.obj
 0001:0001659b       _UM47                      1001759b   invoke.obj
 0001:000165a5       _UM48                      100175a5   invoke.obj
 0001:000165af       _UM49                      100175af   invoke.obj
 0001:000165b9       _UM50                      100175b9   invoke.obj
 0001:000165c3       _UM51                      100175c3   invoke.obj
 0001:000165cd       _UM52                      100175cd   invoke.obj
 0001:000165d7       _UM53                      100175d7   invoke.obj
 0001:000165e1       _UM54                      100175e1   invoke.obj
 0001:000165eb       _UM55                      100175eb   invoke.obj
 0001:000165f5       _UM56                      100175f5   invoke.obj
 0001:000165ff       _UM57                      100175ff   invoke.obj
 0001:00016609       _UM58                      10017609   invoke.obj
 0001:00016613       _UM59                      10017613   invoke.obj
 0001:0001661d       _UM60                      1001761d   invoke.obj
 0001:00016627       _UM61                      10017627   invoke.obj
 0001:00016631       _UM62                      10017631   invoke.obj
 0001:0001663b       _UM63                      1001763b   invoke.obj
 0001:00016645       _UM64                      10017645   invoke.obj
 0001:0001664f       _UM65                      1001764f   invoke.obj
 0001:00016659       _UM66                      10017659   invoke.obj
 0001:00016663       _UM67                      10017663   invoke.obj
 0001:0001666d       _UM68                      1001766d   invoke.obj
 0001:00016677       _UM69                      10017677   invoke.obj
 0001:00016681       _UM70                      10017681   invoke.obj
 0001:0001668b       _UM71                      1001768b   invoke.obj
 0001:00016695       _UM72                      10017695   invoke.obj
 0001:0001669f       _UM73                      1001769f   invoke.obj
 0001:000166a9       _UM74                      100176a9   invoke.obj
 0001:000166b3       _UM75                      100176b3   invoke.obj
 0001:000166bd       _UM76                      100176bd   invoke.obj
 0001:000166c7       _UM77                      100176c7   invoke.obj
 0001:000166d1       _UM78                      100176d1   invoke.obj
 0001:000166db       _UM79                      100176db   invoke.obj
 0001:000166e5       _UM80                      100176e5   invoke.obj
 0001:000166ef       _UM81                      100176ef   invoke.obj
 0001:000166f9       _UM82                      100176f9   invoke.obj
 0001:00016703       _UM83                      10017703   invoke.obj
 0001:0001670d       _UM84                      1001770d   invoke.obj
 0001:00016717       _UM85                      10017717   invoke.obj
 0001:00016721       _UM86                      10017721   invoke.obj
 0001:0001672b       _UM87                      1001772b   invoke.obj
 0001:00016735       _UM88                      10017735   invoke.obj
 0001:0001673f       _UM89                      1001773f   invoke.obj
 0001:00016749       _UM90                      10017749   invoke.obj
 0001:00016753       _UM91                      10017753   invoke.obj
 0001:0001675d       _UM92                      1001775d   invoke.obj
 0001:00016767       _UM93                      10017767   invoke.obj
 0001:00016771       _UM94                      10017771   invoke.obj
 0001:0001677b       _UM95                      1001777b   invoke.obj
 0001:00016785       _UM96                      10017785   invoke.obj
 0001:0001678f       _UM97                      1001778f   invoke.obj
 0001:00016799       _UM98                      10017799   invoke.obj
 0001:000167a3       _UM99                      100177a3   invoke.obj
 0001:000167ad       _UM100                     100177ad   invoke.obj
 0001:000167b7       _UM101                     100177b7   invoke.obj
 0001:000167c1       _UM102                     100177c1   invoke.obj
 0001:000167cb       _UM103                     100177cb   invoke.obj
 0001:000167d5       _UM104                     100177d5   invoke.obj
 0001:000167df       _UM105                     100177df   invoke.obj
 0001:000167e9       _UM106                     100177e9   invoke.obj
 0001:000167f3       _UM107                     100177f3   invoke.obj
 0001:000167fd       _UM108                     100177fd   invoke.obj
 0001:00016807       _UM109                     10017807   invoke.obj
 0001:00016811       _UM110                     10017811   invoke.obj
 0001:0001681b       _UM111                     1001781b   invoke.obj
 0001:00016825       _UM112                     10017825   invoke.obj
 0001:0001682f       _UM113                     1001782f   invoke.obj
 0001:00016839       _UM114                     10017839   invoke.obj
 0001:00016843       _UM115                     10017843   invoke.obj
 0001:0001684d       _UM116                     1001784d   invoke.obj
 0001:00016857       _UM117                     10017857   invoke.obj
 0001:00016861       _UM118                     10017861   invoke.obj
 0001:0001686b       _UM119                     1001786b   invoke.obj
 0001:00016875       _UM120                     10017875   invoke.obj
 0001:0001687f       _UM121                     1001787f   invoke.obj
 0001:00016889       _UM122                     10017889   invoke.obj
 0001:00016893       _UM123                     10017893   invoke.obj
 0001:0001689d       _UM124                     1001789d   invoke.obj
 0001:000168a7       _UM125                     100178a7   invoke.obj
 0001:000168b1       _UM126                     100178b1   invoke.obj
 0001:000168bb       _UM127                     100178bb   invoke.obj
 0001:000168c5       _UM128                     100178c5   invoke.obj
 0001:000168cf       _UM129                     100178cf   invoke.obj
 0001:000168d9       _UM130                     100178d9   invoke.obj
 0001:000168e3       _UM131                     100178e3   invoke.obj
 0001:000168ed       _UM132                     100178ed   invoke.obj
 0001:000168f7       _UM133                     100178f7   invoke.obj
 0001:00016901       _UM134                     10017901   invoke.obj
 0001:0001690b       _UM135                     1001790b   invoke.obj
 0001:00016915       _UM136                     10017915   invoke.obj
 0001:0001691f       _UM137                     1001791f   invoke.obj
 0001:00016929       _UM138                     10017929   invoke.obj
 0001:00016933       _UM139                     10017933   invoke.obj
 0001:0001693d       _UM140                     1001793d   invoke.obj
 0001:00016947       _UM141                     10017947   invoke.obj
 0001:00016951       _UM142                     10017951   invoke.obj
 0001:0001695b       _UM143                     1001795b   invoke.obj
 0001:00016965       _UM144                     10017965   invoke.obj
 0001:0001696f       _UM145                     1001796f   invoke.obj
 0001:00016979       _UM146                     10017979   invoke.obj
 0001:00016983       _UM147                     10017983   invoke.obj
 0001:0001698d       _UM148                     1001798d   invoke.obj
 0001:00016997       _UM149                     10017997   invoke.obj
 0001:000169a1       _UM150                     100179a1   invoke.obj
 0001:000169ab       _UM151                     100179ab   invoke.obj
 0001:000169b5       _UM152                     100179b5   invoke.obj
 0001:000169bf       _UM153                     100179bf   invoke.obj
 0001:000169c9       _UM154                     100179c9   invoke.obj
 0001:000169d3       _UM155                     100179d3   invoke.obj
 0001:000169dd       _UM156                     100179dd   invoke.obj
 0001:000169e7       _UM157                     100179e7   invoke.obj
 0001:000169f1       _UM158                     100179f1   invoke.obj
 0001:000169fb       _UM159                     100179fb   invoke.obj
 0001:00016a05       _UM160                     10017a05   invoke.obj
 0001:00016a0f       _UM161                     10017a0f   invoke.obj
 0001:00016a19       _UM162                     10017a19   invoke.obj
 0001:00016a23       _UM163                     10017a23   invoke.obj
 0001:00016a2d       _UM164                     10017a2d   invoke.obj
 0001:00016a37       _UM165                     10017a37   invoke.obj
 0001:00016a41       _UM166                     10017a41   invoke.obj
 0001:00016a4b       _UM167                     10017a4b   invoke.obj
 0001:00016a55       _UM168                     10017a55   invoke.obj
 0001:00016a5f       _UM169                     10017a5f   invoke.obj
 0001:00016a69       _UM170                     10017a69   invoke.obj
 0001:00016a73       _UM171                     10017a73   invoke.obj
 0001:00016a7d       _UM172                     10017a7d   invoke.obj
 0001:00016a87       _UM173                     10017a87   invoke.obj
 0001:00016a91       _UM174                     10017a91   invoke.obj
 0001:00016a9b       _UM175                     10017a9b   invoke.obj
 0001:00016aa5       _UM176                     10017aa5   invoke.obj
 0001:00016aaf       _UM177                     10017aaf   invoke.obj
 0001:00016ab9       _UM178                     10017ab9   invoke.obj
 0001:00016ac3       _UM179                     10017ac3   invoke.obj
 0001:00016acd       _UM180                     10017acd   invoke.obj
 0001:00016ad7       _UM181                     10017ad7   invoke.obj
 0001:00016ae1       _UM182                     10017ae1   invoke.obj
 0001:00016aeb       _UM183                     10017aeb   invoke.obj
 0001:00016af5       _UM184                     10017af5   invoke.obj
 0001:00016aff       _UM185                     10017aff   invoke.obj
 0001:00016b09       _UM186                     10017b09   invoke.obj
 0001:00016b13       _UM187                     10017b13   invoke.obj
 0001:00016b1d       _UM188                     10017b1d   invoke.obj
 0001:00016b27       _UM189                     10017b27   invoke.obj
 0001:00016b31       _UM190                     10017b31   invoke.obj
 0001:00016b3b       _UM191                     10017b3b   invoke.obj
 0001:00016b45       _UM192                     10017b45   invoke.obj
 0001:00016b4f       _UM193                     10017b4f   invoke.obj
 0001:00016b59       _UM194                     10017b59   invoke.obj
 0001:00016b63       _UM195                     10017b63   invoke.obj
 0001:00016b6d       _UM196                     10017b6d   invoke.obj
 0001:00016b77       _UM197                     10017b77   invoke.obj
 0001:00016b81       _UM198                     10017b81   invoke.obj
 0001:00016b8b       _UM199                     10017b8b   invoke.obj
 0001:00016b95       _UM200                     10017b95   invoke.obj
 0001:00016b9f       _UM201                     10017b9f   invoke.obj
 0001:00016ba9       _UM202                     10017ba9   invoke.obj
 0001:00016bb3       _UM203                     10017bb3   invoke.obj
 0001:00016bbd       _UM204                     10017bbd   invoke.obj
 0001:00016bc7       _UM205                     10017bc7   invoke.obj
 0001:00016bd1       _UM206                     10017bd1   invoke.obj
 0001:00016bdb       _UM207                     10017bdb   invoke.obj
 0001:00016be5       _UM208                     10017be5   invoke.obj
 0001:00016bef       _UM209                     10017bef   invoke.obj
 0001:00016bf9       _UM210                     10017bf9   invoke.obj
 0001:00016c03       _UM211                     10017c03   invoke.obj
 0001:00016c0d       _UM212                     10017c0d   invoke.obj
 0001:00016c17       _UM213                     10017c17   invoke.obj
 0001:00016c21       _UM214                     10017c21   invoke.obj
 0001:00016c2b       _UM215                     10017c2b   invoke.obj
 0001:00016c35       _UM216                     10017c35   invoke.obj
 0001:00016c3f       _UM217                     10017c3f   invoke.obj
 0001:00016c49       _UM218                     10017c49   invoke.obj
 0001:00016c53       _UM219                     10017c53   invoke.obj
 0001:00016c5d       _UM220                     10017c5d   invoke.obj
 0001:00016c67       _UM221                     10017c67   invoke.obj
 0001:00016c71       _UM222                     10017c71   invoke.obj
 0001:00016c7b       _UM223                     10017c7b   invoke.obj
 0001:00016c85       _UM224                     10017c85   invoke.obj
 0001:00016c8f       _UM225                     10017c8f   invoke.obj
 0001:00016c99       _UM226                     10017c99   invoke.obj
 0001:00016ca3       _UM227                     10017ca3   invoke.obj
 0001:00016cad       _UM228                     10017cad   invoke.obj
 0001:00016cb7       _UM229                     10017cb7   invoke.obj
 0001:00016cc1       _UM230                     10017cc1   invoke.obj
 0001:00016ccb       _UM231                     10017ccb   invoke.obj
 0001:00016cd5       _UM232                     10017cd5   invoke.obj
 0001:00016cdf       _UM233                     10017cdf   invoke.obj
 0001:00016ce9       _UM234                     10017ce9   invoke.obj
 0001:00016cf3       _UM235                     10017cf3   invoke.obj
 0001:00016cfd       _UM236                     10017cfd   invoke.obj
 0001:00016d07       _UM237                     10017d07   invoke.obj
 0001:00016d11       _UM238                     10017d11   invoke.obj
 0001:00016d1b       _UM239                     10017d1b   invoke.obj
 0001:00016d25       _UM240                     10017d25   invoke.obj
 0001:00016d2f       _UM241                     10017d2f   invoke.obj
 0001:00016d39       _UM242                     10017d39   invoke.obj
 0001:00016d43       _UM243                     10017d43   invoke.obj
 0001:00016d4d       _UM244                     10017d4d   invoke.obj
 0001:00016d57       _UM245                     10017d57   invoke.obj
 0001:00016d61       _UM246                     10017d61   invoke.obj
 0001:00016d6b       _UM247                     10017d6b   invoke.obj
 0001:00016d75       _UM248                     10017d75   invoke.obj
 0001:00016d7f       _UM249                     10017d7f   invoke.obj
 0001:00016d89       _UM250                     10017d89   invoke.obj
 0001:00016d93       _UM251                     10017d93   invoke.obj
 0001:00016d9d       _UM252                     10017d9d   invoke.obj
 0001:00016da7       _UM253                     10017da7   invoke.obj
 0001:00016db1       _UM254                     10017db1   invoke.obj
 0001:00016dbb       _UM255                     10017dbb   invoke.obj
 0001:00016dc5       _UM256                     10017dc5   invoke.obj
 0001:00016dcf       _UM257                     10017dcf   invoke.obj
 0001:00016dd9       _UM258                     10017dd9   invoke.obj
 0001:00016de3       _UM259                     10017de3   invoke.obj
 0001:00016ded       _UM260                     10017ded   invoke.obj
 0001:00016df7       _UM261                     10017df7   invoke.obj
 0001:00016e01       _UM262                     10017e01   invoke.obj
 0001:00016e0b       _UM263                     10017e0b   invoke.obj
 0001:00016e15       _UM264                     10017e15   invoke.obj
 0001:00016e1f       _UM265                     10017e1f   invoke.obj
 0001:00016e29       _UM266                     10017e29   invoke.obj
 0001:00016e33       _UM267                     10017e33   invoke.obj
 0001:00016e3d       _UM268                     10017e3d   invoke.obj
 0001:00016e47       _UM269                     10017e47   invoke.obj
 0001:00016e51       _UM270                     10017e51   invoke.obj
 0001:00016e5b       _UM271                     10017e5b   invoke.obj
 0001:00016e65       _UM272                     10017e65   invoke.obj
 0001:00016e6f       _UM273                     10017e6f   invoke.obj
 0001:00016e79       _UM274                     10017e79   invoke.obj
 0001:00016e83       _UM275                     10017e83   invoke.obj
 0001:00016e8d       _UM276                     10017e8d   invoke.obj
 0001:00016e97       _UM277                     10017e97   invoke.obj
 0001:00016ea1       _UM278                     10017ea1   invoke.obj
 0001:00016eab       _UM279                     10017eab   invoke.obj
 0001:00016eb5       _UM280                     10017eb5   invoke.obj
 0001:00016ebf       _UM281                     10017ebf   invoke.obj
 0001:00016ec9       _UM282                     10017ec9   invoke.obj
 0001:00016ed3       _UM283                     10017ed3   invoke.obj
 0001:00016edd       _UM284                     10017edd   invoke.obj
 0001:00016ee7       _UM285                     10017ee7   invoke.obj
 0001:00016ef1       _UM286                     10017ef1   invoke.obj
 0001:00016efb       _UM287                     10017efb   invoke.obj
 0001:00016f05       _UM288                     10017f05   invoke.obj
 0001:00016f0f       _UM289                     10017f0f   invoke.obj
 0001:00016f19       _UM290                     10017f19   invoke.obj
 0001:00016f23       _UM291                     10017f23   invoke.obj
 0001:00016f2d       _UM292                     10017f2d   invoke.obj
 0001:00016f37       _UM293                     10017f37   invoke.obj
 0001:00016f41       _UM294                     10017f41   invoke.obj
 0001:00016f4b       _UM295                     10017f4b   invoke.obj
 0001:00016f55       _UM296                     10017f55   invoke.obj
 0001:00016f5f       _UM297                     10017f5f   invoke.obj
 0001:00016f69       _UM298                     10017f69   invoke.obj
 0001:00016f73       _UM299                     10017f73   invoke.obj
 0001:00016f7d       _UM300                     10017f7d   invoke.obj
 0001:00016f87       _UM301                     10017f87   invoke.obj
 0001:00016f91       _UM302                     10017f91   invoke.obj
 0001:00016f9b       _UM303                     10017f9b   invoke.obj
 0001:00016fa5       _UM304                     10017fa5   invoke.obj
 0001:00016faf       _UM305                     10017faf   invoke.obj
 0001:00016fb9       _UM306                     10017fb9   invoke.obj
 0001:00016fc3       _UM307                     10017fc3   invoke.obj
 0001:00016fcd       _UM308                     10017fcd   invoke.obj
 0001:00016fd7       _UM309                     10017fd7   invoke.obj
 0001:00016fe1       _UM310                     10017fe1   invoke.obj
 0001:00016feb       _UM311                     10017feb   invoke.obj
 0001:00016ff5       _UM312                     10017ff5   invoke.obj
 0001:00016fff       _UM313                     10017fff   invoke.obj
 0001:00017009       _UM314                     10018009   invoke.obj
 0001:00017013       _UM315                     10018013   invoke.obj
 0001:0001701d       _UM316                     1001801d   invoke.obj
 0001:00017027       _UM317                     10018027   invoke.obj
 0001:00017031       _UM318                     10018031   invoke.obj
 0001:0001703b       _UM319                     1001803b   invoke.obj
 0001:00017045       _UM320                     10018045   invoke.obj
 0001:0001704f       _UM321                     1001804f   invoke.obj
 0001:00017059       _UM322                     10018059   invoke.obj
 0001:00017063       _UM323                     10018063   invoke.obj
 0001:0001706d       _UM324                     1001806d   invoke.obj
 0001:00017077       _UM325                     10018077   invoke.obj
 0001:00017081       _UM326                     10018081   invoke.obj
 0001:0001708b       _UM327                     1001808b   invoke.obj
 0001:00017095       _UM328                     10018095   invoke.obj
 0001:0001709f       _UM329                     1001809f   invoke.obj
 0001:000170a9       _UM330                     100180a9   invoke.obj
 0001:000170b3       _UM331                     100180b3   invoke.obj
 0001:000170bd       _UM332                     100180bd   invoke.obj
 0001:000170c7       _UM333                     100180c7   invoke.obj
 0001:000170d1       _UM334                     100180d1   invoke.obj
 0001:000170db       _UM335                     100180db   invoke.obj
 0001:000170e5       _UM336                     100180e5   invoke.obj
 0001:000170ef       _UM337                     100180ef   invoke.obj
 0001:000170f9       _UM338                     100180f9   invoke.obj
 0001:00017103       _UM339                     10018103   invoke.obj
 0001:0001710d       _UM340                     1001810d   invoke.obj
 0001:00017117       _UM341                     10018117   invoke.obj
 0001:00017121       _UM342                     10018121   invoke.obj
 0001:0001712b       _UM343                     1001812b   invoke.obj
 0001:00017135       _UM344                     10018135   invoke.obj
 0001:0001713f       _UM345                     1001813f   invoke.obj
 0001:00017149       _UM346                     10018149   invoke.obj
 0001:00017153       _UM347                     10018153   invoke.obj
 0001:0001715d       _UM348                     1001815d   invoke.obj
 0001:00017167       _UM349                     10018167   invoke.obj
 0001:00017171       _UM350                     10018171   invoke.obj
 0001:0001717b       _UM351                     1001817b   invoke.obj
 0001:00017185       _UM352                     10018185   invoke.obj
 0001:0001718f       _UM353                     1001818f   invoke.obj
 0001:00017199       _UM354                     10018199   invoke.obj
 0001:000171a3       _UM355                     100181a3   invoke.obj
 0001:000171ad       _UM356                     100181ad   invoke.obj
 0001:000171b7       _UM357                     100181b7   invoke.obj
 0001:000171c1       _UM358                     100181c1   invoke.obj
 0001:000171cb       _UM359                     100181cb   invoke.obj
 0001:000171d5       _UM360                     100181d5   invoke.obj
 0001:000171df       _UM361                     100181df   invoke.obj
 0001:000171e9       _UM362                     100181e9   invoke.obj
 0001:000171f3       _UM363                     100181f3   invoke.obj
 0001:000171fd       _UM364                     100181fd   invoke.obj
 0001:00017207       _UM365                     10018207   invoke.obj
 0001:00017211       _UM366                     10018211   invoke.obj
 0001:0001721b       _UM367                     1001821b   invoke.obj
 0001:00017225       _UM368                     10018225   invoke.obj
 0001:0001722f       _UM369                     1001822f   invoke.obj
 0001:00017239       _UM370                     10018239   invoke.obj
 0001:00017243       _UM371                     10018243   invoke.obj
 0001:0001724d       _UM372                     1001824d   invoke.obj
 0001:00017257       _UM373                     10018257   invoke.obj
 0001:00017261       _UM374                     10018261   invoke.obj
 0001:0001726b       _UM375                     1001826b   invoke.obj
 0001:00017275       _UM376                     10018275   invoke.obj
 0001:0001727f       _UM377                     1001827f   invoke.obj
 0001:00017289       _UM378                     10018289   invoke.obj
 0001:00017293       _UM379                     10018293   invoke.obj
 0001:0001729d       _UM380                     1001829d   invoke.obj
 0001:000172a7       _UM381                     100182a7   invoke.obj
 0001:000172b1       _UM382                     100182b1   invoke.obj
 0001:000172bb       _UM383                     100182bb   invoke.obj
 0001:000172c5       _UM384                     100182c5   invoke.obj
 0001:000172cf       _UM385                     100182cf   invoke.obj
 0001:000172d9       _UM386                     100182d9   invoke.obj
 0001:000172e3       _UM387                     100182e3   invoke.obj
 0001:000172ed       _UM388                     100182ed   invoke.obj
 0001:000172f7       _UM389                     100182f7   invoke.obj
 0001:00017301       _UM390                     10018301   invoke.obj
 0001:0001730b       _UM391                     1001830b   invoke.obj
 0001:00017315       _UM392                     10018315   invoke.obj
 0001:0001731f       _UM393                     1001831f   invoke.obj
 0001:00017329       _UM394                     10018329   invoke.obj
 0001:00017333       _UM395                     10018333   invoke.obj
 0001:0001733d       _UM396                     1001833d   invoke.obj
 0001:00017347       _UM397                     10018347   invoke.obj
 0001:00017351       _UM398                     10018351   invoke.obj
 0001:0001735b       _UM399                     1001835b   invoke.obj
 0001:00017365       _UM400                     10018365   invoke.obj
 0001:0001736f       _UM401                     1001836f   invoke.obj
 0001:00017379       _UM402                     10018379   invoke.obj
 0001:00017383       _UM403                     10018383   invoke.obj
 0001:0001738d       _UM404                     1001838d   invoke.obj
 0001:00017397       _UM405                     10018397   invoke.obj
 0001:000173a1       _UM406                     100183a1   invoke.obj
 0001:000173ab       _UM407                     100183ab   invoke.obj
 0001:000173b5       _UM408                     100183b5   invoke.obj
 0001:000173bf       _UM409                     100183bf   invoke.obj
 0001:000173c9       _UM410                     100183c9   invoke.obj
 0001:000173d3       _UM411                     100183d3   invoke.obj
 0001:000173dd       _UM412                     100183dd   invoke.obj
 0001:000173e7       _UM413                     100183e7   invoke.obj
 0001:000173f1       _UM414                     100183f1   invoke.obj
 0001:000173fb       _UM415                     100183fb   invoke.obj
 0001:00017405       _UM416                     10018405   invoke.obj
 0001:0001740f       _UM417                     1001840f   invoke.obj
 0001:00017419       _UM418                     10018419   invoke.obj
 0001:00017423       _UM419                     10018423   invoke.obj
 0001:0001742d       _UM420                     1001842d   invoke.obj
 0001:00017437       _UM421                     10018437   invoke.obj
 0001:00017441       _UM422                     10018441   invoke.obj
 0001:0001744b       _UM423                     1001844b   invoke.obj
 0001:00017455       _UM424                     10018455   invoke.obj
 0001:0001745f       _UM425                     1001845f   invoke.obj
 0001:00017469       _UM426                     10018469   invoke.obj
 0001:00017473       _UM427                     10018473   invoke.obj
 0001:0001747d       _UM428                     1001847d   invoke.obj
 0001:00017487       _UM429                     10018487   invoke.obj
 0001:00017491       _UM430                     10018491   invoke.obj
 0001:0001749b       _UM431                     1001849b   invoke.obj
 0001:000174a5       _UM432                     100184a5   invoke.obj
 0001:000174af       _UM433                     100184af   invoke.obj
 0001:000174b9       _UM434                     100184b9   invoke.obj
 0001:000174c3       _UM435                     100184c3   invoke.obj
 0001:000174cd       _UM436                     100184cd   invoke.obj
 0001:000174d7       _UM437                     100184d7   invoke.obj
 0001:000174e1       _UM438                     100184e1   invoke.obj
 0001:000174eb       _UM439                     100184eb   invoke.obj
 0001:000174f5       _UM440                     100184f5   invoke.obj
 0001:000174ff       _UM441                     100184ff   invoke.obj
 0001:00017509       _UM442                     10018509   invoke.obj
 0001:00017513       _UM443                     10018513   invoke.obj
 0001:0001751d       _UM444                     1001851d   invoke.obj
 0001:00017527       _UM445                     10018527   invoke.obj
 0001:00017531       _UM446                     10018531   invoke.obj
 0001:0001753b       _UM447                     1001853b   invoke.obj
 0001:00017545       _UM448                     10018545   invoke.obj
 0001:0001754f       _UM449                     1001854f   invoke.obj
 0001:00017559       _UM450                     10018559   invoke.obj
 0001:00017563       _UM451                     10018563   invoke.obj
 0001:0001756d       _UM452                     1001856d   invoke.obj
 0001:00017577       _UM453                     10018577   invoke.obj
 0001:00017581       _UM454                     10018581   invoke.obj
 0001:0001758b       _UM455                     1001858b   invoke.obj
 0001:00017595       _UM456                     10018595   invoke.obj
 0001:0001759f       _UM457                     1001859f   invoke.obj
 0001:000175a9       _UM458                     100185a9   invoke.obj
 0001:000175b3       _UM459                     100185b3   invoke.obj
 0001:000175bd       _UM460                     100185bd   invoke.obj
 0001:000175c7       _UM461                     100185c7   invoke.obj
 0001:000175d1       _UM462                     100185d1   invoke.obj
 0001:000175db       _UM463                     100185db   invoke.obj
 0001:000175e5       _UM464                     100185e5   invoke.obj
 0001:000175ef       _UM465                     100185ef   invoke.obj
 0001:000175f9       _UM466                     100185f9   invoke.obj
 0001:00017603       _UM467                     10018603   invoke.obj
 0001:0001760d       _UM468                     1001860d   invoke.obj
 0001:00017617       _UM469                     10018617   invoke.obj
 0001:00017621       _UM470                     10018621   invoke.obj
 0001:0001762b       _UM471                     1001862b   invoke.obj
 0001:00017635       _UM472                     10018635   invoke.obj
 0001:0001763f       _UM473                     1001863f   invoke.obj
 0001:00017649       _UM474                     10018649   invoke.obj
 0001:00017653       _UM475                     10018653   invoke.obj
 0001:0001765d       _UM476                     1001865d   invoke.obj
 0001:00017667       _UM477                     10018667   invoke.obj
 0001:00017671       _UM478                     10018671   invoke.obj
 0001:0001767b       _UM479                     1001867b   invoke.obj
 0001:00017685       _UM480                     10018685   invoke.obj
 0001:0001768f       _UM481                     1001868f   invoke.obj
 0001:00017699       _UM482                     10018699   invoke.obj
 0001:000176a3       _UM483                     100186a3   invoke.obj
 0001:000176ad       _UM484                     100186ad   invoke.obj
 0001:000176b7       _UM485                     100186b7   invoke.obj
 0001:000176c1       _UM486                     100186c1   invoke.obj
 0001:000176cb       _UM487                     100186cb   invoke.obj
 0001:000176d5       _UM488                     100186d5   invoke.obj
 0001:000176df       _UM489                     100186df   invoke.obj
 0001:000176e9       _UM490                     100186e9   invoke.obj
 0001:000176f3       _UM491                     100186f3   invoke.obj
 0001:000176fd       _UM492                     100186fd   invoke.obj
 0001:00017707       _UM493                     10018707   invoke.obj
 0001:00017711       _UM494                     10018711   invoke.obj
 0001:00017718       _UM495                     10018718   invoke.obj
 0001:0001771f       _UM496                     1001871f   invoke.obj
 0001:00017726       _UM497                     10018726   invoke.obj
 0001:0001772d       _UM498                     1001872d   invoke.obj
 0001:00017734       _UM499                     10018734   invoke.obj
 0001:0001773b       _UM500                     1001873b   invoke.obj
 0001:00017742       _UM501                     10018742   invoke.obj
 0001:00017749       _UM502                     10018749   invoke.obj
 0001:00017750       _UM503                     10018750   invoke.obj
 0001:00017757       _UM504                     10018757   invoke.obj
 0001:0001775e       _UM505                     1001875e   invoke.obj
 0001:00017765       _UM506                     10018765   invoke.obj
 0001:0001776c       _UM507                     1001876c   invoke.obj
 0001:00017773       _UM508                     10018773   invoke.obj
 0001:0001777a       _UM509                     1001877a   invoke.obj
 0001:00017781       _UM510                     10018781   invoke.obj
 0001:00017788       _UM511                     10018788   invoke.obj
 0001:0001778f       _UM512                     1001878f   invoke.obj
 0001:00017796       _lblUmCommon               10018796   invoke.obj
 0001:000177c0       ?Create@CDispTypeInfo@@SAJW4tagTYPEKIND@@PAUtagINTERFACEDATA@@KPAPAUITypeInfo@@@Z 100187c0 f cdispti.obj
 0001:00017846       _CreateDispTypeInfo@12     10018846 f cdispti.obj
 0001:00017896       ??0CDispTypeInfo@@QAE@XZ   10018896 f cdispti.obj
 0001:000178d4       ?QueryInterface@CDispTypeInfo@@UAGJABU_GUID@@PAPAX@Z 100188d4 f cdispti.obj
 0001:0001795f       ?AddRef@CDispTypeInfo@@UAGKXZ 1001895f f cdispti.obj
 0001:0001797d       ?Release@CDispTypeInfo@@UAGKXZ 1001897d f cdispti.obj
 0001:000179ca       ?GetTypeAttr@CDispTypeInfo@@UAGJPAPAUtagTYPEATTR@@@Z 100189ca f cdispti.obj
 0001:00017b23       ?GetTypeComp@CDispTypeInfo@@UAGJPAPAUITypeComp@@@Z 10018b23 f cdispti.obj
 0001:00017b3a       ?InvkindOfDispkind@@YGJGPAW4tagINVOKEKIND@@@Z 10018b3a f cdispti.obj
 0001:00017be3       ?GetFuncDesc@CDispTypeInfo@@UAGJIPAPAUtagFUNCDESC@@@Z 10018be3 f cdispti.obj
 0001:00017df7       ?GetVarDesc@CDispTypeInfo@@UAGJIPAPAUtagVARDESC@@@Z 10018df7 f cdispti.obj
 0001:00017e0e       ?GetNames@CDispTypeInfo@@UAGJJPAPAGIPAI@Z 10018e0e f cdispti.obj
 0001:00017fa1       ?GetRefTypeOfImplType@CDispTypeInfo@@UAGJIPAK@Z 10018fa1 f cdispti.obj
 0001:00017fd5       ?GetImplTypeFlags@CDispTypeInfo@@UAGJIPAH@Z 10018fd5 f cdispti.obj
 0001:00017fec       ?GetIDsOfNames@CDispTypeInfo@@UAGJPAPAGIPAJ@Z 10018fec f cdispti.obj
 0001:00018221       ?Invoke@CDispTypeInfo@@UAGJPAXJGPAUtagDISPPARAMS@@PAUtagVARIANT@@PAUtagEXCEPINFO@@PAI@Z 10019221 f cdispti.obj
 0001:00018652       ?AllocInvokeArgs@CDispTypeInfo@@AAEJIPAPAUtagINVOKEARGS@@@Z 10019652 f cdispti.obj
 0001:000187eb       ?GetInvokeArgs@CDispTypeInfo@@AAEJPAUtagMETHODDATA@@GPAUtagDISPPARAMS@@PAPAUtagINVOKEARGS@@PAI@Z 100197eb f cdispti.obj
 0001:00018af3       ?ReleaseInvokeArgs@CDispTypeInfo@@AAEXPAUtagINVOKEARGS@@@Z 10019af3 f cdispti.obj
 0001:00018bdb       ?GetDocumentation@CDispTypeInfo@@UAGJJPAPAG0PAK0@Z 10019bdb f cdispti.obj
 0001:00018c8c       ?GetDllEntry@CDispTypeInfo@@UAGJJW4tagINVOKEKIND@@PAPAG1PAG@Z 10019c8c f cdispti.obj
 0001:00018ca3       ?GetRefTypeInfo@CDispTypeInfo@@UAGJKPAPAUITypeInfo@@@Z 10019ca3 f cdispti.obj
 0001:00018d24       ?AddressOfMember@CDispTypeInfo@@UAGJJW4tagINVOKEKIND@@PAPAX@Z 10019d24 f cdispti.obj
 0001:00018d3b       ?CreateInstance@CDispTypeInfo@@UAGJPAUIUnknown@@ABU_GUID@@PAPAX@Z 10019d3b f cdispti.obj
 0001:00018d52       ?GetMops@CDispTypeInfo@@UAGJJPAPAG@Z 10019d52 f cdispti.obj
 0001:00018d69       ?GetContainingTypeLib@CDispTypeInfo@@UAGJPAPAUITypeLib@@PAI@Z 10019d69 f cdispti.obj
 0001:00018d80       ?ReleaseTypeAttr@CDispTypeInfo@@UAGXPAUtagTYPEATTR@@@Z 10019d80 f cdispti.obj
 0001:00018dad       ?ReleaseFuncDesc@CDispTypeInfo@@UAGXPAUtagFUNCDESC@@@Z 10019dad f cdispti.obj
 0001:00018df5       ?ReleaseVarDesc@CDispTypeInfo@@UAGXPAUtagVARDESC@@@Z 10019df5 f cdispti.obj
 0001:00018e1d       ?PmdataOfDispid@CDispTypeInfo@@AAEJJGPAPAUtagMETHODDATA@@@Z 10019e1d f cdispti.obj
 0001:00018eb0       ?StrICmp@CDispTypeInfo@@QAEHPAGH0H@Z 10019eb0 f cdispti.obj
 0001:00018f40       ?PmdataOfPropGet@CDispTypeInfo@@AAEJJPAPAUtagMETHODDATA@@@Z 10019f40 f cdispti.obj
 0001:00018f70       ?IsPropGet@CDispTypeInfo@@ABEHG@Z 10019f70 f cdispti.obj
 0001:00018fa0       ?IsPropPut@CDispTypeInfo@@ABEHG@Z 10019fa0 f cdispti.obj
 0001:00018fd0       ?IsLegalInvokeFlags@CDispTypeInfo@@ABEHG@Z 10019fd0 f cdispti.obj
 0001:00019010       _CreateStdDispatch@16      1001a010 f stddisp.obj
 0001:0001903a       ??0CStdDisp@@QAE@XZ        1001a03a f stddisp.obj
 0001:0001909b       ?Create@CStdDisp@@SAJPAUIUnknown@@PAXPAUITypeInfo@@PAPAU2@@Z 1001a09b f stddisp.obj
 0001:00019155       ??0CStdDispUnkImpl@@QAE@PAVCStdDisp@@@Z 1001a155 f stddisp.obj
 0001:0001918a       ?QueryInterface@CStdDispUnkImpl@@UAGJABU_GUID@@PAPAX@Z 1001a18a f stddisp.obj
 0001:0001921e       ?AddRef@CStdDispUnkImpl@@UAGKXZ 1001a21e f stddisp.obj
 0001:00019242       ?Release@CStdDispUnkImpl@@UAGKXZ 1001a242 f stddisp.obj
 0001:000192c3       ?QueryInterface@CStdDisp@@UAGJABU_GUID@@PAPAX@Z 1001a2c3 f stddisp.obj
 0001:000192ee       ?AddRef@CStdDisp@@UAGKXZ   1001a2ee f stddisp.obj
 0001:00019312       ?Release@CStdDisp@@UAGKXZ  1001a312 f stddisp.obj
 0001:00019336       ?GetTypeInfoCount@CStdDisp@@UAGJPAI@Z 1001a336 f stddisp.obj
 0001:0001936e       ?GetTypeInfo@CStdDisp@@UAGJIKPAPAUITypeInfo@@@Z 1001a36e f stddisp.obj
 0001:000193b3       ?GetIDsOfNames@CStdDisp@@UAGJABU_GUID@@PAPAGIKPAJ@Z 1001a3b3 f stddisp.obj
 0001:00019400       ?Invoke@CStdDisp@@UAGJJABU_GUID@@KGPAUtagDISPPARAMS@@PAUtagVARIANT@@PAUtagEXCEPINFO@@PAI@Z 1001a400 f stddisp.obj
 0001:00019460       _DosDateTimeToVariantTime@12 1001a460 f time-api.obj
 0001:00019604       _VariantTimeToDosDateTime@16 1001a604 f time-api.obj
 0001:00019700       _SysAllocString@4          1001a700 f bstr.obj
 0001:0001973a       _SysAllocStringLen@8       1001a73a f bstr.obj
 0001:0001980c       _SysReAllocString@8        1001a80c f bstr.obj
 0001:00019861       _SysReAllocStringLen@12    1001a861 f bstr.obj
 0001:00019937       _SysFreeString@4           1001a937 f bstr.obj
 0001:00019a6e       _SysStringLen@4            1001aa6e f bstr.obj
 0001:00019a9a       _ErrSysAllocString@8       1001aa9a f bstr.obj
 0001:00019af3       _ErrSysAllocStringLen@12   1001aaf3 f bstr.obj
 0001:00019b36       _ErrStringCopy@8           1001ab36 f bstr.obj
 0001:00019b7f       _SysStringByteLen@4        1001ab7f f bstr.obj
 0001:00019ba8       _SysAllocStringByteLen@8   1001aba8 f bstr.obj
 0001:00019c74       _ReleaseBstrCache@4        1001ac74 f bstr.obj
 0001:00019ce0       _SafeArrayAllocDescriptor@8 1001ace0 f sarray.obj
 0001:00019d61       _SafeArrayAllocData@4      1001ad61 f sarray.obj
 0001:00019e30       _SafeArrayCreate@12        1001ae30 f sarray.obj
 0001:0001a070       ?ReleaseResources@@YGXPAXKGK@Z 1001b070 f sarray.obj
 0001:0001a1c7       _SafeArrayDestroyData@4    1001b1c7 f sarray.obj
 0001:0001a33a       _SafeArrayDestroyDescriptor@4 1001b33a f sarray.obj
 0001:0001a3ac       _SafeArrayDestroy@4        1001b3ac f sarray.obj
 0001:0001a473       _SafeArrayRedim@8          1001b473 f sarray.obj
 0001:0001a76a       _SafeArrayCopy@8           1001b76a f sarray.obj
 0001:0001aba5       _SafeArrayGetDim@4         1001bba5 f sarray.obj
 0001:0001abe8       _SafeArrayGetElemsize@4    1001bbe8 f sarray.obj
 0001:0001ac27       _SafeArrayGetUBound@12     1001bc27 f sarray.obj
 0001:0001acbe       _SafeArrayGetLBound@12     1001bcbe f sarray.obj
 0001:0001ad3d       _SafeArrayLock@4           1001bd3d f sarray.obj
 0001:0001ada0       _SafeArrayUnlock@4         1001bda0 f sarray.obj
 0001:0001ae00       _SafeArrayAccessData@8     1001be00 f sarray.obj
 0001:0001ae46       _SafeArrayUnaccessData@4   1001be46 f sarray.obj
 0001:0001ae61       _SafeArrayPtrOfIndex@12    1001be61 f sarray.obj
 0001:0001af32       _SafeArrayGetElement@12    1001bf32 f sarray.obj
 0001:0001b13d       _SafeArrayPutElement@12    1001c13d f sarray.obj
 0001:0001b39b       ?SafeArraySize@@YGKPAUtagSAFEARRAY@@@Z 1001c39b f sarray.obj
 0001:0001b590       _ErrPackDate@16            1001c590 f oledate.obj
 0001:0001b908       _ErrUnpackDate@8           1001c908 f oledate.obj
 0001:0001bc87       _GetCurrentYear@0          1001cc87 f oledate.obj
 0001:0001bcb0       _xtoa@16                   1001ccb0 f crtstuff.obj
 0001:0001bd79       _disp_itoa@12              1001cd79 f crtstuff.obj
 0001:0001bdcd       _disp_ltoa@12              1001cdcd f crtstuff.obj
 0001:0001be21       _disp_floor@8              1001ce21 f crtstuff.obj
 0001:0001be44       _disp_gcvt@20              1001ce44 f crtstuff.obj
 0001:0001be85       _disp_strtod@8             1001ce85 f crtstuff.obj
 0001:0001beb0       _IsCharType                1001ceb0 f bstrdate.obj
 0001:0001bf11       _MonthNumOfMonthName@8     1001cf11 f bstrdate.obj
 0001:0001c016       _SafeGetLocaleInfo@16      1001d016 f bstrdate.obj
 0001:0001c13c       _GetDateInfo@12            1001d13c f bstrdate.obj
 0001:0001c7d5       _IsImperialEra@12          1001d7d5 f bstrdate.obj
 0001:0001cc49       _IsRepublicEra@12          1001dc49 f bstrdate.obj
 0001:0001d18f       _IsDBCSAmPm@12             1001e18f f bstrdate.obj
 0001:0001d73b       _ddsep@12                  1001e73b f bstrdate.obj
 0001:0001e0d9       _ddlex@16                  1001f0d9 f bstrdate.obj
 0001:0001e679       _VarDateFromStr@16         1001f679 f bstrdate.obj
 0001:0001edd1       _LEGAL_DAY@12              1001fdd1 f bstrdate.obj
 0001:0001ee9c       _SetUDSfromYMD             1001fe9c f bstrdate.obj
 0001:0001eec4       _DayOfNN@12                1001fec4 f bstrdate.obj
 0001:0001f24a       _DayOfNNN@12               1002024a f bstrdate.obj
 0001:0001f58a       _DayOfMN@12                1002058a f bstrdate.obj
 0001:0001f60a       _DayOfMNN@12               1002060a f bstrdate.obj
 0001:0001f780       _AdjustTime@8              10020780 f bstrdate.obj
 0001:0001f7fd       _AdjustUDSTime@12          100207fd f bstrdate.obj
 0001:0001f878       _AdjustUDSDate@12          10020878 f bstrdate.obj
 0001:0001f950       _GetImperialEra@8          10020950 f bstrdate.obj
 0001:0001fa57       _RenderDate@16             10020a57 f bstrdate.obj
 0001:0001ff82       _AppendAmPm@16             10020f82 f bstrdate.obj
 0001:00020045       _RenderTime@12             10021045 f bstrdate.obj
 0001:000201f6       _VarBstrFromDate@20        100211f6 f bstrdate.obj
 0001:0002047a       _IntOfString@12            1002147a f bstrdate.obj
 0001:000205a0       _ReportOverflow@0          100215a0 f asmhelp.obj
 0001:000205b5       _ReportInvalidarg@0        100215b5 f asmhelp.obj
 0001:000205f0       _ErrCyFromI2@8             100215f0 f oleconva.obj
 0001:0002060c       _ErrCyFromI4@8             1002160c f oleconva.obj
 0001:00020627       _CkOvflCy@0                10021627 f oleconva.obj
 0001:0002064c       _ErrCyFromR4@8             1002164c f oleconva.obj
 0001:00020679       _ErrCyFromR8@8             10021679 f oleconva.obj
 0001:000206a6       _ErrI2FromCy@12            100216a6 f oleconva.obj
 0001:000206dc       _ErrI4FromCy@12            100216dc f oleconva.obj
 0001:0002070b       _ErrR4FromCy@12            1002170b f oleconva.obj
 0001:00020722       _ErrR8FromCy@12            10021722 f oleconva.obj
 0001:00020739       _ErrMultCyI4@16            10021739 f oleconva.obj
 0001:00020784       _DoFbstp@8                 10021784 f oleconva.obj
 0001:000207e3       _ConvFloatToAscii@12       100217e3 f oleconva.obj
 0001:00020ad0       _VariantInit@4             10021ad0 f variant.obj
 0001:00020aea       _VariantClear@4            10021aea f variant.obj
 0001:00020cda       _VariantCopy@8             10021cda f variant.obj
 0001:00020ea9       _VariantCopyInd@8          10021ea9 f variant.obj
 0001:00021195       _VariantChangeType@16      10022195 f variant.obj
 0001:000211c1       _VariantChangeTypeEx@20    100221c1 f variant.obj
 0001:0002146d       ?IsLegalVartype@@YGJG@Z    1002246d f variant.obj
 0001:00021517       ?ExtractValueProperty@@YGJPAUIDispatch@@KPAUtagVARIANT@@@Z 10022517 f variant.obj
 0001:00021593       ?VariantChangeTypeInternal@@YGJPAUtagVARIANT@@KG@Z 10022593 f variant.obj
 0001:00022520       _DispAlloc@8               10023520 f convertt.obj
 0001:00022592       _DispFree@4                10023592 f convertt.obj
 0001:000225da       _VarBoolFromUI1@8          100235da f convertt.obj
 0001:00022610       _VarBoolFromI2@8           10023610 f convertt.obj
 0001:00022645       _VarBoolFromI4@8           10023645 f convertt.obj
 0001:00022678       _VarBoolFromR4@8           10023678 f convertt.obj
 0001:000226b5       _VarBoolFromR8@12          100236b5 f convertt.obj
 0001:000226f2       _VarBoolFromDate@12        100236f2 f convertt.obj
 0001:00022715       _VarBoolFromCy@12          10023715 f convertt.obj
 0001:0002274a       _VarBoolFromStr@16         1002374a f convertt.obj
 0001:00022916       _VarBoolFromDisp@12        10023916 f convertt.obj
 0001:00022958       _VarUI1FromI2@8            10023958 f convertt.obj
 0001:00022991       _VarUI1FromI4@8            10023991 f convertt.obj
 0001:000229c4       _VarUI1FromR4@8            100239c4 f convertt.obj
 0001:000229f0       _VarUI1FromR8@12           100239f0 f convertt.obj
 0001:00022a44       _VarUI1FromCy@12           10023a44 f convertt.obj
 0001:00022a8a       _VarUI1FromDate@12         10023a8a f convertt.obj
 0001:00022aad       _VarUI1FromBool@8          10023aad f convertt.obj
 0001:00022ac9       _VarUI1FromStr@16          10023ac9 f convertt.obj
 0001:00022b13       _VarUI1FromDisp@12         10023b13 f convertt.obj
 0001:00022b53       _VarI2FromUI1@8            10023b53 f convertt.obj
 0001:00022b72       _VarI2FromI4@8             10023b72 f convertt.obj
 0001:00022bb3       _VarI2FromR4@8             10023bb3 f convertt.obj
 0001:00022bdf       _VarI2FromR8@12            10023bdf f convertt.obj
 0001:00022c34       _VarI2FromCy@12            10023c34 f convertt.obj
 0001:00022c57       _VarI2FromDate@12          10023c57 f convertt.obj
 0001:00022c7a       _VarI2FromBool@8           10023c7a f convertt.obj
 0001:00022c98       _VarI2FromStr@16           10023c98 f convertt.obj
 0001:00022e21       _VarI2FromDisp@12          10023e21 f convertt.obj
 0001:00022e63       _VarI4FromUI1@8            10023e63 f convertt.obj
 0001:00022e81       _VarI4FromI2@8             10023e81 f convertt.obj
 0001:00022e9e       _VarI4FromBool@8           10023e9e f convertt.obj
 0001:00022ebd       _VarI4FromR4@8             10023ebd f convertt.obj
 0001:00022ee1       _VarI4FromR8@12            10023ee1 f convertt.obj
 0001:00022f35       _VarI4FromCy@12            10023f35 f convertt.obj
 0001:00022f58       _VarI4FromDate@12          10023f58 f convertt.obj
 0001:00022f7b       _VarI4FromStr@16           10023f7b f convertt.obj
 0001:000231e8       _VarI4FromDisp@12          100241e8 f convertt.obj
 0001:00023228       ?ConvI4FromR8@@YGJPAN@Z    10024228 f convertt.obj
 0001:000232d4       _VarR4FromUI1@8            100242d4 f convertt.obj
 0001:00023302       _VarR4FromI2@8             10024302 f convertt.obj
 0001:00023328       _VarR4FromBool@8           10024328 f convertt.obj
 0001:00023347       _VarR4FromI4@8             10024347 f convertt.obj
 0001:0002336c       _VarR4FromR8@12            1002436c f convertt.obj
 0001:000233ba       _VarR4FromCy@12            100243ba f convertt.obj
 0001:000233dd       _VarR4FromDate@12          100243dd f convertt.obj
 0001:00023400       _VarR4FromStr@16           10024400 f convertt.obj
 0001:0002347b       _VarR4FromDisp@12          1002447b f convertt.obj
 0001:000234bb       _VarR8FromUI1@8            100244bb f convertt.obj
 0001:000234e9       _VarR8FromI2@8             100244e9 f convertt.obj
 0001:0002350f       _VarR8FromBool@8           1002450f f convertt.obj
 0001:0002352e       _VarR8FromI4@8             1002452e f convertt.obj
 0001:00023553       _VarR8FromR4@8             10024553 f convertt.obj
 0001:0002356f       _VarR8FromCy@12            1002456f f convertt.obj
 0001:00023592       _VarR8FromDate@12          10024592 f convertt.obj
 0001:000235b4       _VarR8FromStr@16           100245b4 f convertt.obj
 0001:00023976       _VarR8FromDisp@12          10024976 f convertt.obj
 0001:000239bc       _VarDateFromUI1@8          100249bc f convertt.obj
 0001:000239dd       _VarDateFromI2@8           100249dd f convertt.obj
 0001:00023a26       _VarDateFromBool@8         10024a26 f convertt.obj
 0001:00023a45       _VarDateFromI4@8           10024a45 f convertt.obj
 0001:00023a8c       _VarDateFromR4@8           10024a8c f convertt.obj
 0001:00023ac7       _VarDateFromR8@12          10024ac7 f convertt.obj
 0001:00023b07       _VarDateFromCy@12          10024b07 f convertt.obj
 0001:00023b58       ?IsValidDate@@YGJN@Z       10024b58 f convertt.obj
 0001:00023b8c       _VarDateFromDisp@12        10024b8c f convertt.obj
 0001:00023bd2       _VarCyFromUI1@8            10024bd2 f convertt.obj
 0001:00023bf3       _VarCyFromI2@8             10024bf3 f convertt.obj
 0001:00023c12       _VarCyFromI4@8             10024c12 f convertt.obj
 0001:00023c31       _VarCyFromR4@8             10024c31 f convertt.obj
 0001:00023c50       _VarCyFromR8@12            10024c50 f convertt.obj
 0001:00023c6f       _VarCyFromDate@12          10024c6f f convertt.obj
 0001:00023c92       _VarCyFromBool@8           10024c92 f convertt.obj
 0001:00023cb1       _VarCyFromStr@16           10024cb1 f convertt.obj
 0001:0002409e       _VarCyFromDisp@12          1002509e f convertt.obj
 0001:000240e6       ?CurrencyFromLcid@@YAGKK@Z 100250e6 f convertt.obj
 0001:00024129       ?DecimalFromLcid@@YAGKK@Z  10025129 f convertt.obj
 0001:0002416c       _MapHalfWidth@12           1002516c f convertt.obj
 0001:00024204       ?ThousandFromLcid@@YAGKK@Z 10025204 f convertt.obj
 0001:00024247       ?StripThousandSeparator@@YGJPAG0KJ@Z 10025247 f convertt.obj
 0001:0002436b       ?LeadingZeroForDecimalFromLcid@@YAHKK@Z 1002536b f convertt.obj
 0001:000243ae       ?FMakePosCy@@YGHPATtagCY@@@Z 100253ae f convertt.obj
 0001:0002440d       ?UnpackCy@@YGXPATtagCY@@PAK@Z 1002540d f convertt.obj
 0001:00024465       ?NegCyNoOflo@@YGXPATtagCY@@@Z 10025465 f convertt.obj
 0001:000244aa       ?AddCyNoOflo@@YGXPATtagCY@@0@Z 100254aa f convertt.obj
 0001:000244fd       _VarBstrFromUI1@16         100254fd f convertt.obj
 0001:00024526       _VarBstrFromI2@16          10025526 f convertt.obj
 0001:0002455e       _VarBstrFromBool@16        1002555e f convertt.obj
 0001:000245aa       _VarBstrFromI4@16          100255aa f convertt.obj
 0001:000245e1       ?BstrFromFloat@@YAJNKKPAPAGH@Z 100255e1 f convertt.obj
 0001:00024b1a       _VarBstrFromR4@16          10025b1a f convertt.obj
 0001:00024b4b       _VarBstrFromR8@20          10025b4b f convertt.obj
 0001:00024b7b       _VarBstrFromCy@20          10025b7b f convertt.obj
 0001:00024dc4       _VarBstrFromDisp@16        10025dc4 f convertt.obj
 0001:00024e04       ?FixNegativeCyStr@@YGHPAGGPAH@Z 10025e04 f convertt.obj
 0001:00025056       ?fParseBegin@@YGHPAPAGPAG1@Z 10026056 f convertt.obj
 0001:000250f3       ?fParseEnd@@YGHPAPAGPAG1@Z 100260f3 f convertt.obj
 0001:000251ce       ?fStripCurrency@@YGHPAPAG0PAG@Z 100261ce f convertt.obj
 0001:00025222       ?StrToCy@@YGJPAGPAPAGHPATtagCY@@KK@Z 10026222 f convertt.obj
 0001:0002581e       ?StrToLong@@YGJPAGPAPAG@Z  1002681e f convertt.obj
 0001:000259af       ?HexOctStrToLong@@YGJPAGPAPAG@Z 100269af f convertt.obj
 0001:00025aa2       ?StrToHex@@YGKPAGPAPAG@Z   10026aa2 f convertt.obj
 0001:00025bd9       ?StrToOct@@YGKPAGPAPAG@Z   10026bd9 f convertt.obj
 0001:00025cca       ?EditStrFromReal@@YGXPAGHKK@Z 10026cca f convertt.obj
 0001:00026133       ?GetDispProperty@@YGJPAUIDispatch@@KGPAUtagVARIANT@@@Z 10027133 f convertt.obj
 0001:000261e5       _IsDBCS@4                  100271e5 f convertt.obj
 0001:00026257       _IsJapan@4                 10027257 f convertt.obj
 0001:000262a2       _IsKorea@4                 100272a2 f convertt.obj
 0001:000262ed       _IsTaiwan@4                100272ed f convertt.obj
 0001:00026338       _IsChina@4                 10027338 f convertt.obj
 0001:00026390       _CompareString@24          10027390 f nlshelp.obj
 0001:000265aa       _LCMapString@24            100275aa f nlshelp.obj
 0001:0002677b       _GetStringTypeEx@20        1002777b f nlshelp.obj
 0001:0002684c       _GetLocaleInfo@16          1002784c f nlshelp.obj
 0001:000268d6       _IsCharAlpha@4             100278d6 f nlshelp.obj
 0001:00026945       _IsCharAlphaNumeric@4      10027945 f nlshelp.obj
 0001:000269c0       ?CreateActiveObjectMoniker@@YGJABU_GUID@@PAPAUIMoniker@@@Z 100279c0 f getobj.obj
 0001:00026a57       _RegisterActiveObject@16   10027a57 f getobj.obj
 0001:00026b73       _RevokeActiveObject@8      10027b73 f getobj.obj
 0001:00026bfe       _GetActiveObject@12        10027bfe f getobj.obj
 0001:00026cb0       _DebPrintf                 10027cb0 f debug2.obj
 0001:00026ceb       _DebAssertFailed           10027ceb f debug2.obj
 0001:00026d1c       _DebHalted                 10027d1c f debug2.obj
 0001:00026d4b       _DebExamineHeap            10027d4b f debug2.obj
 0001:00026d5b       _DebAddInstTable_          10027d5b f debug2.obj
 0001:00026d6b       _DebRemInstTable_          10027d6b f debug2.obj
 0001:00026d7b       _DebErrorNow_              10027d7b f debug2.obj
 0001:00026d8d       _FnAssertCover             10027d8d f debug2.obj
 0001:00026e30       ??2@YAPAXI@Z               10027e30 f debug2.obj
 0001:00026e50       ??3@YAXPAX@Z               10027e50 f debug2.obj
 0001:00026e70       ?CreateStandalone@BLK_MGR@@SAJPAPAV1@H@Z 10027e70 f blkmgr.obj
 0001:00026f6c       ?FreeStandalone@BLK_MGR@@SAXPAV1@@Z 10027f6c f blkmgr.obj
 0001:00026fc4       ??0BLK_MGR@@QAE@XZ         10027fc4 f blkmgr.obj
 0001:0002701b       ?ConsChunkToFreeList@BLK_MGR@@AAEXII@Z 1002801b f blkmgr.obj
 0001:00027084       ?Init@BLK_MGR@@QAEJPAVSHEAP_MGR@@HH@Z 10028084 f blkmgr.obj
 0001:000271aa       ?AddChunkToFreeList@BLK_MGR@@AAEXII@Z 100281aa f blkmgr.obj
 0001:000274e7       ?HfreechunkOfCbSize@BLK_MGR@@AAEII@Z 100284e7 f blkmgr.obj
 0001:000276b2       ?AllocChunk2@BLK_MGR@@AAEJPAIII@Z 100286b2 f blkmgr.obj
 0001:0002791c       ?FreeChunk@BLK_MGR@@QAEXII@Z 1002891c f blkmgr.obj
 0001:000279cf       ?Trim@BLK_MGR@@QAEJXZ      100289cf f blkmgr.obj
 0001:00027a19       ?Trim@BLK_MGR@@AAEJPAI@Z   10028a19 f blkmgr.obj
 0001:00027b3f       ?Free@BLK_MGR@@QAEXXZ      10028b3f f blkmgr.obj
 0001:00027c0b       ?Read@BLK_MGR@@QAEJPAVSTREAM@@@Z 10028c0b f blkmgr.obj
 0001:00027cf0       ?Write@BLK_MGR@@QAEJPAVSTREAM@@@Z 10028cf0 f blkmgr.obj
 0001:00027de1       ?GetSize@BLK_MGR@@QBEIXZ   10028de1 f blkmgr.obj
 0001:00027e1b       ?DebShowState@BLK_MGR@@QBEXI@Z 10028e1b f blkmgr.obj
 0001:00027f12       ?DebCheckState@BLK_MGR@@QBEXI@Z 10028f12 f blkmgr.obj
 0001:00028144       ?DebCheckHandle@BLK_MGR@@QBEXI@Z 10029144 f blkmgr.obj
 0001:00028260       ??2@YAPAXIPAX@Z            10029260 f blkmgr.obj
 0001:00028280       ?Free@BLK_DESC@@QAEXXZ     10029280 f blkmgr.obj
 0001:00028330       ?Psheapmgr@BLK_DESC@@QBEPAVSHEAP_MGR@@XZ 10029330 f blkmgr.obj
 0001:00028350       ?IsValid@BLK_DESC@@QBEHXZ  10029350 f blkmgr.obj
 0001:00028380       ?IsValid@BLK_MGR@@QBEHXZ   10029380 f blkmgr.obj
 0001:000283a0       ?CbSize@BLK_MGR@@ABEIXZ    100293a0 f blkmgr.obj
 0001:000283f0       ?CbSize@BLK_DESC@@QBEIXZ   100293f0 f blkmgr.obj
 0001:00028440       ?CbSizeActual@BLK_DESC@@ABEIXZ 10029440 f blkmgr.obj
 0001:00028490       ?QtrOfHandle@BLK_MGR@@QBEPAEI@Z 10029490 f blkmgr.obj
 0001:00028540       ?QtrOfBlock@BLK_DESC@@QBEPAEXZ 10029540 f blkmgr.obj
 0001:000285a0       ?ReInit@BLK_MGR@@AAEXXZ    100295a0 f blkmgr.obj
 0001:000285e0       ?CbSizeChunkTrue@BLK_MGR@@ABEII@Z 100295e0 f blkmgr.obj
 0001:00028660       ?IsLocked@BLK_MGR@@QBEHXZ  10029660 f blkmgr.obj
 0001:000286b0       ?IsLocked@BLK_DESC@@QBEHXZ 100296b0 f blkmgr.obj
 0001:00028720       ?IsLocked@SHEAP_MGR@@QBEHXZ 10029720 f blkmgr.obj
 0001:00028750       ??_GSHEAP_MGR@@QAEPAXI@Z   10029750 f blkmgr.obj
 0001:00028790       ?ReadSz@STREAM@@QAEJPAPAG@Z 10029790 f fstream.obj
 0001:00028856       ?ReadByte@STREAM@@QAEJPAE@Z 10029856 f fstream.obj
 0001:0002887e       ?ReadUShort@STREAM@@QAEJPAG@Z 1002987e f fstream.obj
 0001:000288a6       ?ReadULong@STREAM@@QAEJPAK@Z 100298a6 f fstream.obj
 0001:000288ce       ?WriteByte@STREAM@@QAEJE@Z 100298ce f fstream.obj
 0001:000288f7       ?WriteUShort@STREAM@@QAEJG@Z 100298f7 f fstream.obj
 0001:00028920       ?WriteULong@STREAM@@QAEJK@Z 10029920 f fstream.obj
 0001:00028950       _MemAlloc                  10029950 f mem.obj
 0001:00028a0c       _MemZalloc                 10029a0c f mem.obj
 0001:00028ab1       _MemRealloc                10029ab1 f mem.obj
 0001:00028b70       _MemFree                   10029b70 f mem.obj
 0001:00028c0c       _MemSize                   10029c0c f mem.obj
 0001:00028c90       ?Create@SHEAP_MGR@@SAJPAPAV1@I@Z 10029c90 f sheapmgr.obj
 0001:00028da7       ??2SHEAP_MGR@@KAPAXI@Z     10029da7 f sheapmgr.obj
 0001:00028dcb       ??3SHEAP_MGR@@SAXPAX@Z     10029dcb f sheapmgr.obj
 0001:00028de7       ??0SHEAP_MGR@@QAE@XZ       10029de7 f sheapmgr.obj
 0001:00028e31       ??1SHEAP_MGR@@QAE@XZ       10029e31 f sheapmgr.obj
 0001:00028ec7       ?Init@SHEAP_MGR@@IAEJI@Z   10029ec7 f sheapmgr.obj
 0001:00028f11       ?PtrOfBlkDescPrev@SHEAP_MGR@@IBEPAVBLK_DESC@@PAV2@@Z 10029f11 f sheapmgr.obj
 0001:00028fce       ?PtrOfBlkDescLast@SHEAP_MGR@@IBEPAVBLK_DESC@@XZ 10029fce f sheapmgr.obj
 0001:00029048       ?RemoveBlkdesc@SHEAP_MGR@@IAEXPAVBLK_DESC@@@Z 1002a048 f sheapmgr.obj
 0001:00029095       ?AddBlkdesc@SHEAP_MGR@@IAEXPAVBLK_DESC@@K@Z 1002a095 f sheapmgr.obj
 0001:00029157       ?DebSheapShakeOn@SHEAP_MGR@@QAEXXZ 1002a157 f sheapmgr.obj
 0001:00029177       ?DebSheapShakeOff@SHEAP_MGR@@QAEXXZ 1002a177 f sheapmgr.obj
 0001:00029197       ?DebCanSheapShake@SHEAP_MGR@@QAEHXZ 1002a197 f sheapmgr.obj
 0001:000291b3       ?DebAddSheapmgrToList@SHEAP_MGR@@SAXPAV1@@Z 1002a1b3 f sheapmgr.obj
 0001:000292a7       ?DebRemoveSheapmgrFromList@SHEAP_MGR@@SAXPAV1@@Z 1002a2a7 f sheapmgr.obj
 0001:000293c3       ?DebCheckState@SHEAP_MGR@@QBEXI@Z 1002a3c3 f sheapmgr.obj
 0001:000293db       ?DebShowState@SHEAP_MGR@@QBEXI@Z 1002a3db f sheapmgr.obj
 0001:000293f3       ?DebSheapShakeOne@SHEAP_MGR@@QAEXXZ 1002a3f3 f sheapmgr.obj
 0001:00029409       ?DebSheapShake@SHEAP_MGR@@SAXXZ 1002a409 f sheapmgr.obj
 0001:00029476       ??0BLK_DESC@@QAE@XZ        1002a476 f sheapmgr.obj
 0001:000294c0       ??1BLK_DESC@@QAE@XZ        1002a4c0 f sheapmgr.obj
 0001:000294ee       ?Init@BLK_DESC@@QAEJPAVSHEAP_MGR@@I@Z 1002a4ee f sheapmgr.obj
 0001:000295b6       ?Realloc@BLK_DESC@@QAEJK@Z 1002a5b6 f sheapmgr.obj
 0001:00029731       ?Read@BLK_DESC@@QAEJPAVSTREAM@@@Z 1002a731 f sheapmgr.obj
 0001:000297ed       ?Write@BLK_DESC@@QAEJPAVSTREAM@@@Z 1002a7ed f sheapmgr.obj
 0001:0002986e       ?DebShowState@BLK_DESC@@QBEXI@Z 1002a86e f sheapmgr.obj
 0001:000298e5       ?DebLock@SHEAP_MGR@@QAEXXZ 1002a8e5 f sheapmgr.obj
 0001:00029901       ?DebUnlock@SHEAP_MGR@@QAEXXZ 1002a901 f sheapmgr.obj
 0001:00029941       ?DebIsLocked@SHEAP_MGR@@QAEHXZ 1002a941 f sheapmgr.obj
 0001:00029970       ?PtrOfBlkDesc@SHEAP_MGR@@IBEPAVBLK_DESC@@PAV2@@Z 1002a970 f sheapmgr.obj
 0001:000299b0       ??0SHEAPMGR_LIST@@QAE@XZ   1002a9b0 f sheapmgr.obj
 0001:000299e0       _LHashValOfNameSys@12      1002a9e0 f tlibutil.obj
 0001:00029a60       _LHashValOfNameSysA@12     1002aa60 f tlibutil.obj
 0001:00029cdc       ?LHashValOfDBCSName@@YAKW4tagSYSKIND@@KPBD@Z 1002acdc f tlibutil.obj
 0001:00029ed7       ?MapDBChar@@YAGGK@Z        1002aed7 f tlibutil.obj
 0001:0002a028       ?GetInsensitiveCompTbl@@YAXKW4tagSYSKIND@@PAD@Z 1002b028 f tlibutil.obj
 0001:0002a310       _xgetc                     1002b310 f tlibutil.obj
 0001:0002a390       ?IsDBCS@@YAHK@Z            1002b390 f tlibutil.obj
 0001:0002a3f0       _oRegSetValue@20           1002b3f0 f ntstring.obj
 0001:0002a505       _oWNetGetConnection@12     1002b505 f ntstring.obj
 0001:0002a6dc       _oRegOpenKey@12            1002b6dc f ntstring.obj
 0001:0002a784       _oRegEnumKey@16            1002b784 f ntstring.obj
 0001:0002a846       _ostat                     1002b846 f ntstring.obj
 0001:0002a8ba       _oOpenFile@12              1002b8ba f ntstring.obj
 0001:0002a919       _oRegQueryValue@16         1002b919 f ntstring.obj
 0001:0002aa5c       _oRegCreateKey@12          1002ba5c f ntstring.obj
 0001:0002aad7       __ultow                    1002bad7 f ntstring.obj
 0001:0002ab17       __wtoi                     1002bb17 f ntstring.obj
 0001:0002ab50       _InitMbString              1002bb50 f mbstring.obj
 0001:0002abc8       __mbschr                   1002bbc8 f mbstring.obj
 0001:0002adb2       __mbsrchr                  1002bdb2 f mbstring.obj
 0001:0002af6a       __mbslen                   1002bf6a f mbstring.obj
 0001:0002aff6       __mbscmp                   1002bff6 f mbstring.obj
 0001:0002b140       ?IsFunkyDispinterface@@YAJPAVGEN_DTINFO@@PAH@Z 1002c140 f gdtinfo.obj
 0001:0002b1e7       ?InterfaceFuncdescToDispatch@@YAXPAUtagFUNCDESC@@@Z 1002c1e7 f gdtinfo.obj
 0001:0002b40a       ?GetTypeInfoOfImplType@@YAJPAVGEN_DTINFO@@IPAPAUITypeInfo@@@Z 1002c40a f gdtinfo.obj
 0001:0002b607       ?IsInterfaceSupported@@YAJPAUITypeInfo@@PAH@Z 1002c607 f gdtinfo.obj
 0001:0002b707       ??0GEN_DTINFO@@IAE@XZ      1002c707 f gdtinfo.obj
 0001:0002b74f       ??1GEN_DTINFO@@MAE@XZ      1002c74f f gdtinfo.obj
 0001:0002b7a8       ?ReleasePublicResources@GEN_DTINFO@@UAEXXZ 1002c7a8 f gdtinfo.obj
 0001:0002b857       ?Create@GEN_DTINFO@@SAJPAPAV1@W4tagTYPEKIND@@HW4ACCESS@@W4tagSYSKIND@@@Z 1002c857 f gdtinfo.obj
 0001:0002b9ae       ?RemoveInternalRefs@GEN_DTINFO@@UAEXXZ 1002c9ae f gdtinfo.obj
 0001:0002b9e3       ?QueryInterface@GEN_DTINFO@@UAGJABU_GUID@@PAPAX@Z 1002c9e3 f gdtinfo.obj
 0001:0002ba3a       ?GetDynTypeMembers@GEN_DTINFO@@UAEJPAPAVDYN_TYPEMEMBERS@@@Z 1002ca3a f gdtinfo.obj
 0001:0002ba88       ?GetDefnTypeBind@GEN_DTINFO@@UAEJPAPAVDEFN_TYPEBIND@@@Z 1002ca88 f gdtinfo.obj
 0001:0002bb1a       ?CreateInstance@GEN_DTINFO@@UAGJPAUIUnknown@@ABU_GUID@@PAPAX@Z 1002cb1a f gdtinfo.obj
 0001:0002bc48       ?GetMemberName@GEN_DTINFO@@UAEJKPAPAD@Z 1002cc48 f gdtinfo.obj
 0001:0002bc79       ?CommitChanges@GEN_DTINFO@@UAEJXZ 1002cc79 f gdtinfo.obj
 0001:0002bc91       ?SzTypeIdofTypeInfo@GEN_DTINFO@@UAEPAGXZ 1002cc91 f gdtinfo.obj
 0001:0002bcac       ?ResetPrePass@GEN_DTINFO@@UAEJXZ 1002ccac f gdtinfo.obj
 0001:0002bccb       ?Reset@GEN_DTINFO@@UAEJXZ  1002cccb f gdtinfo.obj
 0001:0002bcea       ?MakeDual@GEN_DTINFO@@QAEJXZ 1002ccea f gdtinfo.obj
 0001:0002bfb3       ?MakeHimptypeLevels@DYN_TYPEROOT@@QAEJXZ 1002cfb3 f gdtinfo.obj
 0001:0002c183       ?DebCheckState@GEN_DTINFO@@QBEXI@Z 1002d183 f gdtinfo.obj
 0001:0002c1aa       ?GetTypeAttr@GEN_DTINFO@@UAGJPAPAUtagTYPEATTR@@@Z 1002d1aa f gdtinfo.obj
 0001:0002c5e2       ?ReleaseFuncDesc@GEN_DTINFO@@UAGXPAUtagFUNCDESC@@@Z 1002d5e2 f gdtinfo.obj
 0001:0002c600       ?ReleaseVarDesc@GEN_DTINFO@@UAGXPAUtagVARDESC@@@Z 1002d600 f gdtinfo.obj
 0001:0002c61e       ?ReleaseTypeAttr@GEN_DTINFO@@UAGXPAUtagTYPEATTR@@@Z 1002d61e f gdtinfo.obj
 0001:0002c6a6       ?GetTypeComp@GEN_DTINFO@@UAGJPAPAUITypeComp@@@Z 1002d6a6 f gdtinfo.obj
 0001:0002c787       ?GetNames@GEN_DTINFO@@UAGJJPAPAGIPAI@Z 1002d787 f gdtinfo.obj
 0001:0002ca6b       ?GetRefTypeOfImplType@GEN_DTINFO@@UAGJIPAK@Z 1002da6b f gdtinfo.obj
 0001:0002cc44       ?GetImplTypeFlags@GEN_DTINFO@@UAGJIPAH@Z 1002dc44 f gdtinfo.obj
 0001:0002ccb3       ?GetDocumentation@GEN_DTINFO@@UAGJJPAPAG0PAK0@Z 1002dcb3 f gdtinfo.obj
 0001:0002cf5e       ?OGtRfTI@GEN_DTINFO@@UAGJKPAPAUITypeInfo@@@Z 1002df5e f gdtinfo.obj
 0001:0002d352       ?GetDllEntry@GEN_DTINFO@@UAGJJW4tagINVOKEKIND@@PAPAG1PAG@Z 1002e352 f gdtinfo.obj
 0001:0002d661       ?AddressOfMember@GEN_DTINFO@@UAGJJW4tagINVOKEKIND@@PAPAX@Z 1002e661 f gdtinfo.obj
 0001:0002d89d       ?GetMops@GEN_DTINFO@@UAGJJPAPAG@Z 1002e89d f gdtinfo.obj
 0001:0002d8ec       ?SetGuid@GEN_DTINFO@@UAGJABU_GUID@@@Z 1002e8ec f gdtinfo.obj
 0001:0002d93f       ?SetDocString@GEN_DTINFO@@UAGJPAG@Z 1002e93f f gdtinfo.obj
 0001:0002d999       ?SetHelpContext@GEN_DTINFO@@UAGJK@Z 1002e999 f gdtinfo.obj
 0001:0002d9ea       ?SetVersion@GEN_DTINFO@@UAGJGG@Z 1002e9ea f gdtinfo.obj
 0001:0002da8d       ?SetTypeFlags@GEN_DTINFO@@UAGJI@Z 1002ea8d f gdtinfo.obj
 0001:0002dd7e       ?AddRefTypeInfo@GEN_DTINFO@@UAGJPAUITypeInfo@@PAK@Z 1002ed7e f gdtinfo.obj
 0001:0002deca       ?AddImplType@GEN_DTINFO@@UAGJIK@Z 1002eeca f gdtinfo.obj
 0001:0002e1a6       ?SetFuncAndParamNames@GEN_DTINFO@@UAGJIPAPAGI@Z 1002f1a6 f gdtinfo.obj
 0001:0002e21c       ?SetVarName@GEN_DTINFO@@UAGJIPAG@Z 1002f21c f gdtinfo.obj
 0001:0002e2bc       ?SetTypeDescAlias@GEN_DTINFO@@UAGJPAUtagTYPEDESC@@@Z 1002f2bc f gdtinfo.obj
 0001:0002e348       ?SetFuncDocString@GEN_DTINFO@@UAGJIPAG@Z 1002f348 f gdtinfo.obj
 0001:0002e415       ?DefineFuncAsDllEntry@GEN_DTINFO@@UAGJIPAG0@Z 1002f415 f gdtinfo.obj
 0001:0002e5a7       ?SetVarDocString@GEN_DTINFO@@UAGJIPAG@Z 1002f5a7 f gdtinfo.obj
 0001:0002e647       ?SetFuncHelpContext@GEN_DTINFO@@UAGJIK@Z 1002f647 f gdtinfo.obj
 0001:0002e6b9       ?SetVarHelpContext@GEN_DTINFO@@UAGJIK@Z 1002f6b9 f gdtinfo.obj
 0001:0002e72b       ?SetMops@GEN_DTINFO@@UAGJIPAG@Z 1002f72b f gdtinfo.obj
 0001:0002e742       ?SetTypeIdldesc@GEN_DTINFO@@UAGJPAUtagIDLDESC@@@Z 1002f742 f gdtinfo.obj
 0001:0002e759       ?LayOut@GEN_DTINFO@@UAGJXZ 1002f759 f gdtinfo.obj
 0001:0002eb49       ??0DYN_TYPEROOT@@IAE@XZ    1002fb49 f gdtinfo.obj
 0001:0002ebf3       ??3DYN_TYPEROOT@@SAXPAX@Z  1002fbf3 f gdtinfo.obj
 0001:0002ec2e       ?Init@DYN_TYPEROOT@@QAEJPAVGEN_DTINFO@@IIHW4ACCESS@@W4tagTYPEKIND@@W4tagSYSKIND@@@Z 1002fc2e f gdtinfo.obj
 0001:0002ee34       ??1DYN_TYPEROOT@@IAE@XZ    1002fe34 f gdtinfo.obj
 0001:0002efd8       ?GetNamMgr@DYN_TYPEROOT@@QAEJPAPAVNAMMGR@@@Z 1002ffd8 f gdtinfo.obj
 0001:0002f006       ?GetImpMgr@DYN_TYPEROOT@@QAEJPAPAVIMPMGR@@@Z 10030006 f gdtinfo.obj
 0001:0002f1db       ?GetEntMgr@DYN_TYPEROOT@@QAEJPAPAVENTRYMGR@@@Z 100301db f gdtinfo.obj
 0001:0002f3a4       ?GetDtmbrs@DYN_TYPEROOT@@UAEJPAPAVDYN_TYPEMEMBERS@@@Z 100303a4 f gdtinfo.obj
 0001:0002f596       ?EnsurePartsRead@GEN_DTINFO@@UAEJXZ 10030596 f gdtinfo.obj
 0001:0002f5bd       ?ReleaseDtmbrs@DYN_TYPEROOT@@QAEXXZ 100305bd f gdtinfo.obj
 0001:0002f625       ?AddRefDtmbrs@DYN_TYPEROOT@@QAEXXZ 10030625 f gdtinfo.obj
 0001:0002f662       ?Read@DYN_TYPEROOT@@MAEJXZ 10030662 f gdtinfo.obj
 0001:0002f88f       ?ReadFixed@DYN_TYPEROOT@@MAEJPAVSTREAM@@@Z 1003088f f gdtinfo.obj
 0001:0002f978       ?EnsurePartsRead@DYN_TYPEROOT@@MAEJXZ 10030978 f gdtinfo.obj
 0001:0002fa61       ?EnsureInDeclaredState@DYN_TYPEROOT@@QAEJXZ 10030a61 f gdtinfo.obj
 0001:0002fb9a       ?EnsureInSemiDeclaredState@DYN_TYPEROOT@@QAEJXZ 10030b9a f gdtinfo.obj
 0001:0002fc5c       ?Write@DYN_TYPEROOT@@MAEJXZ 10030c5c f gdtinfo.obj
 0001:0002fd70       ?WriteToStream@DYN_TYPEROOT@@MAEJPAVSTREAM@@@Z 10030d70 f gdtinfo.obj
 0001:0002fec6       ?WriteFixed@DYN_TYPEROOT@@MAEJPAVSTREAM@@@Z 10030ec6 f gdtinfo.obj
 0001:0002ffce       ?WriteParts@DYN_TYPEROOT@@MAEJPAVSTREAM@@@Z 10030fce f gdtinfo.obj
 0001:00030145       ?GetEmbeddedTypeInfo@GEN_DTINFO@@UAEJPAGPAPAVTYPEINFO@@@Z 10031145 f gdtinfo.obj
 0001:00030179       ?InitializeIteration@GEN_DTINFO@@UAEJXZ 10031179 f gdtinfo.obj
 0001:000301a5       ?BeginDepIteration@GEN_DTINFO@@UAEJPAPAUTINODE@@PAPAPAU2@@Z 100311a5 f gdtinfo.obj
 0001:000301c7       ?GetNextDepTypeInfo@GEN_DTINFO@@UAEJPAPAVDYNTYPEINFO@@@Z 100311c7 f gdtinfo.obj
 0001:0003029c       ?GetTypeFixups@GEN_DTINFO@@UAEJPAPAVTYPEFIXUPS@@@Z 1003129c f gdtinfo.obj
 0001:000302cd       ?AllDepReady@GEN_DTINFO@@UAEJXZ 100312cd f gdtinfo.obj
 0001:000302ed       ?NotReady@GEN_DTINFO@@UAEJXZ 100312ed f gdtinfo.obj
 0001:0003036b       ?PdfntbindSemiDeclared@DYN_TYPEROOT@@QAEJPAPAVDEFN_TYPEBIND@@@Z 1003136b f gdtinfo.obj
 0001:0003044c       ?IsIdMungable@DYN_TYPEROOT@@QAEHKPAG@Z 1003144c f gdtinfo.obj
 0001:000305b8       ?DebCheckState@DYN_TYPEROOT@@QBEXI@Z 100315b8 f gdtinfo.obj
 0001:00030643       ?GetVarDesc@GEN_DTINFO@@UAGJIPAPAUtagVARDESC@@@Z 10031643 f gdtinfo.obj
 0001:000306ca       ?AddVarDesc@GEN_DTINFO@@UAGJIPAUtagVARDESC@@@Z 100316ca f gdtinfo.obj
 0001:00030921       ?GetFuncDesc@GEN_DTINFO@@UAGJIPAPAUtagFUNCDESC@@@Z 10031921 f gdtinfo.obj
 0001:00030bd2       ?AddFuncDesc@GEN_DTINFO@@UAGJIPAUtagFUNCDESC@@@Z 10031bd2 f gdtinfo.obj
 0001:00030d28       ?PrepareForDestruction@GEN_DTINFO@@UAEXXZ 10031d28 f gdtinfo.obj
 0001:00030d3e       ?SetImplTypeFlags@GEN_DTINFO@@UAGJIH@Z 10031d3e f gdtinfo.obj
 0001:00030db7       ?SetAlignment@GEN_DTINFO@@UAGJG@Z 10031db7 f gdtinfo.obj
 0001:00030de1       ?SetSchema@GEN_DTINFO@@UAGJPAG@Z 10031de1 f gdtinfo.obj
 0001:00030e00       ??_EGEN_DTINFO@@MAEPAXI@Z  10031e00 f gdtinfo.obj
 0001:00030e00       ??_GGEN_DTINFO@@MAEPAXI@Z  10031e00 f gdtinfo.obj
 0001:00030e40       ??_GDYN_TYPEROOT@@IAEPAXI@Z 10031e40 f gdtinfo.obj
 0001:00030e80       ?HchunkDllEntry@DLLENTRY_DEFN@@QBEIXZ 10031e80 f gdtinfo.obj
 0001:00030eb0       ?Hdllentrydefn@FUNC_DEFN@@QBEIXZ 10031eb0 f gdtinfo.obj
 0001:00030ef0       ?IsVirtual@FUNC_DEFN@@QBEHXZ 10031ef0 f gdtinfo.obj
 0001:00030f30       ?Fkind@FUNC_DEFN@@QBE?AW4FUNC_KIND@@XZ 10031f30 f gdtinfo.obj
 0001:00030f60       ?Unlock@SHEAP_MGR@@QAEXXZ  10031f60 f gdtinfo.obj
 0001:00030fa0       ?CDataMember@TYPE_DATA@@QBEIXZ 10031fa0 f gdtinfo.obj
 0001:00030fd0       ?CBase@TYPE_DATA@@QBEIXZ   10031fd0 f gdtinfo.obj
 0001:00031000       ?CAvailMeth@TYPE_DATA@@QBEIXZ 10032000 f gdtinfo.obj
 0001:00031020       ?CMeth@TYPE_DATA@@QBEIXZ   10032020 f gdtinfo.obj
 0001:00031050       ?QfdefnOfHfdefn@TYPE_DATA@@QBEPAVFUNC_DEFN@@II@Z 10032050 f gdtinfo.obj
 0001:00031080       ?QtrOfHandle@BLK_MGR@@QBEPAEII@Z 10032080 f gdtinfo.obj
 0001:00031100       ?HvdefnFirstBase@TYPE_DATA@@QBEIXZ 10032100 f gdtinfo.obj
 0001:00031130       ?IsValid@DYN_BINDNAME_TABLE@@QBEHXZ 10032130 f gdtinfo.obj
 0001:00031170       ?Pdbindnametbl@DYN_TYPEBIND@@QAEPAVDYN_BINDNAME_TABLE@@XZ 10032170 f gdtinfo.obj
 0001:00031190       ?IsRetval@TYPE_DEFN@@QBEHXZ 10032190 f gdtinfo.obj
 0001:000311c0       ?IsLCID@TYPE_DEFN@@QBEHXZ  100321c0 f gdtinfo.obj
 0001:000311f0       ?HtdefnResult@FUNC_TYPE_DEFN@@QBEIXZ 100321f0 f gdtinfo.obj
 0001:00031220       ?CArgsUnmunged@FUNC_DEFN@@QBEIXZ 10032220 f gdtinfo.obj
 0001:00031250       ?CArgsUnmunged@FUNC_TYPE_DEFN@@QBEIXZ 10032250 f gdtinfo.obj
 0001:00031280       ?QtdefnResultOfHfdefn@TYPE_DATA@@QBEPAVTYPE_DEFN@@II@Z 10032280 f gdtinfo.obj
 0001:00031330       ?IsSimpleTypeResult@FUNC_TYPE_DEFN@@QBEHXZ 10032330 f gdtinfo.obj
 0001:00031360       ?QtdefnOfSimpleTypeResult@FUNC_TYPE_DEFN@@QBEPAVTYPE_DEFN@@XZ 10032360 f gdtinfo.obj
 0001:000313b0       ?QtdefnOfHtdefn@TYPE_DATA@@QBEPAVTYPE_DEFN@@II@Z 100323b0 f gdtinfo.obj
 0001:000313e0       ?Qte@OGTOLE@@QBEPAVTYPE_ENTRY@@G@Z 100323e0 f gdtinfo.obj
 0001:00031450       ?Pgptbind@OGTOLE@@QAEPAVGENPROJ_TYPEBIND@@XZ 10032450 f gdtinfo.obj
 0001:00031470       ?GetSyskind@OGTOLE@@QAE?AW4tagSYSKIND@@XZ 10032470 f gdtinfo.obj
 0001:000314a0       ?GetTypeGuid@OGTOLE@@QAEXIPAU_GUID@@@Z 100324a0 f gdtinfo.obj
 0001:00031520       ?SetTypeGuid@OGTOLE@@QAEXIABU_GUID@@@Z 10032520 f gdtinfo.obj
 0001:000315a0       ?QueryInterface@GEN_DTINFO@@W3AGJABU_GUID@@PAPAX@Z 100325a0 f gdtinfo.obj
 0001:000315b0       ?GetVersion@OGTOLE@@QAEGXZ 100325b0 f gdtinfo.obj
 0001:000315d0       ?SetDualTypeLib@OGTOLE@@QAEXXZ 100325d0 f gdtinfo.obj
 0001:00031600       ?SetFuncAndParamNames@OSTL_TI@@UAGJIPAPADI@Z 10032600 f gdtinfo.obj
 0001:00031620       ?SetVarName@OSTL_TI@@UAGJIPAD@Z 10032620 f gdtinfo.obj
 0001:00031640       ??0OSTL_TI@@IAE@XZ         10032640 f gdtinfo.obj
 0001:000316d0       ?GetTypeAttr@OSTL_TI@@UAGJPAPAUtagTYPEATTR@@@Z 100326d0 f gdtinfo.obj
 0001:000316f0       ?GetTypeComp@OSTL_TI@@UAGJPAPAUITypeComp@@@Z 100326f0 f gdtinfo.obj
 0001:00031710       ?GetFuncDesc@OSTL_TI@@UAGJIPAPAUtagFUNCDESC@@@Z 10032710 f gdtinfo.obj
 0001:00031730       ?GetVarDesc@OSTL_TI@@UAGJIPAPAUtagVARDESC@@@Z 10032730 f gdtinfo.obj
 0001:00031750       ?GetNames@OSTL_TI@@UAGJJPAPAGIPAI@Z 10032750 f gdtinfo.obj
 0001:00031770       ?GetRefTypeOfImplType@OSTL_TI@@UAGJIPAK@Z 10032770 f gdtinfo.obj
 0001:00031790       ?GetImplTypeFlags@OSTL_TI@@UAGJIPAH@Z 10032790 f gdtinfo.obj
 0001:000317b0       ?GetIDsOfNames@OSTL_TI@@UAGJPAPAGIPAJ@Z 100327b0 f gdtinfo.obj
 0001:000317d0       ?GetDocumentation@OSTL_TI@@UAGJJPAPAG0PAK0@Z 100327d0 f gdtinfo.obj
 0001:000317f0       ?GetDllEntry@OSTL_TI@@UAGJJW4tagINVOKEKIND@@PAPAG1PAG@Z 100327f0 f gdtinfo.obj
 0001:00031810       ?OGtRfTI@OSTL_TI@@UAGJKPAPAUITypeInfo@@@Z 10032810 f gdtinfo.obj
 0001:00031830       ?AddressOfMember@OSTL_TI@@UAGJJW4tagINVOKEKIND@@PAPAX@Z 10032830 f gdtinfo.obj
 0001:00031850       ?CreateInstance@OSTL_TI@@UAGJPAUIUnknown@@ABU_GUID@@PAPAX@Z 10032850 f gdtinfo.obj
 0001:00031870       ?GetMops@OSTL_TI@@UAGJJPAPAG@Z 10032870 f gdtinfo.obj
 0001:00031890       ?ReleaseTypeAttr@OSTL_TI@@UAGXPAUtagTYPEATTR@@@Z 10032890 f gdtinfo.obj
 0001:000318b0       ?ReleaseFuncDesc@OSTL_TI@@UAGXPAUtagFUNCDESC@@@Z 100328b0 f gdtinfo.obj
 0001:000318d0       ?ReleaseVarDesc@OSTL_TI@@UAGXPAUtagVARDESC@@@Z 100328d0 f gdtinfo.obj
 0001:000318f0       ?SetGuid@OSTL_TI@@UAGJABU_GUID@@@Z 100328f0 f gdtinfo.obj
 0001:00031910       ?SetTypeFlags@OSTL_TI@@UAGJI@Z 10032910 f gdtinfo.obj
 0001:00031930       ?SetDocString@OSTL_TI@@UAGJPAG@Z 10032930 f gdtinfo.obj
 0001:00031950       ?SetHelpContext@OSTL_TI@@UAGJK@Z 10032950 f gdtinfo.obj
 0001:00031970       ?SetVersion@OSTL_TI@@UAGJGG@Z 10032970 f gdtinfo.obj
 0001:00031990       ?AddRefTypeInfo@OSTL_TI@@UAGJPAUITypeInfo@@PAK@Z 10032990 f gdtinfo.obj
 0001:000319b0       ?AddFuncDesc@OSTL_TI@@UAGJIPAUtagFUNCDESC@@@Z 100329b0 f gdtinfo.obj
 0001:000319d0       ?AddImplType@OSTL_TI@@UAGJIK@Z 100329d0 f gdtinfo.obj
 0001:000319f0       ?SetImplTypeFlags@OSTL_TI@@UAGJIH@Z 100329f0 f gdtinfo.obj
 0001:00031a10       ?SetAlignment@OSTL_TI@@UAGJG@Z 10032a10 f gdtinfo.obj
 0001:00031a30       ?SetSchema@OSTL_TI@@UAGJPAG@Z 10032a30 f gdtinfo.obj
 0001:00031a50       ?AddVarDesc@OSTL_TI@@UAGJIPAUtagVARDESC@@@Z 10032a50 f gdtinfo.obj
 0001:00031a70       ?SetTypeDescAlias@OSTL_TI@@UAGJPAUtagTYPEDESC@@@Z 10032a70 f gdtinfo.obj
 0001:00031a90       ?DefineFuncAsDllEntry@OSTL_TI@@UAGJIPAG0@Z 10032a90 f gdtinfo.obj
 0001:00031ab0       ?SetFuncDocString@OSTL_TI@@UAGJIPAG@Z 10032ab0 f gdtinfo.obj
 0001:00031ad0       ?SetVarDocString@OSTL_TI@@UAGJIPAG@Z 10032ad0 f gdtinfo.obj
 0001:00031af0       ?SetFuncHelpContext@OSTL_TI@@UAGJIK@Z 10032af0 f gdtinfo.obj
 0001:00031b10       ?SetVarHelpContext@OSTL_TI@@UAGJIK@Z 10032b10 f gdtinfo.obj
 0001:00031b30       ?SetMops@OSTL_TI@@UAGJIPAG@Z 10032b30 f gdtinfo.obj
 0001:00031b50       ?SetTypeIdldesc@OSTL_TI@@UAGJPAUtagIDLDESC@@@Z 10032b50 f gdtinfo.obj
 0001:00031b70       ?LayOut@OSTL_TI@@UAGJXZ    10032b70 f gdtinfo.obj
 0001:00031b90       ??_GOSTL_TI@@MAEPAXI@Z     10032b90 f gdtinfo.obj
 0001:00031b90       ??_EOSTL_TI@@MAEPAXI@Z     10032b90 f gdtinfo.obj
 0001:00031bd0       ??0DYNTYPEINFO@@QAE@XZ     10032bd0 f gdtinfo.obj
 0001:00031c00       ??0ICreateTypeInfo@@QAE@XZ 10032c00 f gdtinfo.obj
 0001:00031c30       ??0TYPEINFO@@QAE@XZ        10032c30 f gdtinfo.obj
 0001:00031c60       ?GetIndex@OSTL_TI@@QAEIXZ  10032c60 f gdtinfo.obj
 0001:00031c90       ?PgtlibOleContaining@OSTL_TI@@QAEPAVOGTOLE@@XZ 10032c90 f gdtinfo.obj
 0001:00031cd0       ?OpenStream@OSTL_TI@@QAEJPAPAVSTREAM@@W4STREAM_OPEN_MODE@@@Z 10032cd0 f gdtinfo.obj
 0001:00031d10       ?SetPstltiPartner@OSTL_TI@@QAEXPAV1@@Z 10032d10 f gdtinfo.obj
 0001:00031d40       ?AddPartnerRef@OSTL_TI@@QAEXXZ 10032d40 f gdtinfo.obj
 0001:00031d90       ?SetHTEntry@OSTL_TI@@IAEXG@Z 10032d90 f gdtinfo.obj
 0001:00031dc0       ?Ptdata@DYN_TYPEMEMBERS@@QAEPAVTYPE_DATA@@XZ 10032dc0 f gdtinfo.obj
 0001:00031de0       ?Pdtbind@DYN_TYPEMEMBERS@@IBEPAVDYN_TYPEBIND@@XZ 10032de0 f gdtinfo.obj
 0001:00031e00       ?SetAlignment@DYN_TYPEROOT@@QAEXG@Z 10032e00 f gdtinfo.obj
 0001:00031e30       ?Psheapmgr@DYN_TYPEROOT@@QAEPAVSHEAP_MGR@@XZ 10032e30 f gdtinfo.obj
 0001:00031e50       ?CompState@DYN_TYPEROOT@@QBE?AW4COMPSTATE@@XZ 10032e50 f gdtinfo.obj
 0001:00031e70       ?SetCompState@DYN_TYPEROOT@@QAEJW4COMPSTATE@@@Z 10032e70 f gdtinfo.obj
 0001:00031ea0       ?GetTypeFlags@DYN_TYPEROOT@@QBEIXZ 10032ea0 f gdtinfo.obj
 0001:00031ed0       ?Pgdtinfo@DYN_TYPEROOT@@QAEPAVGEN_DTINFO@@XZ 10032ed0 f gdtinfo.obj
 0001:00031ef0       ?Pdtmbrs@DYN_TYPEROOT@@QAEPAVDYN_TYPEMEMBERS@@XZ 10032ef0 f gdtinfo.obj
 0001:00031f10       ?IterationNotInProgress@GEN_DTINFO@@UAEHXZ 10032f10 f gdtinfo.obj
 0001:00031f40       ?EnsureInDeclaredState@GEN_DTINFO@@QAEJXZ 10032f40 f gdtinfo.obj
 0001:00031f70       ?EnsureInSemiDeclaredState@GEN_DTINFO@@QAEJXZ 10032f70 f gdtinfo.obj
 0001:00031fa0       ?Pdtroot@GEN_DTINFO@@QAEPAVDYN_TYPEROOT@@XZ 10032fa0 f gdtinfo.obj
 0001:00031fc0       ?Read@GEN_DTINFO@@UAEJXZ   10032fc0 f gdtinfo.obj
 0001:00031ff0       ?Write@GEN_DTINFO@@UAEJXZ  10032ff0 f gdtinfo.obj
 0001:00032020       ?WriteToStream@GEN_DTINFO@@UAEJPAVSTREAM@@@Z 10033020 f gdtinfo.obj
 0001:00032050       ?EndDepIteration@GEN_DTINFO@@UAEXXZ 10033050 f gdtinfo.obj
 0001:00032080       ?IsReady@GEN_DTINFO@@UAEHXZ 10033080 f gdtinfo.obj
 0001:000320c0       ?IsDual@GEN_DTINFO@@QAEHXZ 100330c0 f gdtinfo.obj
 0001:00032100       ?GetTypeKind@GEN_DTINFO@@QAE?AW4tagTYPEKIND@@XZ 10033100 f gdtinfo.obj
 0001:00032120       ?IsDualDispinterface@GEN_DTINFO@@QAEHXZ 10033120 f gdtinfo.obj
 0001:00032170       ?SetIsDual@GEN_DTINFO@@QAEXH@Z 10033170 f gdtinfo.obj
 0001:000321c0       ?PgdtinfoPartner@GEN_DTINFO@@QAEPAV1@XZ 100331c0 f gdtinfo.obj
 0001:000321e0       ?PstltiPartner@OSTL_TI@@QAEPAV1@XZ 100331e0 f gdtinfo.obj
 0001:00032200       ?LHrefOffset@DYN_TYPEROOT@@QAEKXZ 10033200 f gdtinfo.obj
 0001:00032220       ?SetLHrefOffset@DYN_TYPEROOT@@QAEXK@Z 10033220 f gdtinfo.obj
 0001:00032250       ?FUseHrefOffset@DYN_TYPEROOT@@QAEHXZ 10033250 f gdtinfo.obj
 0001:00032290       ?IsHimptypeLevel@DYN_TYPEROOT@@QAEHK@Z 10033290 f gdtinfo.obj
 0001:000322f0       ?HreftypeOfHimptype@DYN_TYPEROOT@@QAEKI@Z 100332f0 f gdtinfo.obj
 0001:00032370       ?HimptypeOfHreftype@DYN_TYPEROOT@@QAEIK@Z 10033370 f gdtinfo.obj
 0001:00032420       ?GetTypeInfo@IMPMGR@@QAEJIW4DEPEND_KIND@@PAPAVTYPEINFO@@@Z 10033420 f gdtinfo.obj
 0001:00032450       ?IsEmpty@IMPMGR@@QAEHXZ    10033450 f gdtinfo.obj
 0001:00032490       ?GetImpTypeSize@IMPMGR@@QAEIXZ 10033490 f gdtinfo.obj
 0001:000324c0       ?QdllentrydefnOfHdllentrydefn@ENTRYMGR@@QBEPAVDLLENTRY_DEFN@@I@Z 100334c0 f gdtinfo.obj
 0001:00032510       ?HasOrdinalOfHdllentrydefn@ENTRYMGR@@QBEHI@Z 10033510 f gdtinfo.obj
 0001:00032540       ?HasOrdinal@DLLENTRY_DEFN@@QBEHXZ 10033540 f gdtinfo.obj
 0001:00032560       ?DllNameOfHdllentrydefn@ENTRYMGR@@QBEII@Z 10033560 f gdtinfo.obj
 0001:00032590       ?HlnamDllName@DLLENTRY_DEFN@@QBEIXZ 10033590 f gdtinfo.obj
 0001:000325c0       ?OrdinalOfHdllentrydefn@ENTRYMGR@@QBEGI@Z 100335c0 f gdtinfo.obj
 0001:00032620       ?UDllOrdinal@DLLENTRY_DEFN@@QBEGXZ 10033620 f gdtinfo.obj
 0001:00032640       ?AllocDllentrydefnByName@ENTRYMGR@@QAEJIPADPAI@Z 10033640 f gdtinfo.obj
 0001:00032760       ?AllocChunk@BLK_MGR@@QAEJPAII@Z 10033760 f gdtinfo.obj
 0001:00032790       ?SetHchunkDllEntry@DLLENTRY_DEFN@@QAEXI@Z 10033790 f gdtinfo.obj
 0001:000327c0       ?AllocDllentrydefnByOrdinal@ENTRYMGR@@QAEJIIPAI@Z 100337c0 f gdtinfo.obj
 0001:00032860       ?SetUDllOrdinal@DLLENTRY_DEFN@@QAEXG@Z 10033860 f gdtinfo.obj
 0001:00032890       ?IsEmpty@ENTRYMGR@@QAEHXZ  10033890 f gdtinfo.obj
 0001:000328d0       ?QueryInterface@OSTL_TI@@W3AGJABU_GUID@@PAPAX@Z 100338d0 f gdtinfo.obj
 0001:000328e0       ?AddRef@OSTL_TI@@W3AGKXZ   100338e0 f gdtinfo.obj
 0001:000328f0       ?Release@OSTL_TI@@W3AGKXZ  100338f0 f gdtinfo.obj
 0001:00032900       ?GetIDsOfNames@GEN_DTINFO@@UAGJPAPAGIPAJ@Z 10033900 f gdtrt.obj
 0001:00033035       ?IndexOfParam@GEN_DTINFO@@QAEJPAUtagDISPPARAMS@@IPAI@Z 10034035 f gdtrt.obj
 0001:000330f9       ?VariantVtOfTypedesc@GEN_DTINFO@@QAEJPAUtagTYPEDESC@@PAGPAU_GUID@@1@Z 100340f9 f gdtrt.obj
 0001:00033571       ?VariantVtOfHtdefn@GEN_DTINFO@@QAEJIPAVTYPE_DATA@@HPAGPAU_GUID@@1@Z 10034571 f gdtrt.obj
 0001:000335dc       ?Invoke@GEN_DTINFO@@UAGJPAXJGPAUtagDISPPARAMS@@PAUtagVARIANT@@PAUtagEXCEPINFO@@PAI@Z 100345dc f gdtrt.obj
 0001:000342e9       ?CoerceArg@GEN_DTINFO@@QAEJPAUtagVARIANT@@GGPAU_GUID@@PAUINVOKEARGS@1@I@Z 100352e9 f gdtrt.obj
 0001:00034857       ?GetInvokeArgs@GEN_DTINFO@@QAEJIPAVTYPE_DATA@@GPAUtagDISPPARAMS@@PAPAUtagVARIANT@@PAXPAPAUINVOKEARGS@1@PAIH@Z 10035857 f gdtrt.obj
 0001:000350f4       ?AllocInvokeArgs@GEN_DTINFO@@QAEJIIPAPAUINVOKEARGS@1@@Z 100360f4 f gdtrt.obj
 0001:00035391       ?ReleaseInvokeArgs@GEN_DTINFO@@QAEXPAUINVOKEARGS@1@@Z 10036391 f gdtrt.obj
 0001:00035431       ?CopyBackByrefArgs@GEN_DTINFO@@QAEJPAUINVOKEARGS@1@@Z 10036431 f gdtrt.obj
 0001:00035850       ?IsPropGet@GEN_DTINFO@@QAEHG@Z 10036850 f gdtrt.obj
 0001:00035880       ?IsPropPut@GEN_DTINFO@@QAEHG@Z 10036880 f gdtrt.obj
 0001:000358b0       ?IsLegalInvokeFlags@GEN_DTINFO@@QAEHG@Z 100368b0 f gdtrt.obj
 0001:000358f0       ?Himptype@TYPE_DEFN@@QBEIXZ 100368f0 f gdtrt.obj
 0001:00035920       ?Qhimptype@TYPE_DEFN@@QBEPAGXZ 10036920 f gdtrt.obj
 0001:00035960       ?IsUserDefined@TYPE_DEFN@@QBEHXZ 10036960 f gdtrt.obj
 0001:000359a0       ?Tdesckind@TYPE_DEFN@@QBE?AW4TYPEDESCKIND@@XZ 100369a0 f gdtrt.obj
 0001:000359d0       ?IsModeOut@TYPE_DEFN@@QBEHXZ 100369d0 f gdtrt.obj
 0001:00035a10       ?Paramkind@TYPE_DEFN@@QBE?AW4PARAMKIND@@XZ 10036a10 f gdtrt.obj
 0001:00035a40       ?HdefnNext@DEFN@@QBEIXZ    10036a40 f gdtrt.obj
 0001:00035a70       ?IsMemberVarDefn@DEFN@@QBEHXZ 10036a70 f gdtrt.obj
 0001:00035ab0       ?Defnkind@DEFN@@QBE?AW4DEFNKIND@@XZ 10036ab0 f gdtrt.obj
 0001:00035ae0       ?Hmember@MEMBER_DEFN@@QBEKXZ 10036ae0 f gdtrt.obj
 0001:00035b00       ?Htdefn@VAR_DEFN@@QBEIXZ   10036b00 f gdtrt.obj
 0001:00035b30       ?GetImplTypeFlags@VAR_DEFN@@QBEGXZ 10036b30 f gdtrt.obj
 0001:00035b90       ?Hmember@MBR_VAR_DEFN@@QBEKXZ 10036b90 f gdtrt.obj
 0001:00035bc0       ??0PARAM_DEFN@@QAE@XZ      10036bc0 f gdtrt.obj
 0001:00035bf0       ?IsSimpleType@PARAM_DEFN@@QBEHXZ 10036bf0 f gdtrt.obj
 0001:00035c20       ?Hlnam@PARAM_DEFN@@QBEIXZ  10036c20 f gdtrt.obj
 0001:00035c70       ?Htdefn@PARAM_DEFN@@QBEIXZ 10036c70 f gdtrt.obj
 0001:00035ca0       ?QtdefnOfSimpleType@PARAM_DEFN@@QBEPAVTYPE_DEFN@@XZ 10036ca0 f gdtrt.obj
 0001:00035cf0       ?Cc@FUNC_TYPE_DEFN@@QBE?AW4tagCALLCONV@@XZ 10036cf0 f gdtrt.obj
 0001:00035d20       ?InvokeKind@FUNC_DEFN@@QBE?AW4tagINVOKEKIND@@XZ 10036d20 f gdtrt.obj
 0001:00035da0       ?IsPropertyLet@FUNC_DEFN@@QBEHXZ 10036da0 f gdtrt.obj
 0001:00035dd0       ?IsPropertySet@FUNC_DEFN@@QBEHXZ 10036dd0 f gdtrt.obj
 0001:00035e00       ?Ovft@FUNC_DEFN@@QBEIXZ    10036e00 f gdtrt.obj
 0001:00035e30       ?IsSub@FUNC_DEFN@@QBEHXZ   10036e30 f gdtrt.obj
 0001:00035ec0       ?Ptrkind@TYPE_DEFN@@QBE?AW4PTRKIND@@XZ 10036ec0 f gdtrt.obj
 0001:00035ef0       ?CArgs@FUNC_DEFN@@QBEIXZ   10036ef0 f gdtrt.obj
 0001:00035f20       ?CArgs@FUNC_TYPE_DEFN@@QBEIXZ 10036f20 f gdtrt.obj
 0001:00035fa0       ?HasRetval@FUNC_TYPE_DEFN@@QBEHXZ 10036fa0 f gdtrt.obj
 0001:00035ff0       ?HasLcid@FUNC_TYPE_DEFN@@QBEHXZ 10036ff0 f gdtrt.obj
 0001:00036040       ?CArgsOpt@FUNC_DEFN@@QBEHXZ 10037040 f gdtrt.obj
 0001:00036070       ?CArgsOpt@FUNC_TYPE_DEFN@@QBEHXZ 10037070 f gdtrt.obj
 0001:000360c0       ?IsParamArray@FUNC_TYPE_DEFN@@QBEHXZ 100370c0 f gdtrt.obj
 0001:00036100       ?SizeofTdesckind@@YAGW4TYPEDESCKIND@@W4tagSYSKIND@@@Z 10037100 f gdtrt.obj
 0001:00036130       ?Pimpmgr@TYPE_DATA@@QBEPAVIMPMGR@@XZ 10037130 f gdtrt.obj
 0001:00036170       ?QvdefnOfHvdefn@TYPE_DATA@@QBEPAVVAR_DEFN@@II@Z 10037170 f gdtrt.obj
 0001:000361a0       ?QdefnOfHdefn@TYPE_DATA@@QBEPAVDEFN@@II@Z 100371a0 f gdtrt.obj
 0001:000361d0       ?QparamdefnOfIndex@TYPE_DATA@@QBEPAVPARAM_DEFN@@II@Z 100371d0 f gdtrt.obj
 0001:00036200       ?QparamdefnOfHparamdefn@TYPE_DATA@@QBEPAVPARAM_DEFN@@II@Z 10037200 f gdtrt.obj
 0001:00036230       ??0EXBIND@@QAE@XZ          10037230 f gdtrt.obj
 0001:00036290       ?BindKind@EXBIND@@QBE?AW4BIND_KIND@@XZ 10037290 f gdtrt.obj
 0001:000362b0       ?Hvdefn@EXBIND@@QBEIXZ     100372b0 f gdtrt.obj
 0001:00036310       ?IsOneVarMatch@EXBIND@@QBEHXZ 10037310 f gdtrt.obj
 0001:00036340       ?IsImplicitAppobjMatch@EXBIND@@QBEHXZ 10037340 f gdtrt.obj
 0001:00036370       ?Hdefn@EXBIND@@QBEIXZ      10037370 f gdtrt.obj
 0001:000363e0       ?IsFuncMatch@EXBIND@@QBEHXZ 100373e0 f gdtrt.obj
 0001:00036410       ?Hfdefn@EXBIND@@QBEIXZ     10037410 f gdtrt.obj
 0001:00036460       ?Ptdata@EXBIND@@QBEPAVTYPE_DATA@@XZ 10037460 f gdtrt.obj
 0001:000364c0       ?Ptinfo@EXBIND@@QBEPAUITypeInfo@@XZ 100374c0 f gdtrt.obj
 0001:000364e0       ?GetLcid@OSTL_TI@@IAEJPAK@Z 100374e0 f stltinfo.obj
 0001:0003650e       ?RelInternalRef@OSTL_TI@@QAEXXZ 1003750e f stltinfo.obj
 0001:000365df       ?QueryInterface@DYNTYPEINFO@@UAGJABU_GUID@@PAPAX@Z 100375df f stltinfo.obj
 0001:000366cf       ?QueryInterface@OSTL_TI@@UAGJABU_GUID@@PAPAX@Z 100376cf f stltinfo.obj
 0001:000367a6       ?AddRef@OSTL_TI@@UAGKXZ    100377a6 f stltinfo.obj
 0001:000367fb       ?Release@OSTL_TI@@UAGKXZ   100377fb f stltinfo.obj
 0001:000368ea       ?SetModified@OSTL_TI@@QAEJH@Z 100378ea f stltinfo.obj
 0001:00036980       ?SetContainingTypeLib@OSTL_TI@@IAEXPAVOGTOLE@@@Z 10037980 f stltinfo.obj
 0001:00036a4c       ??1OSTL_TI@@MAE@XZ         10037a4c f stltinfo.obj
 0001:00036a75       ?GetContainingTypeLib@OSTL_TI@@UAGJPAPAUITypeLib@@PAI@Z 10037a75 f stltinfo.obj
 0001:00036adf       ?PrepareForDestruction@OSTL_TI@@UAEXXZ 10037adf f stltinfo.obj
 0001:00036af5       ?Invoke@OSTL_TI@@UAGJPAXJGPAUtagDISPPARAMS@@PAUtagVARIANT@@PAUtagEXCEPINFO@@PAI@Z 10037af5 f stltinfo.obj
 0001:00036b10       ?GetLcid@OGTOLE@@QAEKXZ    10037b10 f stltinfo.obj
 0001:00036b30       ?ReleasePartner@OSTL_TI@@QAEXXZ 10037b30 f stltinfo.obj
 0001:00036bc0       ?AddInternalRef@OSTL_TI@@QAEXXZ 10037bc0 f stltinfo.obj
 0001:00036c20       ??0NAMMGR@@QAE@XZ          10037c20 f nammgr.obj
 0001:00036c60       ??1NAMMGR@@QAE@XZ          10037c60 f nammgr.obj
 0001:00036c8d       ?Init@NAMMGR@@QAEJPAVSHEAP_MGR@@PAVDYN_TYPEROOT@@@Z 10037c8d f nammgr.obj
 0001:00036dc3       ?SetGtlibole@NAMMGR@@QAEJPAVOGTOLE@@@Z 10037dc3 f nammgr.obj
 0001:00036de6       ?GetBucketOfHash@NAMMGR@@ABEII@Z 10037de6 f nammgr.obj
 0001:00036e17       ?SetBucketOfHash@NAMMGR@@AAEXII@Z 10037e17 f nammgr.obj
 0001:00036e59       ?Read@NAMMGR@@QAEJPAVSTREAM@@@Z 10037e59 f nammgr.obj
 0001:00036ed6       ?Write@NAMMGR@@QAEJPAVSTREAM@@@Z 10037ed6 f nammgr.obj
 0001:00036f7a       ?ForEachDescendant@NAMMGR@@AAEXIP81@AEXI@ZH@Z 10037f7a f nammgr.obj
 0001:00037092       ?AddEntry@NAMMGR@@AAEXI@Z  10038092 f nammgr.obj
 0001:000371e1       ?FindHash@NAMMGR@@ABEIII@Z 100381e1 f nammgr.obj
 0001:00037287       ?FindTextNam@NAMMGR@@AAEIPBDIHPAHH@Z 10038287 f nammgr.obj
 0001:0003747b       ?HlnamOfStrIfExist@NAMMGR@@QAEIPBD@Z 1003847b f nammgr.obj
 0001:000374e7       ?HlnamOfStrW@NAMMGR@@QAEJPBGPAIHPAHHH@Z 100384e7 f nammgr.obj
 0001:0003754d       ?HlnamOfStr@NAMMGR@@QAEJPBDPAIHPAHHH@Z 1003854d f nammgr.obj
 0001:00037748       ?StrOfHlnam@NAMMGR@@QBEJIPADI@Z 10038748 f nammgr.obj
 0001:000377c3       ?GetHgnamOfStrLhash@NAMMGR@@QAEJPADKPAK@Z 100387c3 f nammgr.obj
 0001:0003789e       ?IsName@NAMMGR@@QAEJPADKPAH@Z 1003889e f nammgr.obj
 0001:000379bb       ?BstrOfHlnam@NAMMGR@@QBEJIPAPAD@Z 100389bb f nammgr.obj
 0001:00037a1f       ?BstrWOfHlnam@NAMMGR@@QBEJIPAPAG@Z 10038a1f f nammgr.obj
 0001:00037b19       ?HgnamOfHlnam@NAMMGR@@QAEJIPAK@Z 10038b19 f nammgr.obj
 0001:00037b76       ?LpstrOfHgnam@NAMMGR@@QBEPADK@Z 10038b76 f nammgr.obj
 0001:00037ba6       ?HgnamOfStr@NAMMGR@@QAEJPADPAK@Z 10038ba6 f nammgr.obj
 0001:00037c0a       ?StriEq@NAMMGR@@QAEHPBD0@Z 10038c0a f nammgr.obj
 0001:00037d59       ?GenerateSortKey@NAMMGR@@QAEJXZ 10038d59 f nammgr.obj
 0001:00037e02       ?HashOfHlnam@NAMMGR@@QAEKI@Z 10038e02 f nammgr.obj
 0001:00037e3f       ?DebCheckState@NAMMGR@@QBEXI@Z 10038e3f f nammgr.obj
 0001:00037ee7       ?DebCheckHlnam@NAMMGR@@QBEXI@Z 10038ee7 f nammgr.obj
 0001:00037f4c       ?DebCheckHlnamRecurse@NAMMGR@@QBEXI@Z 10038f4c f nammgr.obj
 0001:00037fc0       ??1BLK_MGR@@QAE@XZ         10038fc0 f nammgr.obj
 0001:00038010       ?IsTextName@NAMMGR@@ABEHPAUNAM_INFO@@@Z 10039010 f nammgr.obj
 0001:00038030       ?Pgtlibole@NAMMGR@@QAEPAVOGTOLE@@XZ 10039030 f nammgr.obj
 0001:00038050       ?RqhlnamBucketTbl@NAMMGR@@ABEPAGXZ 10039050 f nammgr.obj
 0001:00038080       ?QnamOfHlnam@NAMMGR@@ABEPAUNAM_INFO@@I@Z 10039080 f nammgr.obj
 0001:000380e0       ?QnamstrOfHlnam@NAMMGR@@ABEPAUNAM_STR@@I@Z 100390e0 f nammgr.obj
 0001:00038110       ?HlnamOfHgnam@NAMMGR@@QBEIK@Z 10039110 f nammgr.obj
 0001:00038140       ?IsProjectDBCS@OGTOLE@@QAEHXZ 10039140 f nammgr.obj
 0001:00038160       ?IsModified@OGTOLE@@QAEHXZ 10039160 f nammgr.obj
 0001:00038180       ?GetSampleHashVal@OGTOLE@@QAEKXZ 10039180 f nammgr.obj
 0001:000381e0       ?GetRegisteredPath@@YAJPAUHKEY__@@PAG1PAJH@Z 100391e0 f gtlibole.obj
 0001:00038249       _CreateTypeLib@12          10039249 f gtlibole.obj
 0001:00038343       ?ErrOpenFile@@YAJPAGPAHPAPAG@Z 10039343 f gtlibole.obj
 0001:00038463       ?ErrOpen@@YAJPAGPAH@Z      10039463 f gtlibole.obj
 0001:00038521       ?HrSeek@@YAJHJH@Z          10039521 f gtlibole.obj
 0001:00038558       ?HrRead@@YAJHPAXI@Z        10039558 f gtlibole.obj
 0001:0003858f       ?HrCurPos@@YAJHPAK@Z       1003958f f gtlibole.obj
 0001:000385ca       ?GetRsrcDirEntry@@YAJHKPAGKPAU_IMAGE_RESOURCE_DIRECTORY_ENTRY@@@Z 100395ca f gtlibole.obj
 0001:00038a4b       ?GetOffsetOfResource@@YAJHPADHPAU_IMAGE_DOS_HEADER@@PAJ2@Z 10039a4b f gtlibole.obj
 0001:000391ce       ?GetOffsetOfTypeLibResource@@YAJHHPAU_IMAGE_DOS_HEADER@@PAJ1@Z 1003a1ce f gtlibole.obj
 0001:000391ff       ?InitLoadInfo@@YAXPAULoadInfo@@@Z 1003a1ff f gtlibole.obj
 0001:00039254       ?UninitLoadInfo@@YAXPAULoadInfo@@@Z 1003a254 f gtlibole.obj
 0001:0003929f       ?VerifyIsExeOrTlb@@YAJPAULoadInfo@@@Z 1003a29f f gtlibole.obj
 0001:000393a0       ?SplitResID@@YAJPAGPAPAG@Z 1003a3a0 f gtlibole.obj
 0001:0003947b       ?FindTypeLibUnqual@@YAJPAGPAULoadInfo@@@Z 1003a47b f gtlibole.obj
 0001:00039686       ?FindTypeLib@@YAJPAGPAULoadInfo@@@Z 1003a686 f gtlibole.obj
 0001:00039900       _LoadTypeLib@8             1003a900 f gtlibole.obj
 0001:00039d75       ?RegCreateSubKey@@YAJPAUHKEY__@@PAG1H@Z 1003ad75 f gtlibole.obj
 0001:00039dd9       _RegisterTypeLib@12        1003add9 f gtlibole.obj
 0001:0003a72c       ??2OGTOLE@@KAPAXI@Z        1003b72c f gtlibole.obj
 0001:0003a771       ?Init@OGTOLE@@UAEJXZ       1003b771 f gtlibole.obj
 0001:0003a958       ?Create@OGTOLE@@SAJPAUIStorage@@PAPAV1@@Z 1003b958 f gtlibole.obj
 0001:0003aa20       ?QueryInterface@OGTOLE@@UAGJABU_GUID@@PAPAX@Z 1003ba20 f gtlibole.obj
 0001:0003ab04       ?AddRef@OGTOLE@@UAGKXZ     1003bb04 f gtlibole.obj
 0001:0003ab2f       ??0OGTOLE@@IAE@XZ          1003bb2f f gtlibole.obj
 0001:0003ad2b       ?Release@OGTOLE@@UAGKXZ    1003bd2b f gtlibole.obj
 0001:0003adfe       ??1OGTOLE@@MAE@XZ          1003bdfe f gtlibole.obj
 0001:0003b07a       ?Deleting@OGTOLE@@IAEXG@Z  1003c07a f gtlibole.obj
 0001:0003b0ab       ?GetTypeInfoCount@OGTOLE@@UAGIXZ 1003c0ab f gtlibole.obj
 0001:0003b0cb       ?GetDocumentation@OGTOLE@@UAGJHPAPAG0PAK0@Z 1003c0cb f gtlibole.obj
 0001:0003b5d3       ?IsName@OGTOLE@@UAGJPAGKPAH@Z 1003c5d3 f gtlibole.obj
 0001:0003b6f7       ?FindName@OGTOLE@@UAGJPAGKPAPAUITypeInfo@@PAJ0@Z 1003c6f7 f gtlibole.obj
 0001:0003b84e       ?GetLibAttr@OGTOLE@@UAGJPAPAUtagTLIBATTR@@@Z 1003c84e f gtlibole.obj
 0001:0003b93d       ?ReleaseTLibAttr@OGTOLE@@UAGXPAUtagTLIBATTR@@@Z 1003c93d f gtlibole.obj
 0001:0003b965       ?OCreateTI@OGTOLE@@UAGJPAGW4tagTYPEKIND@@PAPAUICreateTypeInfo@@@Z 1003c965 f gtlibole.obj
 0001:0003ba0d       ?SetDocString@OGTOLE@@UAGJPAG@Z 1003ca0d f gtlibole.obj
 0001:0003ba37       ?SetHelpFileName@OGTOLE@@UAGJPAG@Z 1003ca37 f gtlibole.obj
 0001:0003ba61       ?SetHelpContext@OGTOLE@@UAGJK@Z 1003ca61 f gtlibole.obj
 0001:0003ba81       ?SetLibFlags@OGTOLE@@UAGJI@Z 1003ca81 f gtlibole.obj
 0001:0003bac6       ?SetLcid@OGTOLE@@UAGJK@Z   1003cac6 f gtlibole.obj
 0001:0003bb7d       ?GetTypeComp@OGTOLE@@UAGJPAPAUITypeComp@@@Z 1003cb7d f gtlibole.obj
 0001:0003bc06       ?SetDirectory@OGTOLE@@IAEJPAG@Z 1003cc06 f gtlibole.obj
 0001:0003bc74       ?SetLibId@OGTOLE@@QAEJPAG@Z 1003cc74 f gtlibole.obj
 0001:0003bcc9       ?GetTypeInfoOfGuid@OGTOLE@@UAGJABU_GUID@@PAPAUITypeInfo@@@Z 1003ccc9 f gtlibole.obj
 0001:0003bd5d       ?GetTypeInfo@OGTOLE@@UAGJIPAPAUITypeInfo@@@Z 1003cd5d f gtlibole.obj
 0001:0003bf66       ?GetGdtiOfItyp@OGTOLE@@QAEJIPAPAVGEN_DTINFO@@@Z 1003cf66 f gtlibole.obj
 0001:0003bfb1       ?GetTypeInfoType@OGTOLE@@UAGJIPAW4tagTYPEKIND@@@Z 1003cfb1 f gtlibole.obj
 0001:0003c005       ?GetCompressedTypeId@OGTOLE@@QAEJPAUITypeInfo@@PAPAG@Z 1003d005 f gtlibole.obj
 0001:0003c2f3       ?FindMembers@OGTOLE@@QAEJPADKPAPAUITypeInfo@@PAJPAG@Z 1003d2f3 f gtlibole.obj
 0001:0003c9b1       ?WriteTypeId@OGTOLE@@QAEJPAVSTREAM@@PAUITypeInfo@@@Z 1003d9b1 f gtlibole.obj
 0001:0003ca6a       ?TypeInfoFromCompressedTypeId@OGTOLE@@QAEJPAGPAPAUITypeInfo@@@Z 1003da6a f gtlibole.obj
 0001:0003cc0f       ?AddTypeEntry@OGTOLE@@IAEJPADPAG1@Z 1003dc0f f gtlibole.obj
 0001:0003d011       ?UnAddTypeEntry@OGTOLE@@IAEXI@Z 1003e011 f gtlibole.obj
 0001:0003d0ad       ?CreateInstance@OGTOLE@@IAEJPAGPAPAX@Z 1003e0ad f gtlibole.obj
 0001:0003d119       ?IhteHash@OGTOLE@@IAEIPAG@Z 1003e119 f gtlibole.obj
 0001:0003d142       ?GetTypeBind@OGTOLE@@QAEJXZ 1003e142 f gtlibole.obj
 0001:0003d297       ?GetBinddescOfSzName@OGTOLE@@QAEJPADPAUGENPROJ_BIND_DESC@@@Z 1003e297 f gtlibole.obj
 0001:0003d3ad       ?GetIndexOfName@OGTOLE@@QAEJPADPAG@Z 1003e3ad f gtlibole.obj
 0001:0003d421       ?GetStorage@OGTOLE@@QAEJKPAPAUIStorage@@@Z 1003e421 f gtlibole.obj
 0001:0003d68b       ?Read@OGTOLE@@IAEJXZ       1003e68b f gtlibole.obj
 0001:0003d71f       ?ReadNameCacheArray@OGTOLE@@IAEJXZ 1003e71f f gtlibole.obj
 0001:0003d897       ?AddNameToCache@OGTOLE@@QAEJIK@Z 1003e897 f gtlibole.obj
 0001:0003d915       ?LoadNameCache@OGTOLE@@QAEJXZ 1003e915 f gtlibole.obj
 0001:0003db2a       ?ReadString@OGTOLE@@IAEJPAVSTREAM@@PAI@Z 1003eb2a f gtlibole.obj
 0001:0003dcc8       ?WriteString@OGTOLE@@IAEJPAVSTREAM@@I@Z 1003ecc8 f gtlibole.obj
 0001:0003de39       ?Read@OGTOLE@@IAEJPAVSTREAM@@@Z 1003ee39 f gtlibole.obj
 0001:0003e5e3       ?InvalidateNameCache@OGTOLE@@QAEXI@Z 1003f5e3 f gtlibole.obj
 0001:0003e654       ?QtrOfHChunk@OGTOLE@@IAEPAXI@Z 1003f654 f gtlibole.obj
 0001:0003e68f       ?QszLibIdOrFile@OGTOLE@@IAEPAGXZ 1003f68f f gtlibole.obj
 0001:0003e6d4       ?QszOfHsz@OGTOLE@@IAEPAGI@Z 1003f6d4 f gtlibole.obj
 0001:0003e712       ?GetQszTypeInfoTypeId@OGTOLE@@IAEPAGG@Z 1003f712 f gtlibole.obj
 0001:0003e793       ?ReleaseResources@OGTOLE@@QAEXXZ 1003f793 f gtlibole.obj
 0001:0003e7b7       ?Add@OGTOLE@@QAEJPAVGEN_DTINFO@@PAG@Z 1003f7b7 f gtlibole.obj
 0001:0003e90e       ?UpdateTypeId@OGTOLE@@QAEJI@Z 1003f90e f gtlibole.obj
 0001:0003ea0a       ?CreateHsz@OGTOLE@@IAEJPAGPAI@Z 1003fa0a f gtlibole.obj
 0001:0003ea84       ?MakeLocalTypeId@OGTOLE@@IAEJPAI@Z 1003fa84 f gtlibole.obj
 0001:0003eaf4       ?QHteRef@OGTOLE@@IAEPAGG@Z 1003faf4 f gtlibole.obj
 0001:0003ebad       ?Write@OGTOLE@@IAEJXZ      1003fbad f gtlibole.obj
 0001:0003ec2f       ?Write@OGTOLE@@IAEJPAVSTREAM@@@Z 1003fc2f f gtlibole.obj
 0001:0003f444       ?SaveOrCopyChanges@OGTOLE@@QAEJPAUIStorage@@H@Z 10040444 f gtlibole.obj
 0001:0003f5b6       ?SaveAllChanges@OGTOLE@@UAGJXZ 100405b6 f gtlibole.obj
 0001:0003f870       ?SaveAllChanges@OGTOLE@@UAGJPAUIStorage@@@Z 10040870 f gtlibole.obj
 0001:0003f890       ?ResetHsz@OGTOLE@@IAEJPAGPAI@Z 10040890 f gtlibole.obj
 0001:0003f919       ?SetTypeDocString@OGTOLE@@QAEJIPAG@Z 10040919 f gtlibole.obj
 0001:0003f9ae       ?SetTypeHelpContext@OGTOLE@@QAEJIK@Z 100409ae f gtlibole.obj
 0001:0003f9e0       ?SetVersion@OGTOLE@@UAGJGG@Z 100409e0 f gtlibole.obj
 0001:0003fa10       ?SetName@OGTOLE@@UAGJPAG@Z 10040a10 f gtlibole.obj
 0001:0003fadb       ?SetGuid@OGTOLE@@UAGJABU_GUID@@@Z 10040adb f gtlibole.obj
 0001:0003fb11       ?SetModified@OGTOLE@@QAEJH@Z 10040b11 f gtlibole.obj
 0001:0003fb66       ?GetNamMgr@OGTOLE@@QAEJPAPAVNAMMGR@@@Z 10040b66 f gtlibole.obj
 0001:0003fcda       ?GetDstrMgr@OGTOLE@@QAEJPAPAVDOCSTR_MGR@@@Z 10040cda f gtlibole.obj
 0001:0003fdf8       ?OpenTypeStream@OGTOLE@@QAEJIW4STREAM_OPEN_MODE@@PAPAVSTREAM@@@Z 10040df8 f gtlibole.obj
 0001:0004002b       ?DebCheckState@OGTOLE@@QAEXI@Z 1004102b f gtlibole.obj
 0001:000401e0       ??_EOGTOLE@@MAEPAXI@Z      100411e0 f gtlibole.obj
 0001:000401e0       ??_GOGTOLE@@MAEPAXI@Z      100411e0 f gtlibole.obj
 0001:00040220       ??0ICreateTypeLib@@QAE@XZ  10041220 f gtlibole.obj
 0001:00040250       ?Lock@BLK_MGR@@QAEXXZ      10041250 f gtlibole.obj
 0001:000402a0       ?Lock@BLK_DESC@@QAEXXZ     100412a0 f gtlibole.obj
 0001:000402f0       ?Unlock@BLK_MGR@@QAEXXZ    100412f0 f gtlibole.obj
 0001:00040340       ?Unlock@BLK_DESC@@QAEXXZ   10041340 f gtlibole.obj
 0001:000403b0       ??0GENPROJ_BIND_DESC@@QAE@XZ 100413b0 f gtlibole.obj
 0001:00040400       ?IsTypeInfo@GENPROJ_BIND_DESC@@QAEHXZ 10041400 f gtlibole.obj
 0001:00040430       ?Ordinal@GENPROJ_BIND_DESC@@QAEIXZ 10041430 f gtlibole.obj
 0001:00040460       ?QgpbinddescOfIndex@GENPROJ_BINDNAME_TABLE@@QBEPAUGENPROJ_BIND_DESC@@I@Z 10041460 f gtlibole.obj
 0001:000404b0       ?Rqgpbinddesc@GENPROJ_BINDNAME_TABLE@@IBEPAUGENPROJ_BIND_DESC@@XZ 100414b0 f gtlibole.obj
 0001:00040500       ?Pgbindnametbl@GENPROJ_TYPEBIND@@QBEPBVGENPROJ_BINDNAME_TABLE@@XZ 10041500 f gtlibole.obj
 0001:00040520       ??9@YAHABU_GUID@@0@Z       10041520 f gtlibole.obj
 0001:00040560       ?IsMultiple@NAMMGR@@QBEHI@Z 10041560 f gtlibole.obj
 0001:000405d0       ?AddNameToCache@NAME_CACHE@@QAEXK@Z 100415d0 f gtlibole.obj
 0001:00040600       ?HashOfHgnam@@YAIK@Z       10041600 f gtlibole.obj
 0001:00040620       ?SetBit@NAME_CACHE@@AAEXI@Z 10041620 f gtlibole.obj
 0001:00040690       ?Invalidate@NAME_CACHE@@QAEXXZ 10041690 f gtlibole.obj
 0001:000406c0       ?IsValidItyp@NAMMGR@@QBEHI@Z 100416c0 f gtlibole.obj
 0001:00040740       ?ItypOfHlnam@NAMMGR@@QBEII@Z 10041740 f gtlibole.obj
 0001:000407b0       ?Poletmgr@@YAPAVOLE_TYPEMGR@@XZ 100417b0 f gtlibole.obj
 0001:000407d0       ??0TYPE_ENTRY@@QAE@XZ      100417d0 f gtlibole.obj
 0001:00040810       ??0SER_TYPE_ENTRY@@QAE@XZ  10041810 f gtlibole.obj
 0001:000408b0       ??3OGTOLE@@CAXPAX@Z        100418b0 f gtlibole.obj
 0001:00040910       ?Psheapmgr@OGTOLE@@QAEPAVSHEAP_MGR@@XZ 10041910 f gtlibole.obj
 0001:00040950       ?RelTypeEntExtResources@OGTOLE@@IAEXG@Z 10041950 f gtlibole.obj
 0001:00040970       ?Rgnamcache@OGTOLE@@IBEPAVNAME_CACHE@@XZ 10041970 f gtlibole.obj
 0001:000409a0       ?IsValidNameCache@OGTOLE@@QBEHI@Z 100419a0 f gtlibole.obj
 0001:00040a00       ?IsValid@NAME_CACHE@@QBEHXZ 10041a00 f gtlibole.obj
 0001:00040a30       ?IsExistNameCache@OGTOLE@@QBEHXZ 10041a30 f gtlibole.obj
 0001:00040a60       ?IsNameInCache@OGTOLE@@QBEHIK@Z 10041a60 f gtlibole.obj
 0001:00040ac0       ?IsNameInCache@NAME_CACHE@@QBEHK@Z 10041ac0 f gtlibole.obj
 0001:00040af0       ?GetBit@NAME_CACHE@@ABEHI@Z 10041af0 f gtlibole.obj
 0001:00040b50       ?DestructTypeEntry@OGTOLE@@IAEXG@Z 10041b50 f gtlibole.obj
 0001:00040bb0       ?DebResetNameCacheStats@OGTOLE@@QAEXXZ 10041bb0 f gtlibole.obj
 0001:00040c00       ?DeleteHsz@OGTOLE@@IAEXI@Z 10041c00 f gtlibole.obj
 0001:00040c50       ?DebSetNameCacheModTrys@OGTOLE@@QAEXXZ 10041c50 f gtlibole.obj
 0001:00040c70       ?DebSetNameCacheModHits@OGTOLE@@QAEXXZ 10041c70 f gtlibole.obj
 0001:00040c90       ?SetTypeKind@OGTOLE@@QAEXIW4tagTYPEKIND@@@Z 10041c90 f gtlibole.obj
 0001:00040d00       ?Create@GEN_DTINFO@@SAJPAPAV1@@Z 10041d00 f gtlibole.obj
 0001:00040d30       ?PdfntbindSemiDeclared@GEN_DTINFO@@QAEJPAPAVDEFN_TYPEBIND@@@Z 10041d30 f gtlibole.obj
 0001:00040d60       ?IsModified@OSTL_TI@@QAEHXZ 10041d60 f gtlibole.obj
 0001:00040d80       ?IsValid@NAMMGR@@QBEHXZ    10041d80 f gtlibole.obj
 0001:00040db0       ?QueryInterface@OGTOLE@@W3AGJABU_GUID@@PAPAX@Z 10041db0 f gtlibole.obj
 0001:00040dc0       ?AddRef@OGTOLE@@W3AGKXZ    10041dc0 f gtlibole.obj
 0001:00040dd0       ?Release@OGTOLE@@W3AGKXZ   10041dd0 f gtlibole.obj
 0001:00040de0       ?IsNoMatch@EXBIND@@QBEHXZ  10041de0 f gtlibole.obj
 0001:00040e10       ?Open@DOCFILE_STREAM@@SAJPAPAUIStorage@@0PAVOGTOLE@@IHPAGW4STREAM_OPEN_MODE@@PAPAVSTREAM@@@Z 10041e10 f dfstream.obj
 0001:00040e94       ?Open@DOCFILE_STREAM@@SAJPAPAUIStorage@@0HPAGW4STREAM_OPEN_MODE@@PAPAVSTREAM@@@Z 10041e94 f dfstream.obj
 0001:00041072       ??0DOCFILE_STREAM@@IAE@XZ  10042072 f dfstream.obj
 0001:000410f8       ??1DOCFILE_STREAM@@IAE@XZ  100420f8 f dfstream.obj
 0001:0004111f       ?Read@DOCFILE_STREAM@@UAEJPAXK@Z 1004211f f dfstream.obj
 0001:00041212       ?Write@DOCFILE_STREAM@@UAEJPBXK@Z 10042212 f dfstream.obj
 0001:0004132c       ?ReadTextLine@DOCFILE_STREAM@@UAEJPADI@Z 1004232c f dfstream.obj
 0001:0004135b       ?FillBuffer@DOCFILE_STREAM@@IAEJXZ 1004235b f dfstream.obj
 0001:0004143e       ?FlushBuffer@DOCFILE_STREAM@@IAEJXZ 1004243e f dfstream.obj
 0001:0004151b       ?GetPos@DOCFILE_STREAM@@UAEJPAJ@Z 1004251b f dfstream.obj
 0001:000415d9       ?SetPos@DOCFILE_STREAM@@UAEJJ@Z 100425d9 f dfstream.obj
 0001:000416a5       ?AddRef@DOCFILE_STREAM@@QAEXXZ 100426a5 f dfstream.obj
 0001:000416c1       ?Release@DOCFILE_STREAM@@UAEJXZ 100426c1 f dfstream.obj
 0001:00041800       ??1STREAM@@IAE@XZ          10042800 f dfstream.obj
 0001:00041820       ??0STREAM@@IAE@XZ          10042820 f dfstream.obj
 0001:00041850       ??0OLE_TYPEMGR@@AAE@XZ     10042850 f oletmgr.obj
 0001:000418a2       ??1OLE_TYPEMGR@@AAE@XZ     100428a2 f oletmgr.obj
 0001:000418c6       ?Create@OLE_TYPEMGR@@SAJPAPAV1@@Z 100428c6 f oletmgr.obj
 0001:000419af       ?Release@OLE_TYPEMGR@@QAEXXZ 100429af f oletmgr.obj
 0001:00041be6       ?TypeLibLoaded@OLE_TYPEMGR@@QAEJPAGPAUITypeLib@@@Z 10042be6 f oletmgr.obj
 0001:00041c93       ?TypeLibUnloaded@OLE_TYPEMGR@@QAEXPAUITypeLib@@@Z 10042c93 f oletmgr.obj
 0001:00041da1       ?LookupTypeLib@OLE_TYPEMGR@@QAEPAUITypeLib@@PAG@Z 10042da1 f oletmgr.obj
 0001:00041def       ?LookupLibEntry@OLE_TYPEMGR@@AAEPAIPAG@Z 10042def f oletmgr.obj
 0001:00041ea6       ?GetHlibentryOfFileName@OLE_TYPEMGR@@AAEJPAGPAI@Z 10042ea6 f oletmgr.obj
 0001:00042000       ?SzDebName@OGTOLE@@QAEPADXZ 10043000 f oletmgr.obj
 0001:00042020       ?CRefs@OGTOLE@@QAEKXZ      10043020 f oletmgr.obj
 0001:00042040       ?SzDebName@OSTL_TI@@QAEPADXZ 10043040 f oletmgr.obj
 0001:00042060       ?CRefs@OSTL_TI@@QAEKXZ     10043060 f oletmgr.obj
 0001:00042080       ?QlibentryOfHlibentry@OLE_TYPEMGR@@AAEPAULIBENTRY@@I@Z 10043080 f oletmgr.obj
 0001:000420b0       ??0IMPMGR@@QAE@XZ          100430b0 f impmgr.obj
 0001:00042108       ?Init@IMPMGR@@QAEJPAVSHEAP_MGR@@PAVBLK_DESC@@1PAVDYN_TYPEROOT@@@Z 10043108 f impmgr.obj
 0001:00042217       ?ReleasePtinfo@IMPMGR@@AAEXI@Z 10043217 f impmgr.obj
 0001:000422d6       ?SetPtinfo@IMPMGR@@AAEJIPAUITypeInfo@@H@Z 100432d6 f impmgr.obj
 0001:00042406       ?HimptypeAlloc@IMPMGR@@AAEJPAG@Z 10043406 f impmgr.obj
 0001:000426a9       ?NewEntry@IMPMGR@@AAEJPAPAVUB_IMPTYPE@@PAG@Z 100436a9 f impmgr.obj
 0001:00042772       ?GetHimptype@IMPMGR@@QAEJPAUITypeInfo@@W4DEPEND_KIND@@PAG@Z 10043772 f impmgr.obj
 0001:00042901       ?GetHimptypeIfExists@IMPMGR@@QAEIPAUITypeInfo@@@Z 10043901 f impmgr.obj
 0001:000429a0       ?GetName@IMPMGR@@QAEXIPAIQAPAG@Z 100439a0 f impmgr.obj
 0001:00042a4e       ?GetTypeInfo@IMPMGR@@QAEJIW4DEPEND_KIND@@PAPAUITypeInfo@@@Z 10043a4e f impmgr.obj
 0001:00042acf       ?Unref@IMPMGR@@QAEXI@Z     10043acf f impmgr.obj
 0001:00042bb3       ?HimptypeFirst@IMPMGR@@QBEIXZ 10043bb3 f impmgr.obj
 0001:00042be8       ?HimptypeNext@IMPMGR@@QBEII@Z 10043be8 f impmgr.obj
 0001:00042c29       ?RegisterDeclRefDep@IMPMGR@@QAEJPAUITypeInfo@@@Z 10043c29 f impmgr.obj
 0001:00042cfa       ?CheckRemainingDep@IMPMGR@@QAEJPAW4DEPEND_KIND@@@Z 10043cfa f impmgr.obj
 0001:00042fa4       ?Read@IMPMGR@@QAEJPAVSTREAM@@@Z 10043fa4 f impmgr.obj
 0001:000431ae       ?Write@IMPMGR@@QAEJPAVSTREAM@@@Z 100441ae f impmgr.obj
 0001:000432ea       ?WriteLayoutEntries@IMPMGR@@QAEJPAVSTREAM@@H@Z 100442ea f impmgr.obj
 0001:000433df       ??1IMPMGR@@QAE@XZ          100443df f impmgr.obj
 0001:0004347b       ?RemoveInternalRefs@IMPMGR@@QAEXXZ 1004447b f impmgr.obj
 0001:0004353a       ?DebCheckState@IMPMGR@@QBEXI@Z 1004453a f impmgr.obj
 0001:000437f3       ?DebChkHimptype@IMPMGR@@QBEXI@Z 100447f3 f impmgr.obj
 0001:0004384c       ?DebChkHimpaddr@IMPMGR@@QBEXI@Z 1004484c f impmgr.obj
 0001:00043870       ?Rqimptype@IMPMGR@@ABEPAVIMPTYPE@@XZ 10044870 f impmgr.obj
 0001:000438a0       ?Rqubimptype@IMPMGR@@ABEPAVUB_IMPTYPE@@XZ 100448a0 f impmgr.obj
 0001:000438d0       ?Himptype@IMPMGR@@ABEIPAVUB_IMPTYPE@@@Z 100448d0 f impmgr.obj
 0001:00043900       ??_H@YGXPAXIHP6EX0@Z@Z     10044900 f impmgr.obj
 0001:00043930       ??0UB_IMPTYPE@@QAE@XZ      10044930 f impmgr.obj
 0001:000439a0       ?isFree@UB_IMPTYPE@@QBEHXZ 100449a0 f impmgr.obj
 0001:000439c0       ??0IMPTYPE@@QAE@XZ         100449c0 f impmgr.obj
 0001:000439f0       ?Qubimptype@IMPMGR@@ABEPAVUB_IMPTYPE@@I@Z 100449f0 f impmgr.obj
 0001:00043a30       ?HimptypeOfIndex@IMPMGR@@QAEII@Z 10044a30 f impmgr.obj
 0001:00043a60       ?Qimptype@IMPMGR@@ABEPAVIMPTYPE@@I@Z 10044a60 f impmgr.obj
 0001:00043a90       ?GetErrorInfo@@YAJPAUtagEXCEPINFO@@@Z 10044a90 f errmap.obj
 0001:00043b26       ?TiperrOfOFErr@@YAJI@Z     10044b26 f errmap.obj
 0001:00043c90       ?IsUnqualifiable@@YAHPAVGEN_DTINFO@@@Z 10044c90 f clutil.obj
 0001:00043d3c       _DebGetNameCacheStats@24   10044d3c f clutil.obj
 0001:00043d80       ?GetTimeStamp@@YAXPAG@Z    10044d80 f clutil.obj
 0001:00043e6e       ?SzLibIdLocalTypeIdOfTypeId@@YAJPAGPAPAG1@Z 10044e6e f clutil.obj
 0001:00043f24       ?IsSimpleType@@YAHW4TYPEDESCKIND@@@Z 10044f24 f clutil.obj
 0001:00043fbe       ?HashSz@@YAIPAG@Z          10044fbe f clutil.obj
 0001:00044069       ?HashSzTerm@@YAIPAGD@Z     10045069 f clutil.obj
 0001:00044138       ?SwapElementIndex@@YAXPAKPAIII@Z 10045138 f clutil.obj
 0001:000441be       ?QuickSortIndex@@YAXPAKPAII@Z 100451be f clutil.obj
 0001:0004438a       ?Count@@YAIPAVTYPE_DATA@@I@Z 1004538a f clutil.obj
 0001:000443fe       ?GetBStrOfHsz@@YAJPAVBLK_MGR@@IPAPAG@Z 100453fe f clutil.obj
 0001:00044461       ?CompareHimptypes@@YAJQAVTYPE_DATA@@I0IPAH@Z 10045461 f clutil.obj
 0001:00044568       _VerifyLcid                10045568 f clutil.obj
 0001:000445cd       ?SplitGuidLibId@@YAJPAGPAPAG100PAK11@Z 100455cd f clutil.obj
 0001:0004474a       ?GetLibIdKind@@YA?AW4LIBIDKIND@@PAG@Z 1004574a f clutil.obj
 0001:000447d9       ?GetPathOfLibId@@YAJPAGPAPAG@Z 100457d9 f clutil.obj
 0001:00044904       ?GetRegLibOfLibId@@YAJPAGPAPAUITypeLib@@@Z 10045904 f clutil.obj
 0001:000449cc       ?GetRegInfoForTypeLibOfSzGuid@@YAJPAGGGK0H@Z 100459cc f clutil.obj
 0001:00044b11       _LoadRegTypeLibOfSzGuid@20 10045b11 f clutil.obj
 0001:00044c9b       _LoadRegTypeLib@20         10045c9b f clutil.obj
 0001:00044e16       _QueryPathOfRegTypeLib@20  10045e16 f clutil.obj
 0001:00044ecd       ?DebShowState@NAME_CACHE@@QBEXI@Z 10045ecd f clutil.obj
 0001:00044f95       ?InitTypeDesc@@YAXPAUtagTYPEDESC@@@Z 10045f95 f clutil.obj
 0001:00044fcf       ?InitIdlDesc@@YAXPAUtagIDLDESC@@@Z 10045fcf f clutil.obj
 0001:00045009       ?InitElemDesc@@YAXPAUtagELEMDESC@@@Z 10046009 f clutil.obj
 0001:00045055       ?InitVarDesc@@YAXPAUtagVARDESC@@@Z 10046055 f clutil.obj
 0001:0004509f       ?InitFuncDesc@@YAXPAUtagFUNCDESC@@@Z 1004609f f clutil.obj
 0001:000450fb       ?ClearTypeDesc@@YAXPAUtagTYPEDESC@@@Z 100460fb f clutil.obj
 0001:0004518e       ?ClearIdlDesc@@YAXPAUtagIDLDESC@@@Z 1004618e f clutil.obj
 0001:000451bf       ?ClearArrayDesc@@YAXPAUtagARRAYDESC@@@Z 100461bf f clutil.obj
 0001:000451fc       ?ClearElemDesc@@YAXPAUtagELEMDESC@@@Z 100461fc f clutil.obj
 0001:00045248       ?FreeVarDesc@@YAXPAUtagVARDESC@@@Z 10046248 f clutil.obj
 0001:000452a5       ?FreeFuncDesc@@YAXPAUtagFUNCDESC@@@Z 100462a5 f clutil.obj
 0001:00045355       ?FreeTypeDesc@@YAXPAUtagTYPEDESC@@@Z 10046355 f clutil.obj
 0001:00045387       ?FreeArrayDesc@@YAXPAUtagARRAYDESC@@@Z 10046387 f clutil.obj
 0001:000453b9       ?CopyArrayDesc@@YAJPAPAUtagARRAYDESC@@PAU1@@Z 100463b9 f clutil.obj
 0001:0004544c       ?CopyTypeDesc@@YAJPAUtagTYPEDESC@@0@Z 1004644c f clutil.obj
 0001:000455a0       ?GetLibIdOfRegLib@@YAJPAGGGK00PAPAG@Z 100465a0 f clutil.obj
 0001:00045784       ?GetLibIdOfTypeLib@@YAJPAUITypeLib@@PAGPAPAG@Z 10046784 f clutil.obj
 0001:0004587c       ?GetTypeInfoOfTypeId@@YAJPAGPAPAUITypeInfo@@@Z 1004687c f clutil.obj
 0001:00045973       ?OpenTypeLibKey@@YAJPAGGGPAUTLIBKEY@@@Z 10046973 f clutil.obj
 0001:00045c01       ?CloseTypeLibKey@@YAXPAUTLIBKEY@@@Z 10046c01 f clutil.obj
 0001:00045c37       ?MakeAbsolutePath@@YAJPAG0PAPAG@Z 10046c37 f clutil.obj
 0001:00045f2e       ?FExistsRegisteredTypelib@@YAHPAUHKEY__@@PADPAPAG@Z 10046f2e f clutil.obj
 0001:00045fe0       ?OGetBestLcidMatch@@YAJPAUHKEY__@@KPAKPAPAG@Z 10046fe0 f clutil.obj
 0001:000460c6       ?ConvertPathToUNC@@YAJPAGPAPAG@Z 100470c6 f clutil.obj
 0001:00046371       ?GetPathEnd@@YAPAGPAG@Z    10047371 f clutil.obj
 0001:000463cc       ?IsolateFilename@@YAPAGPAG@Z 100473cc f clutil.obj
 0001:0004640b       _OaBuildVersion@0          1004740b f clutil.obj
 0001:00046420       ?DebGetNameCacheModTrys@OGTOLE@@QAEIXZ 10047420 f clutil.obj
 0001:00046440       ?DebGetNameCacheModHits@OGTOLE@@QAEIXZ 10047440 f clutil.obj
 0001:00046460       ?DebGetNameCacheGlobHits@OGTOLE@@QAEIXZ 10047460 f clutil.obj
 0001:000464af       ?InitProcessData@@YAJXZ    100474af f oautil.obj
 0001:000464f0       ?ReleaseProcessData@@YAXXZ 100474f0 f oautil.obj
 0001:00046516       ?QueryInterface@CReleaseAppData@@EAGJABU_GUID@@PAPAX@Z 10047516 f oautil.obj
 0001:0004652d       ?AddRef@CReleaseAppData@@EAGKXZ 1004752d f oautil.obj
 0001:00046544       ?Release@CReleaseAppData@@EAGKXZ 10047544 f oautil.obj
 0001:0004658c       ?InitAppData@@YAJXZ        1004758c f oautil.obj
 0001:000466fc       ?ReleaseAppData@@YAXXZ     100476fc f oautil.obj
 0001:000467d3       ?Release@AppObjectTable@@QAEXXZ 100477d3 f oautil.obj
 0001:0004689e       ?DebIsTableEmpty@AppObjectTable@@QAEXXZ 1004789e f oautil.obj
 0001:000468d8       ?AddTypeInfo@AppObjectTable@@QAEJPAU_GUID@@PAK@Z 100478d8 f oautil.obj
 0001:00046a8b       ?RemoveTypeInfo@AppObjectTable@@QAEXK@Z 10047a8b f oautil.obj
 0001:00046b99       ?AddressOfAppObject@AppObjectTable@@QAEXKPAPAX@Z 10047b99 f oautil.obj
 0001:00046c10       ??0CReleaseAppData@@QAE@XZ 10047c10 f oautil.obj
 0001:00046c40       ??0APP_DATA@@QAE@XZ        10047c40 f oautil.obj
 0001:00046cc0       ??0AppObjectTable@@QAE@XZ  10047cc0 f oautil.obj
 0001:00046d00       _CbSizeArrayDesc@4         10047d00 f tdata1.obj
 0001:00046d35       ?rtArrayInit@@YGXPAUtagSAFEARRAY@@I@Z 10047d35 f tdata1.obj
 0001:00046db5       ?DebCheckState@EXBIND@@QBEXI@Z 10047db5 f tdata1.obj
 0001:00046dcd       ?Init@TYPE_DATA@@QAEJPAVSHEAP_MGR@@PAVDYN_TYPEROOT@@@Z 10047dcd f tdata1.obj
 0001:00046f73       ??1TYPE_DATA@@QAE@XZ       10047f73 f tdata1.obj
 0001:00046fa9       ?AppendDefn@TYPE_DATA@@AAEXIPAG0@Z 10047fa9 f tdata1.obj
 0001:00047077       ?AppendMbrVarDefn@TYPE_DATA@@AAEXI@Z 10048077 f tdata1.obj
 0001:0004713a       ?ReleaseDllentrydefn@TYPE_DATA@@QAEXI@Z 1004813a f tdata1.obj
 0001:00047191       ?FreeArrayDescriptor@TYPE_DATA@@QAEXI@Z 10048191 f tdata1.obj
 0001:000471e2       ?FreeTypeDefnResources@TYPE_DATA@@QAEXI@Z 100481e2 f tdata1.obj
 0001:000472fa       ?FreeTypeDefn@TYPE_DATA@@QAEXI@Z 100482fa f tdata1.obj
 0001:00047344       ?FreeMbrVarDefn@TYPE_DATA@@QAEXI@Z 10048344 f tdata1.obj
 0001:00047491       ?SizeofConstVal@TYPE_DATA@@QAEIPAVVAR_DEFN@@I@Z 10048491 f tdata1.obj
 0001:000475c4       ?FreeFuncDefn@TYPE_DATA@@QAEXI@Z 100485c4 f tdata1.obj
 0001:00047810       ?FreeParamDefn@TYPE_DATA@@QAEXI@Z 10048810 f tdata1.obj
 0001:00047886       ?Write@TYPE_DATA@@QAEJPAVSTREAM@@@Z 10048886 f tdata1.obj
 0001:00047aeb       ?Read@TYPE_DATA@@QAEJPAVSTREAM@@@Z 10048aeb f tdata1.obj
 0001:00047d88       ?AllocMbrVarDefn@TYPE_DATA@@AAEJPAGH@Z 10048d88 f tdata1.obj
 0001:00047e44       ?AllocFuncDefn@TYPE_DATA@@AAEJPAGH@Z 10048e44 f tdata1.obj
 0001:00047f00       ?AllocVirtualFuncDefn@TYPE_DATA@@AAEJPAGH@Z 10048f00 f tdata1.obj
 0001:00047fbc       ?AllocTypeDefn@TYPE_DATA@@AAEJIQAW4TYPEDESCKIND@@PAG@Z 10048fbc f tdata1.obj
 0001:0004806a       ?AllocArrayDescriptor@TYPE_DATA@@AAEJIPAG@Z 1004906a f tdata1.obj
 0001:000480fc       ?HdefnOfHmember@TYPE_DATA@@QAEIKPAI@Z 100490fc f tdata1.obj
 0001:000481bd       ?HfdefnOfHmember@TYPE_DATA@@QBEIKI@Z 100491bd f tdata1.obj
 0001:000482d7       ?HvdefnPredeclared@TYPE_DATA@@QBEIXZ 100492d7 f tdata1.obj
 0001:000482f8       ?SetHvdefnPredeclared@TYPE_DATA@@QAEXI@Z 100492f8 f tdata1.obj
 0001:0004831a       ?HmvdefnOfHmember@TYPE_DATA@@QBEIK@Z 1004931a f tdata1.obj
 0001:000483c7       ?DebCheckState@TYPE_DATA@@QBEXI@Z 100493c7 f tdata1.obj
 0001:000485c2       ?DebCheckVarDefn@TYPE_DATA@@QBEXI@Z 100495c2 f tdata1.obj
 0001:000486b0       ?DebCheckParamDefn@TYPE_DATA@@QBEXI@Z 100496b0 f tdata1.obj
 0001:000486c8       ?DebCheckMbrVarDefn@TYPE_DATA@@QBEXI@Z 100496c8 f tdata1.obj
 0001:000486ec       ?DebCheckFuncDefn@TYPE_DATA@@QBEXI@Z 100496ec f tdata1.obj
 0001:00048762       ?DebCheckVirtualFuncDefn@TYPE_DATA@@QBEXI@Z 10049762 f tdata1.obj
 0001:00048786       ?DebCheckFuncTypeDefn@TYPE_DATA@@QBEXVFUNC_TYPE_DEFN@@@Z 10049786 f tdata1.obj
 0001:0004879e       ?DebCheckRecTypeDefn@TYPE_DATA@@QBEXI@Z 1004979e f tdata1.obj
 0001:00048803       ?DebCheckDefn@TYPE_DATA@@QBEXI@Z 10049803 f tdata1.obj
 0001:000488f6       ?SizeTypeDefnOfTDescKind@TYPE_DATA@@ABEIIPAW4TYPEDESCKIND@@@Z 100498f6 f tdata1.obj
 0001:000489ef       ?SizeOfTypeDefn@TYPE_DATA@@QBEII@Z 100499ef f tdata1.obj
 0001:00048a1a       ?DefnSize@TYPE_DEFN@@QAEIXZ 10049a1a f tdata1.obj
 0001:00048aea       ?AllocVardefnPredeclared@TYPE_DATA@@QAEJXZ 10049aea f tdata1.obj
 0001:00048dc0       ??0TYPE_DEFN@@QAE@XZ       10049dc0 f tdata1.obj
 0001:00048e30       ?Harraydesc@TYPE_DEFN@@QBEIXZ 10049e30 f tdata1.obj
 0001:00048e80       ?IsArray@TYPE_DEFN@@QBEHXZ 10049e80 f tdata1.obj
 0001:00048ed0       ?IsBasicArray@TYPE_DEFN@@QBEHXZ 10049ed0 f tdata1.obj
 0001:00048f10       ?SetTdesckind@TYPE_DEFN@@QAEXW4TYPEDESCKIND@@@Z 10049f10 f tdata1.obj
 0001:00048f50       ?SetPtrkind@TYPE_DEFN@@QAEXW4PTRKIND@@@Z 10049f50 f tdata1.obj
 0001:00048f90       ?Hlnam@DEFN@@QBEIXZ        10049f90 f tdata1.obj
 0001:00048fc0       ?IsVarDefn@DEFN@@QBEHXZ    10049fc0 f tdata1.obj
 0001:00049020       ?IsParamDefn@DEFN@@QBEHXZ  1004a020 f tdata1.obj
 0001:00049060       ?HasV2Flags@DEFN@@QBEHXZ   1004a060 f tdata1.obj
 0001:00049090       ?SetHdefnNext@DEFN@@QAEXI@Z 1004a090 f tdata1.obj
 0001:000490c0       ?SetHlnam@DEFN@@QAEXI@Z    1004a0c0 f tdata1.obj
 0001:000490f0       ?HstDocumentation@MEMBER_DEFN@@QBEIXZ 1004a0f0 f tdata1.obj
 0001:00049120       ?SetHstDocumentation@MEMBER_DEFN@@QAEXI@Z 1004a120 f tdata1.obj
 0001:00049150       ?IsPublic@VAR_DEFN@@QBEHXZ 1004a150 f tdata1.obj
 0001:00049190       ?Access@VAR_DEFN@@QBE?AW4ACCESS@@XZ 1004a190 f tdata1.obj
 0001:000491c0       ?IsPrivate@VAR_DEFN@@QBEHXZ 1004a1c0 f tdata1.obj
 0001:00049200       ?Vkind@VAR_DEFN@@QBE?AW4VAR_KIND@@XZ 1004a200 f tdata1.obj
 0001:00049230       ?IsDataMember@VAR_DEFN@@QBEHXZ 1004a230 f tdata1.obj
 0001:00049270       ?IsEnumerator@VAR_DEFN@@QBEHXZ 1004a270 f tdata1.obj
 0001:000492b0       ?HasConstVal@VAR_DEFN@@QBEHXZ 1004a2b0 f tdata1.obj
 0001:000492e0       ?IsSimpleConst@VAR_DEFN@@QBEHXZ 1004a2e0 f tdata1.obj
 0001:00049310       ?IsStatic@VAR_DEFN@@QBEHXZ 1004a310 f tdata1.obj
 0001:00049340       ?IsSimpleType@VAR_DEFN@@QBEHXZ 1004a340 f tdata1.obj
 0001:00049370       ?QtdefnOfSimpleType@VAR_DEFN@@QBEPAVTYPE_DEFN@@XZ 1004a370 f tdata1.obj
 0001:000493c0       ?Hdllentrydefn@VAR_DEFN@@QBEIXZ 1004a3c0 f tdata1.obj
 0001:000493e0       ?SetVkind@VAR_DEFN@@QAEXW4VAR_KIND@@@Z 1004a3e0 f tdata1.obj
 0001:00049420       ?SetIsStatic@VAR_DEFN@@QAEXH@Z 1004a420 f tdata1.obj
 0001:00049460       ?SetIsSimpleType@VAR_DEFN@@QAEXH@Z 1004a460 f tdata1.obj
 0001:000494a0       ?SetHasNew@VAR_DEFN@@QAEXH@Z 1004a4a0 f tdata1.obj
 0001:000494e0       ?SetHtdefn@VAR_DEFN@@QAEXI@Z 1004a4e0 f tdata1.obj
 0001:00049510       ?SetOVar@VAR_DEFN@@QAEXG@Z 1004a510 f tdata1.obj
 0001:00049540       ?HvdefnFirstMember@RECTYPE_DEFN@@QAEIXZ 1004a540 f tdata1.obj
 0001:00049570       ??0MBR_VAR_DEFN@@QAE@XZ    1004a570 f tdata1.obj
 0001:000495b0       ?SetDefnkind@DEFN@@QAEXW4DEFNKIND@@@Z 1004a5b0 f tdata1.obj
 0001:000495f0       ??0MEMBER_DEFN@@QAE@XZ     1004a5f0 f tdata1.obj
 0001:00049630       ??0VAR_DEFN@@QAE@XZ        1004a630 f tdata1.obj
 0001:000496f0       ??0DEFN@@QAE@XZ            1004a6f0 f tdata1.obj
 0001:00049730       ?HchunkConstMbrVal@MBR_VAR_DEFN@@QBEIXZ 1004a730 f tdata1.obj
 0001:00049790       ?HstDocumentation@MBR_VAR_DEFN@@QBEIXZ 1004a790 f tdata1.obj
 0001:000497c0       ?SetHmember@MBR_VAR_DEFN@@QAEXK@Z 1004a7c0 f tdata1.obj
 0001:000497f0       ?SetHmember@MEMBER_DEFN@@QAEXK@Z 1004a7f0 f tdata1.obj
 0001:00049810       ??0FUNC_DEFN@@QAE@XZ       1004a810 f tdata1.obj
 0001:000498c0       ??0FUNC_TYPE_DEFN@@QAE@XZ  1004a8c0 f tdata1.obj
 0001:00049920       ?IsPublic@FUNC_DEFN@@QBEHXZ 1004a920 f tdata1.obj
 0001:00049960       ?Access@FUNC_DEFN@@QBE?AW4ACCESS@@XZ 1004a960 f tdata1.obj
 0001:00049990       ?IsPrivate@FUNC_DEFN@@QBEHXZ 1004a990 f tdata1.obj
 0001:000499d0       ??0VIRTUAL_FUNC_DEFN@@QAE@XZ 1004a9d0 f tdata1.obj
 0001:00049a00       ?Pdtroot@TYPE_DATA@@QBEPAVDYN_TYPEROOT@@XZ 1004aa00 f tdata1.obj
 0001:00049a40       ?QmvdefnOfHmvdefn@TYPE_DATA@@QBEPAVMBR_VAR_DEFN@@II@Z 1004aa40 f tdata1.obj
 0001:00049a70       ?QrtdefnOfHrtdefn@TYPE_DATA@@QBEPAVRECTYPE_DEFN@@II@Z 1004aa70 f tdata1.obj
 0001:00049aa0       ?QarraydescOfHarraydesc@TYPE_DATA@@QBEPAUtagSAFEARRAY@@II@Z 1004aaa0 f tdata1.obj
 0001:00049ad0       ?HfdefnFirstMeth@TYPE_DATA@@QBEIXZ 1004aad0 f tdata1.obj
 0001:00049b00       ?HdefnFirstDataMbrNestedType@TYPE_DATA@@QBEIXZ 1004ab00 f tdata1.obj
 0001:00049b30       ?PbConstVal@@YAPAEPAVTYPE_DATA@@PAVVAR_DEFN@@@Z 1004ab30 f tdata2.obj
 0001:00049bd6       ?SetHchunkConstVal@@YAXPAVVAR_DEFN@@I@Z 1004abd6 f tdata2.obj
 0001:00049c5b       ?ValidateMemid@@YAJJ@Z     1004ac5b f tdata2.obj
 0001:00049cf9       ?HvdefnOfHlnam@TYPE_DATA@@QAEII@Z 1004acf9 f tdata2.obj
 0001:00049d8a       ?HfdefnFirstOfHlnam@TYPE_DATA@@QAEIIPAW4tagINVOKEKIND@@@Z 1004ad8a f tdata2.obj
 0001:00049dbb       ?HfdefnNextOfHlnam@TYPE_DATA@@QAEIIIPAW4tagINVOKEKIND@@@Z 1004adbb f tdata2.obj
 0001:00049e2b       ?HfdefnFirstAvailMeth@TYPE_DATA@@QAEIXZ 1004ae2b f tdata2.obj
 0001:00049e49       ?GetFuncDescOfHfdefn@TYPE_DATA@@QAEJIPAPAUtagFUNCDESC@@@Z 1004ae49 f tdata2.obj
 0001:0004a34a       ?GetFuncDesc@TYPE_DATA@@QAEJIPAPAUtagFUNCDESC@@@Z 1004b34a f tdata2.obj
 0001:0004a448       ?AddFuncDesc@TYPE_DATA@@QAEJIPAUtagFUNCDESC@@PAI@Z 1004b448 f tdata2.obj
 0001:0004ac8d       ?GetVarDescOfHvdefn@TYPE_DATA@@QAEJIPAPAUtagVARDESC@@@Z 1004bc8d f tdata2.obj
 0001:0004b43d       ?GetVarDesc@TYPE_DATA@@QAEJIPAPAUtagVARDESC@@@Z 1004c43d f tdata2.obj
 0001:0004b571       ?AllocTypeDescOfTypeDefn@TYPE_DATA@@QAEJIHPAUtagTYPEDESC@@@Z 1004c571 f tdata2.obj
 0001:0004b98a       ?AllocConstValOfVariant@TYPE_DATA@@AAEJPAUtagVARIANT@@I@Z 1004c98a f tdata2.obj
 0001:0004bdf7       ?SetTypeDefnAlias@TYPE_DATA@@QAEJPAUtagTYPEDESC@@@Z 1004cdf7 f tdata2.obj
 0001:0004be9a       ?AddImplType@TYPE_DATA@@QAEJIK@Z 1004ce9a f tdata2.obj
 0001:0004c035       ?HmvdefnOfIndex@TYPE_DATA@@AAEII@Z 1004d035 f tdata2.obj
 0001:0004c08a       ?SetImplTypeFlags@TYPE_DATA@@QAEJIH@Z 1004d08a f tdata2.obj
 0001:0004c0e5       ?GetImplTypeFlags@TYPE_DATA@@QAEJIPAH@Z 1004d0e5 f tdata2.obj
 0001:0004c144       ?GetRefTypeOfImplType@TYPE_DATA@@QAEJIPAK@Z 1004d144 f tdata2.obj
 0001:0004c1f0       ?AllocTypeDefnOfTypeDesc@TYPE_DATA@@QAEJPAUtagTYPEDESC@@IPAGHPAH@Z 1004d1f0 f tdata2.obj
 0001:0004c97a       ?AddVarDesc@TYPE_DATA@@QAEJIPAUtagVARDESC@@PAI@Z 1004d97a f tdata2.obj
 0001:0004ce50       ?SetVarName@TYPE_DATA@@QAEJIPAD@Z 1004de50 f tdata2.obj
 0001:0004d003       ?SetFuncAndParamNames@TYPE_DATA@@QAEJIPAPAGI@Z 1004e003 f tdata2.obj
 0001:0004d0a4       ?SetFuncAndParamNamesOfHfdefn@TYPE_DATA@@QAEJIPAPAGI@Z 1004e0a4 f tdata2.obj
 0001:0004d349       ?GetNames@TYPE_DATA@@QAEJJPAPAGIPAI@Z 1004e349 f tdata2.obj
 0001:0004d669       ?GetFuncDefnForDoc@TYPE_DATA@@QAEII@Z 1004e669 f tdata2.obj
 0001:0004d8f2       ?SetFuncDocString@TYPE_DATA@@QAEJIPAD@Z 1004e8f2 f tdata2.obj
 0001:0004d9c7       ?SetVarDocString@TYPE_DATA@@QAEJIPAD@Z 1004e9c7 f tdata2.obj
 0001:0004db0b       ?SetFuncHelpContext@TYPE_DATA@@QAEJIK@Z 1004eb0b f tdata2.obj
 0001:0004dbb2       ?SetVarHelpContext@TYPE_DATA@@QAEJIK@Z 1004ebb2 f tdata2.obj
 0001:0004dce5       ?GetDocumentation@TYPE_DATA@@QAEJJPAPAG0PAK@Z 1004ece5 f tdata2.obj
 0001:0004ded8       ?UHelpContextOfEncoding@TYPE_DATA@@QAEKG@Z 1004eed8 f tdata2.obj
 0001:0004df83       ?GetEncodedHelpContext@TYPE_DATA@@QAEJKPAG@Z 1004ef83 f tdata2.obj
 0001:0004e0d0       ?HchunkOfString@TYPE_DATA@@AAEJPADPAI@Z 1004f0d0 f tdata2.obj
 0001:0004e16e       ?StringOfHchunk@TYPE_DATA@@QAEJIPAPAD@Z 1004f16e f tdata2.obj
 0001:0004e246       ?GetDynTypeBindOfHvdefn@TYPE_DATA@@QAEJIPAPAVDYN_TYPEBIND@@PAI@Z 1004f246 f tdata2.obj
 0001:0004e31b       ?GetTypeInfoOfHvdefn@TYPE_DATA@@QAEJIPAPAUITypeInfo@@PAI@Z 1004f31b f tdata2.obj
 0001:0004e52d       ?EquivTypeDefnsIgnoreByRef@@YAJPAVTYPE_DATA@@HG0HGGPAHH@Z 1004f52d f tdata2.obj
 0001:0004e7b0       ?EquivTypeDefns@@YAJPAVTYPE_DATA@@HG0HGGPAH@Z 1004f7b0 f tdata2.obj
 0001:0004e7ea       ?SetDllEntryDefn@TYPE_DATA@@QAEJII@Z 1004f7ea f tdata2.obj
 0001:0004e84d       ?HfdefnOfIndex@TYPE_DATA@@QAEJIPAI@Z 1004f84d f tdata2.obj
 0001:0004e8da       ?UpdateDocStrings@TYPE_DATA@@QAEJXZ 1004f8da f tdata2.obj
 0001:0004ebb2       ?HtdefnAlias@TYPE_DATA@@QBEIXZ 1004fbb2 f tdata2.obj
 0001:0004ec05       ?SetIsSimpleTypeAlias@TYPE_DATA@@QAEXH@Z 1004fc05 f tdata2.obj
 0001:0004ec6b       ?IsSimpleTypeAlias@TYPE_DATA@@QBEHXZ 1004fc6b f tdata2.obj
 0001:0004ecd0       ?IsModeIn@TYPE_DEFN@@QBEHXZ 1004fcd0 f tdata2.obj
 0001:0004ed10       ?IsModeInOut@TYPE_DEFN@@QBEHXZ 1004fd10 f tdata2.obj
 0001:0004ed50       ?SetIsRetval@TYPE_DEFN@@QAEXH@Z 1004fd50 f tdata2.obj
 0001:0004ed90       ?SetIsLCID@TYPE_DEFN@@QAEXH@Z 1004fd90 f tdata2.obj
 0001:0004edd0       ?SetParamkind@TYPE_DEFN@@QAEXW4PARAMKIND@@@Z 1004fdd0 f tdata2.obj
 0001:0004ee10       ?HtdefnFoundation@TYPE_DEFN@@QBEII@Z 1004fe10 f tdata2.obj
 0001:0004ee70       ?IsLastTdefn@TYPE_DEFN@@QBEHXZ 1004fe70 f tdata2.obj
 0001:0004eec0       ?SetHasV2Flag@DEFN@@QAEXH@Z 1004fec0 f tdata2.obj
 0001:0004ef00       ?GetOVar@VAR_DEFN@@QBEGXZ  1004ff00 f tdata2.obj
 0001:0004ef20       ?GetSConstVal@VAR_DEFN@@QBEFXZ 1004ff20 f tdata2.obj
 0001:0004ef40       ?IsDispatch@VAR_DEFN@@QBEHXZ 1004ff40 f tdata2.obj
 0001:0004ef70       ?IsReadOnly@VAR_DEFN@@QBEHXZ 1004ff70 f tdata2.obj
 0001:0004efa0       ?HimptypeActual@TYPE_DEFN@@QBEIXZ 1004ffa0 f tdata2.obj
 0001:0004efd0       ?HchunkConstVal@VAR_DEFN@@QBEIXZ 1004ffd0 f tdata2.obj
 0001:0004f020       ?SetIsResizable@TYPE_DEFN@@QAEXH@Z 10050020 f tdata2.obj
 0001:0004f060       ?SetAccess@VAR_DEFN@@QAEXW4ACCESS@@@Z 10050060 f tdata2.obj
 0001:0004f0a0       ?SetIsSimpleConst@VAR_DEFN@@QAEXH@Z 100500a0 f tdata2.obj
 0001:0004f0e0       ?SetSConstVal@VAR_DEFN@@QAEXF@Z 100500e0 f tdata2.obj
 0001:0004f110       ?SetHchunkConstVal@VAR_DEFN@@QAEXI@Z 10050110 f tdata2.obj
 0001:0004f140       ?SetImplTypeFlags@VAR_DEFN@@QAEXG@Z 10050140 f tdata2.obj
 0001:0004f190       ?SetHchunkConstMbrVal@MBR_VAR_DEFN@@QAEXI@Z 10050190 f tdata2.obj
 0001:0004f1c0       ?WVarFlags@MBR_VAR_DEFN@@QBEGXZ 100501c0 f tdata2.obj
 0001:0004f1e0       ?SetHtdefn@PARAM_DEFN@@QAEXI@Z 100501e0 f tdata2.obj
 0001:0004f210       ?SetIsSimpleType@PARAM_DEFN@@QAEXH@Z 10050210 f tdata2.obj
 0001:0004f260       ?SetHlnam@PARAM_DEFN@@QAEXI@Z 10050260 f tdata2.obj
 0001:0004f300       ?DataHmemberOfOffset@@YAKII@Z 10050300 f tdata2.obj
 0001:0004f330       ?SetNestDepth@@YAKI@Z      10050330 f tdata2.obj
 0001:0004f370       ?SetIsConst@TYPE_DEFN@@QAEXH@Z 10050370 f tdata2.obj
 0001:0004f3b0       ?SetHasConstVal@VAR_DEFN@@QAEXH@Z 100503b0 f tdata2.obj
 0001:0004f3f0       ?SetIsDispatch@VAR_DEFN@@QAEXH@Z 100503f0 f tdata2.obj
 0001:0004f430       ?SetIsReadOnly@VAR_DEFN@@QAEXH@Z 10050430 f tdata2.obj
 0001:0004f470       ?SetWVarFlags@MBR_VAR_DEFN@@QAEXG@Z 10050470 f tdata2.obj
 0001:0004f4a0       ?CcUnmunged@FUNC_TYPE_DEFN@@QBE?AW4tagCALLCONV@@XZ 100504a0 f tdata2.obj
 0001:0004f4d0       ?IsSimpleTypeResultUnmunged@FUNC_TYPE_DEFN@@QBEHXZ 100504d0 f tdata2.obj
 0001:0004f500       ?HtdefnResultUnmunged@FUNC_TYPE_DEFN@@QBEIXZ 10050500 f tdata2.obj
 0001:0004f530       ?SetCc@FUNC_TYPE_DEFN@@QAEXW4tagCALLCONV@@@Z 10050530 f tdata2.obj
 0001:0004f570       ?SetCArgs@FUNC_TYPE_DEFN@@QAEXI@Z 10050570 f tdata2.obj
 0001:0004f5b0       ?SetCArgsOpt@FUNC_TYPE_DEFN@@QAEXH@Z 100505b0 f tdata2.obj
 0001:0004f5f0       ?SetIsSimpleTypeResult@FUNC_TYPE_DEFN@@QAEXH@Z 100505f0 f tdata2.obj
 0001:0004f630       ?SetHtdefnResult@FUNC_TYPE_DEFN@@QAEXI@Z 10050630 f tdata2.obj
 0001:0004f660       ?IsNonVirtual@FUNC_DEFN@@QBEHXZ 10050660 f tdata2.obj
 0001:0004f6a0       ?IsStatic@FUNC_DEFN@@QBEHXZ 100506a0 f tdata2.obj
 0001:0004f6e0       ?IsDispatch@FUNC_DEFN@@QBEHXZ 100506e0 f tdata2.obj
 0001:0004f720       ?IsPure@FUNC_DEFN@@QBEHXZ  10050720 f tdata2.obj
 0001:0004f750       ?IsMethod@FUNC_DEFN@@QBEHXZ 10050750 f tdata2.obj
 0001:0004f780       ?IsRestricted@FUNC_DEFN@@QBEHXZ 10050780 f tdata2.obj
 0001:0004f7b0       ?WFuncFlags@FUNC_DEFN@@QBEGXZ 100507b0 f tdata2.obj
 0001:0004f7d0       ?SetFkind@FUNC_DEFN@@QAEXW4FUNC_KIND@@@Z 100507d0 f tdata2.obj
 0001:0004f810       ?SetIsPure@FUNC_DEFN@@QAEXH@Z 10050810 f tdata2.obj
 0001:0004f850       ?SetIsRestricted@FUNC_DEFN@@QAEXH@Z 10050850 f tdata2.obj
 0001:0004f890       ?IsPropertyGet@FUNC_DEFN@@QBEHXZ 10050890 f tdata2.obj
 0001:0004f8c0       ?SetWFuncFlags@FUNC_DEFN@@QAEXG@Z 100508c0 f tdata2.obj
 0001:0004f8f0       ?SetInvokeKind@FUNC_DEFN@@QAEXW4tagINVOKEKIND@@@Z 100508f0 f tdata2.obj
 0001:0004f9a0       ?SetOvft@FUNC_DEFN@@QAEXI@Z 100509a0 f tdata2.obj
 0001:0004f9d0       _BstrLenA                  100509d0 f tdata2.obj
 0001:0004fa00       ?WHelpContext@MEMBER_DEFN@@QBEGXZ 10050a00 f tdata2.obj
 0001:0004fa20       ?SetHstDocumentation@MBR_VAR_DEFN@@QAEXI@Z 10050a20 f tdata2.obj
 0001:0004fa50       ?SetWHelpContext@MEMBER_DEFN@@QAEXG@Z 10050a50 f tdata2.obj
 0001:0004fa80       ?UOrdinalHfdefnLast@TYPE_DATA@@ABEIXZ 10050a80 f tdata2.obj
 0001:0004faa0       ?UOrdinalHvdefnLast@TYPE_DATA@@ABEIXZ 10050aa0 f tdata2.obj
 0001:0004fac0       ?SetUOrdinalHfdefnLast@TYPE_DATA@@AAEXI@Z 10050ac0 f tdata2.obj
 0001:0004faf0       ?SetUOrdinalHvdefnLast@TYPE_DATA@@AAEXI@Z 10050af0 f tdata2.obj
 0001:0004fb20       ?SetWHelpContext@MBR_VAR_DEFN@@QAEXG@Z 10050b20 f tdata2.obj
 0001:0004fb50       ?HfdefnLast@TYPE_DATA@@ABEIXZ 10050b50 f tdata2.obj
 0001:0004fb70       ?HvdefnLast@TYPE_DATA@@ABEIXZ 10050b70 f tdata2.obj
 0001:0004fb90       ?SetHfdefnLast@TYPE_DATA@@AAEXI@Z 10050b90 f tdata2.obj
 0001:0004fbc0       ?SetHvdefnLast@TYPE_DATA@@AAEXI@Z 10050bc0 f tdata2.obj
 0001:0004fbf0       ?WHelpContext@MBR_VAR_DEFN@@QBEGXZ 10050bf0 f tdata2.obj
 0001:0004fc20       ?Pnammgr@TYPE_DATA@@QBEPAVNAMMGR@@XZ 10050c20 f tdata2.obj
 0001:0004fc60       ?QvfdefnOfHvfdefn@TYPE_DATA@@QBEPAVVIRTUAL_FUNC_DEFN@@II@Z 10050c60 f tdata2.obj
 0001:0004fc90       ?QtdefnOfHvdefn@TYPE_DATA@@QBEPAVTYPE_DEFN@@II@Z 10050c90 f tdata2.obj
 0001:0004fd30       ?QtrOfHandle@TYPE_DATA@@QAEPAEI@Z 10050d30 f tdata2.obj
 0001:0004fd60       ?HfdefnNextAvailMeth@TYPE_DATA@@QBEII@Z 10050d60 f tdata2.obj
 0001:0004fd90       ?SetHdllentrydefn@FUNC_DEFN@@QAEXI@Z 10050d90 f tdata2.obj
 0001:0004fde0       ?VerifyTwoProperties@@YAJPAVDYN_TYPEROOT@@PAVTYPE_DATA@@IW4PROPKIND@@I2@Z 10050de0 f dtmbrs.obj
 0001:000503c0       ?VerifyProperties@@YAJPAVDYN_TYPEROOT@@PAUPROPERTY_NODE@@@Z 100513c0 f dtmbrs.obj
 0001:0005063c       ??1DYN_TYPEMEMBERS@@IAE@XZ 1005163c f dtmbrs.obj
 0001:00050671       ?AddRef@DYN_TYPEMEMBERS@@UAEXXZ 10051671 f dtmbrs.obj
 0001:00050695       ?Release@DYN_TYPEMEMBERS@@UAEXXZ 10051695 f dtmbrs.obj
 0001:000506b9       ?AddInternalRef@DYN_TYPEMEMBERS@@QAEXXZ 100516b9 f dtmbrs.obj
 0001:000506e4       ?RelInternalRef@DYN_TYPEMEMBERS@@QAEXXZ 100516e4 f dtmbrs.obj
 0001:0005070f       ??0DYN_TYPEMEMBERS@@QAE@XZ 1005170f f dtmbrs.obj
 0001:000507ad       ?Init@DYN_TYPEMEMBERS@@QAEJPAVSHEAP_MGR@@PAVDYN_TYPEROOT@@@Z 100517ad f dtmbrs.obj
 0001:000508e3       ?GetDefnTypeBind@DYN_TYPEMEMBERS@@QAEJPAPAVDEFN_TYPEBIND@@@Z 100518e3 f dtmbrs.obj
 0001:0005096b       ?MakeLaidOut@DYN_TYPEMEMBERS@@UAEJXZ 1005196b f dtmbrs.obj
 0001:00050acd       ?GetTypeKind@DYN_TYPEMEMBERS@@UAE?AW4tagTYPEKIND@@XZ 10051acd f dtmbrs.obj
 0001:00050b25       ?IsLaidOut@DYN_TYPEMEMBERS@@UAEHXZ 10051b25 f dtmbrs.obj
 0001:00050b4c       ?AllocHmembers@DYN_TYPEMEMBERS@@IAEJXZ 10051b4c f dtmbrs.obj
 0001:000510a5       ?LayoutBases@DYN_TYPEMEMBERS@@IAEJW4tagTYPEKIND@@PAI1@Z 100520a5 f dtmbrs.obj
 0001:00051318       ?GetSizeAlignmentOfHtdefnUdt@DYN_TYPEMEMBERS@@QAEJIPAI0@Z 10052318 f dtmbrs.obj
 0001:000514ef       ?GetSizeAlignmentOfArray@DYN_TYPEMEMBERS@@QAEJW4tagTYPEKIND@@IPAI1@Z 100524ef f dtmbrs.obj
 0001:000517ca       ?GetSizeAlignmentOfHtdefn@DYN_TYPEMEMBERS@@QAEJW4tagTYPEKIND@@HIPAI1@Z 100527ca f dtmbrs.obj
 0001:00051a1f       ?GetSizeAlignmentOfHtdefnNonUdt@DYN_TYPEMEMBERS@@QAEJW4tagTYPEKIND@@HIPAI1@Z 10052a1f f dtmbrs.obj
 0001:00051bed       ?LayoutVarOfHvdefn@DYN_TYPEMEMBERS@@QAEJW4tagTYPEKIND@@IPAGPAIHIH@Z 10052bed f dtmbrs.obj
 0001:00051f13       ?LayoutDataMembers@DYN_TYPEMEMBERS@@IAEJW4tagTYPEKIND@@PAI1I@Z 10052f13 f dtmbrs.obj
 0001:00051fee       ?LayoutMembers@DYN_TYPEMEMBERS@@IAEJXZ 10052fee f dtmbrs.obj
 0001:00052310       ?GenerateOverrides@DYN_TYPEMEMBERS@@IAEJXZ 10053310 f dtmbrs.obj
 0001:0005240c       ?Layout@DYN_TYPEMEMBERS@@IAEJXZ 1005340c f dtmbrs.obj
 0001:00052658       ?Read@DYN_TYPEMEMBERS@@QAEJPAVSTREAM@@@Z 10053658 f dtmbrs.obj
 0001:00052701       ?Write@DYN_TYPEMEMBERS@@QAEJPAVSTREAM@@@Z 10053701 f dtmbrs.obj
 0001:000527ac       ?BuildBindNameTable@DYN_TYPEMEMBERS@@QAEJXZ 100537ac f dtmbrs.obj
 0001:000528f4       ?UpdateBinderOptimization@DYN_TYPEMEMBERS@@IAEJIIH@Z 100538f4 f dtmbrs.obj
 0001:00052b2c       ?UpdateNameCacheOfHdefnList@DYN_TYPEMEMBERS@@IAEJIW4INFOKIND@@I@Z 10053b2c f dtmbrs.obj
 0001:00052c2d       ?UpdateNameCacheOfBaseClass@DYN_TYPEMEMBERS@@IAEJPAUITypeInfo@@I@Z 10053c2d f dtmbrs.obj
 0001:000530bb       ?BuildNameCache@DYN_TYPEMEMBERS@@QAEJI@Z 100540bb f dtmbrs.obj
 0001:0005343d       ?GetSize@DYN_TYPEMEMBERS@@UAEIXZ 1005443d f dtmbrs.obj
 0001:00053463       ?AdjustForAlignment@DYN_TYPEMEMBERS@@KAIIIH@Z 10054463 f dtmbrs.obj
 0001:000534dc       ?AlignMember@DYN_TYPEMEMBERS@@KAIPAGIIH@Z 100544dc f dtmbrs.obj
 0001:000535ec       ?AlignmentTdesckind@DYN_TYPEMEMBERS@@QAEGW4TYPEDESCKIND@@@Z 100545ec f dtmbrs.obj
 0001:000536c2       ?DebCheckDefnList@DYN_TYPEMEMBERS@@QAEXIIW4INFOKIND@@I@Z 100546c2 f dtmbrs.obj
 0001:000538b6       ?DebCheckNameCache@DYN_TYPEMEMBERS@@QAEXII@Z 100548b6 f dtmbrs.obj
 0001:00053935       ?DebCheckState@DYN_TYPEMEMBERS@@QAEXI@Z 10054935 f dtmbrs.obj
 0001:000539a0       ?PropkindOfInvokekind@@YAHW4tagINVOKEKIND@@@Z 100549a0 f dtmbrs.obj
 0001:00053a40       ??0PROPERTY_NODE@@QAE@XZ   10054a40 f dtmbrs.obj
 0001:00053ab0       ??1PROPERTY_NODE@@QAE@XZ   10054ab0 f dtmbrs.obj
 0001:00053af0       ?PnodeOfHlnam@PROPERTY_NODE@@QAEPAU1@I@Z 10054af0 f dtmbrs.obj
 0001:00053b50       ?PnodeNext@PROPERTY_NODE@@QAEPAU1@XZ 10054b50 f dtmbrs.obj
 0001:00053b70       ?FunctionHmemberOfOffset@@YAKII@Z 10054b70 f dtmbrs.obj
 0001:00053bb0       ?SetUserBits@@YAKI@Z       10054bb0 f dtmbrs.obj
 0001:00053bf0       ?IsBasicPtr@TYPE_DEFN@@QBEHXZ 10054bf0 f dtmbrs.obj
 0001:00053c40       ?IsResizable@TYPE_DEFN@@QBEHXZ 10054c40 f dtmbrs.obj
 0001:00053c70       ?IsConst@TYPE_DEFN@@QBEHXZ 10054c70 f dtmbrs.obj
 0001:00053ca0       ?IsRecTypeDefn@DEFN@@QBEHXZ 10054ca0 f dtmbrs.obj
 0001:00053ce0       ?IsBase@VAR_DEFN@@QBEHXZ   10054ce0 f dtmbrs.obj
 0001:00053d20       ?IsHresultSub@FUNC_DEFN@@QBEHXZ 10054d20 f dtmbrs.obj
 0001:00053db0       ?Access@DEFN@@QAE?AW4ACCESS@@XZ 10054db0 f dtmbrs.obj
 0001:00053e40       ?IsFuncDefn@DEFN@@QBEHXZ   10054e40 f dtmbrs.obj
 0001:00053e90       ?IsVirtualFuncDefn@DEFN@@QBEHXZ 10054e90 f dtmbrs.obj
 0001:00053ed0       ?Access@RECTYPE_DEFN@@QAE?AW4ACCESS@@XZ 10054ed0 f dtmbrs.obj
 0001:00053f00       ??0TYPE_DATA@@QAE@XZ       10054f00 f dtmbrs.obj
 0001:00053fd0       ?CNestedType@TYPE_DATA@@QBEIXZ 10054fd0 f dtmbrs.obj
 0001:00054000       ?GetSize@TYPE_DATA@@QAEJXZ 10055000 f dtmbrs.obj
 0001:00054020       ?IsGlobal@NAMMGR@@QBEHI@Z  10055020 f dtmbrs.obj
 0001:00054090       ?SetGlobal@NAMMGR@@QAEXIH@Z 10055090 f dtmbrs.obj
 0001:00054110       ?SetMultiple@NAMMGR@@QAEXIH@Z 10055110 f dtmbrs.obj
 0001:00054190       ?SetAmbiguous@NAMMGR@@QAEXIH@Z 10055190 f dtmbrs.obj
 0001:00054210       ?SetNonParam@NAMMGR@@QAEXIH@Z 10055210 f dtmbrs.obj
 0001:00054290       ?SetItypOfHlnam@NAMMGR@@QAEXII@Z 10055290 f dtmbrs.obj
 0001:00054330       ?SetValidNameCache@OGTOLE@@QAEXI@Z 10055330 f dtmbrs.obj
 0001:00054360       ?SetValid@NAME_CACHE@@QAEXXZ 10055360 f dtmbrs.obj
 0001:00054380       ?Pdtroot@DYN_TYPEMEMBERS@@QBEPAVDYN_TYPEROOT@@XZ 10055380 f dtmbrs.obj
 0001:000543a0       ?GetAlignment@DYN_TYPEROOT@@QAEGXZ 100553a0 f dtmbrs.obj
 0001:000543c0       ??0ENTRYMGR@@QAE@XZ        100553c0 f entrymgr.obj
 0001:000543e4       ??1ENTRYMGR@@QAE@XZ        100553e4 f entrymgr.obj
 0001:00054411       ?Init@ENTRYMGR@@QAEJPAVSHEAP_MGR@@PAVDYN_TYPEROOT@@@Z 10055411 f entrymgr.obj
 0001:000544b3       ?DllEntryNameOfHchunk@ENTRYMGR@@QAEJIPADI@Z 100554b3 f entrymgr.obj
 0001:0005450f       ?Decompile@ENTRYMGR@@QAEXW4COMPSTATE@@@Z 1005550f f entrymgr.obj
 0001:00054527       ?AllocDllentrydefn@ENTRYMGR@@AAEJPAIIH@Z 10055527 f entrymgr.obj
 0001:0005460d       ?ReleaseDllentrydefn@ENTRYMGR@@QAEXI@Z 1005560d f entrymgr.obj
 0001:0005476f       ?Read@ENTRYMGR@@QAEJPAVSTREAM@@@Z 1005576f f entrymgr.obj
 0001:000548e0       ?Write@ENTRYMGR@@QAEJPAVSTREAM@@@Z 100558e0 f entrymgr.obj
 0001:0005499c       ?DebCheckState@ENTRYMGR@@QBEXI@Z 1005599c f entrymgr.obj
 0001:000549b4       ?ReleaseLibrary@@YAXPAUHINSTANCE__@@@Z 100559b4 f entrymgr.obj
 0001:000549d8       ?ReleaseDllEntries@@YAXPAX@Z 100559d8 f entrymgr.obj
 0001:00054a4d       ?GetAddressOfDllentry@ENTRYMGR@@QAEJIPAPAX@Z 10055a4d f entrymgr.obj
 0001:00054dc0       ?HdllentrydefnNext@DLLENTRY_DEFN@@QBEIXZ 10055dc0 f entrymgr.obj
 0001:00054df0       ?HLibrary@DLLENTRY_DEFN@@QBEPAUHINSTANCE__@@XZ 10055df0 f entrymgr.obj
 0001:00054e10       ?SetHasOrdinal@DLLENTRY_DEFN@@QAEXH@Z 10055e10 f entrymgr.obj
 0001:00054e40       ?SetHlnamDllName@DLLENTRY_DEFN@@QAEXI@Z 10055e40 f entrymgr.obj
 0001:00054e70       ?SetHdllentrydefnNext@DLLENTRY_DEFN@@QAEXI@Z 10055e70 f entrymgr.obj
 0001:00054ea0       ?SetLpDllEntryPoint@DLLENTRY_DEFN@@QAEXP6GHXZ@Z 10055ea0 f entrymgr.obj
 0001:00054ed0       ?SetHLibrary@DLLENTRY_DEFN@@QAEXPAUHINSTANCE__@@@Z 10055ed0 f entrymgr.obj
 0001:00054f00       ?Init@DYN_TYPEBIND@@QAEJPAVBLK_MGR@@PAVDYN_TYPEROOT@@@Z 10055f00 f dtbind.obj
 0001:00054f88       ??0DYN_TYPEBIND@@QAE@XZ    10055f88 f dtbind.obj
 0001:0005500c       ??1DYN_TYPEBIND@@UAE@XZ    1005600c f dtbind.obj
 0001:0005503e       ?QueryProtocol@DYN_TYPEBIND@@UAEPAXPAG@Z 1005603e f dtbind.obj
 0001:00055098       ?AddRef@DYN_TYPEBIND@@UAEXXZ 10056098 f dtbind.obj
 0001:000550ca       ?AddInternalRef@DYN_TYPEBIND@@QAEXXZ 100560ca f dtbind.obj
 0001:000550ef       ?RelInternalRef@DYN_TYPEBIND@@QAEXXZ 100560ef f dtbind.obj
 0001:00055114       ?Release@DYN_TYPEBIND@@UAEXXZ 10056114 f dtbind.obj
 0001:00055135       ?Pdtmbrs@DYN_TYPEBIND@@QBEPAVDYN_TYPEMEMBERS@@XZ 10056135 f dtbind.obj
 0001:00055154       ?GetTypeInfo@DYN_TYPEBIND@@UAEJPAPAVTYPEINFO@@@Z 10056154 f dtbind.obj
 0001:000551b3       ?IsValid@DYN_TYPEBIND@@QBEHXZ 100561b3 f dtbind.obj
 0001:0005520c       ?BuildBindNameTable@DYN_TYPEBIND@@QAEJXZ 1005620c f dtbind.obj
 0001:0005526f       ?BindBase@DYN_TYPEBIND@@IAEJHIIKIW4ACCESS@@PAVEXBIND@@PAVOGTOLE@@@Z 1005626f f dtbind.obj
 0001:00055424       ?BindIdDefn@DYN_TYPEBIND@@QAEJHKIW4ACCESS@@PAVEXBIND@@@Z 10056424 f dtbind.obj
 0001:0005583d       ?BindDefnCur@DYN_TYPEBIND@@QAEJHKIW4ACCESS@@PAVEXBIND@@@Z 1005683d f dtbind.obj
 0001:00055c08       ?HvdefnPredeclared@DYN_TYPEBIND@@QAEIXZ 10056c08 f dtbind.obj
 0001:00055c34       ?Ptdata@DYN_TYPEBIND@@QAEPAVTYPE_DATA@@XZ 10056c34 f dtbind.obj
 0001:00055c59       ?BindDefnStr@DYN_TYPEBIND@@UAEJPADIW4ACCESS@@PAVEXBIND@@@Z 10056c59 f dtbind.obj
 0001:00055d01       ?BindTypeDefnStr@DYN_TYPEBIND@@UAEJPADIW4ACCESS@@PAVEXBIND@@@Z 10056d01 f dtbind.obj
 0001:00055da7       ?GetTypeKind@DYN_TYPEBIND@@UAE?AW4tagTYPEKIND@@XZ 10056da7 f dtbind.obj
 0001:00055df9       ?GetCbSize@DYN_TYPEBIND@@UAEGXZ 10056df9 f dtbind.obj
 0001:00055e3f       ?GetAlignment@DYN_TYPEBIND@@UAEGXZ 10056e3f f dtbind.obj
 0001:00055e85       ?Read@DYN_TYPEBIND@@QAEJPAVSTREAM@@@Z 10056e85 f dtbind.obj
 0001:00056011       ?Write@DYN_TYPEBIND@@QAEJPAVSTREAM@@@Z 10057011 f dtbind.obj
 0001:0005619b       ?BindDefnProjLevelStr@DYN_TYPEBIND@@UAEJPADIW4ACCESS@@1PAVEXBIND@@@Z 1005719b f dtbind.obj
 0001:000561cc       ?BindTypeDefnProjLevelStr@DYN_TYPEBIND@@UAEJPADIW4ACCESS@@1PAVEXBIND@@@Z 100571cc f dtbind.obj
 0001:000561fd       ?DebCheckState@DYN_TYPEBIND@@QBEXI@Z 100571fd f dtbind.obj
 0001:00056237       ?DebShowState@DYN_TYPEBIND@@QBEXI@Z 10057237 f dtbind.obj
 0001:000562f0       ??_GDYN_TYPEBIND@@UAEPAXI@Z 100572f0 f dtbind.obj
 0001:000562f0       ??_EDYN_TYPEBIND@@UAEPAXI@Z 100572f0 f dtbind.obj
 0001:00056330       ?IsMatchOfVisibility@@YAHW4ACCESS@@0@Z 10057330 f dtbind.obj
 0001:00056360       ??1DEFN_TYPEBIND@@UAE@XZ   10057360 f dtbind.obj
 0001:00056380       ??0DEFN_TYPEBIND@@QAE@XZ   10057380 f dtbind.obj
 0001:000563d0       ?IndexFirstOfHlnam@DYN_BINDNAME_TABLE@@QBEII@Z 100573d0 f dtbind.obj
 0001:00056410       ?IndexNextOfHlnam@DYN_BINDNAME_TABLE@@QBEIII@Z 10057410 f dtbind.obj
 0001:00056460       ?HdefnOfIndex@DYN_BINDNAME_TABLE@@QBEII@Z 10057460 f dtbind.obj
 0001:000564d0       ?QdefnOfHdefn@DYN_BINDNAME_TABLE@@QBEPAVDEFN@@II@Z 100574d0 f dtbind.obj
 0001:00056500       ?Rqhdefn@DYN_BINDNAME_TABLE@@IBEPAGXZ 10057500 f dtbind.obj
 0001:00056550       ?Pdtroot@DYN_TYPEBIND@@QBEPAVDYN_TYPEROOT@@XZ 10057550 f dtbind.obj
 0001:00056570       ?GetCbSizeVft@DYN_TYPEBIND@@UAEGXZ 10057570 f dtbind.obj
 0001:00056590       ?GetOPvft@DYN_TYPEBIND@@UAEJXZ 10057590 f dtbind.obj
 0001:000565b0       ?IsDispatch@EXBIND@@QBEHXZ 100575b0 f dtbind.obj
 0001:000565d0       ?SetBindKind@EXBIND@@QAEXW4BIND_KIND@@@Z 100575d0 f dtbind.obj
 0001:000565f0       ?SetHdefn@EXBIND@@QAEXI@Z  100575f0 f dtbind.obj
 0001:00056620       ?SetPtdata@EXBIND@@QAEXPAVTYPE_DATA@@@Z 10057620 f dtbind.obj
 0001:00056650       ?SetPtinfo@EXBIND@@QAEXPAUITypeInfo@@@Z 10057650 f dtbind.obj
 0001:00056680       ?SetIsDispatch@EXBIND@@QAEXH@Z 10057680 f dtbind.obj
 0001:000566b0       ?AdjustOfs@EXBIND@@QAEXH@Z 100576b0 f dtbind.obj
 0001:000566e0       ?QueryProtocol@DEFN_TYPEBIND@@UAEPAXPAG@Z 100576e0 f dfntbind.obj
 0001:0005674a       ?GetOPvft@DEFN_TYPEBIND@@UAEJXZ 1005774a f dfntbind.obj
 0001:00056765       ?GetCbSizeVft@DEFN_TYPEBIND@@UAEGXZ 10057765 f dfntbind.obj
 0001:0005677e       ?BindType@DEFN_TYPEBIND@@UAEJKPADI@Z 1005777e f dfntbind.obj
 0001:000567a0       ??0DYN_BINDNAME_TABLE@@QAE@XZ 100577a0 f dbindtbl.obj
 0001:000567f4       ??1DYN_BINDNAME_TABLE@@UAE@XZ 100577f4 f dbindtbl.obj
 0001:00056813       ?Init@DYN_BINDNAME_TABLE@@QAEJPAVBLK_MGR@@PAVDYN_TYPEROOT@@@Z 10057813 f dbindtbl.obj
 0001:000568b8       ?GetBucketOfHlnam@DYN_BINDNAME_TABLE@@IBEII@Z 100578b8 f dbindtbl.obj
 0001:00056927       ?BuildTable@DYN_BINDNAME_TABLE@@QAEJXZ 10057927 f dbindtbl.obj
 0001:00056a2c       ?ReleaseTable@DYN_BINDNAME_TABLE@@QAEXXZ 10057a2c f dbindtbl.obj
 0001:00056ac5       ?AddHdefn@DYN_BINDNAME_TABLE@@QAEXI@Z 10057ac5 f dbindtbl.obj
 0001:00056bbf       ?Read@DYN_BINDNAME_TABLE@@QAEJPAVSTREAM@@@Z 10057bbf f dbindtbl.obj
 0001:00056c58       ?Write@DYN_BINDNAME_TABLE@@QAEJPAVSTREAM@@@Z 10057c58 f dbindtbl.obj
 0001:00056cdb       ?FindIndexOfHlnam@DYN_BINDNAME_TABLE@@IBEIII@Z 10057cdb f dbindtbl.obj
 0001:00056df9       ?TraverseDefnList@DYN_BINDNAME_TABLE@@IAEJI@Z 10057df9 f dbindtbl.obj
 0001:000570df       ?SetTableSize@DYN_BINDNAME_TABLE@@IAEJI@Z 100580df f dbindtbl.obj
 0001:000571bc       ?DebIsHdefnInList@@YAHPAVTYPE_DATA@@II@Z 100581bc f dbindtbl.obj
 0001:00057217       ?DebCheckState@DYN_BINDNAME_TABLE@@QBEXI@Z 10058217 f dbindtbl.obj
 0001:000574ec       ?DebShowState@DYN_BINDNAME_TABLE@@QBEXI@Z 100584ec f dbindtbl.obj
 0001:00057650       ??_GDYN_BINDNAME_TABLE@@UAEPAXI@Z 10058650 f dbindtbl.obj
 0001:00057650       ??_EDYN_BINDNAME_TABLE@@UAEPAXI@Z 10058650 f dbindtbl.obj
 0001:00057690       ?Pdtbind@DYN_BINDNAME_TABLE@@IBEPAVDYN_TYPEBIND@@XZ 10058690 f dbindtbl.obj
 0001:000576b0       ?IsBasic@DYN_TYPEROOT@@QBEHXZ 100586b0 f dbindtbl.obj
 0001:000576e0       ??0GENPROJ_BINDNAME_TABLE@@QAE@XZ 100586e0 f gbindtbl.obj
 0001:00057740       ??1GENPROJ_BINDNAME_TABLE@@QAE@XZ 10058740 f gbindtbl.obj
 0001:00057774       ?Init@GENPROJ_BINDNAME_TABLE@@QAEJPAVSHEAP_MGR@@PAVNAMMGR@@@Z 10058774 f gbindtbl.obj
 0001:0005784b       ?IndexOfHlnam@GENPROJ_BINDNAME_TABLE@@QBEII@Z 1005884b f gbindtbl.obj
 0001:00057944       ?Read@GENPROJ_BINDNAME_TABLE@@QAEJPAVSTREAM@@@Z 10058944 f gbindtbl.obj
 0001:00057a6e       ?Write@GENPROJ_BINDNAME_TABLE@@QAEJPAVSTREAM@@@Z 10058a6e f gbindtbl.obj
 0001:00057b75       ?AddNameToTable@GENPROJ_BINDNAME_TABLE@@QAEJIIHH@Z 10058b75 f gbindtbl.obj
 0001:00057cc5       ?AddQgpbinddesc@GENPROJ_BINDNAME_TABLE@@IAEXPAUGENPROJ_BIND_DESC@@@Z 10058cc5 f gbindtbl.obj
 0001:00057e50       ?RemoveNameFromTableOfIbucket@GENPROJ_BINDNAME_TABLE@@IAEJI@Z 10058e50 f gbindtbl.obj
 0001:0005800b       ?RemoveNameFromTableOfHlnam@GENPROJ_BINDNAME_TABLE@@QAEJI@Z 1005900b f gbindtbl.obj
 0001:0005806c       ?VerifyNameOfOrdinal@GENPROJ_BINDNAME_TABLE@@QAEJIIH@Z 1005906c f gbindtbl.obj
 0001:0005824d       ?FreeCaches@GENPROJ_BINDNAME_TABLE@@IAEXXZ 1005924d f gbindtbl.obj
 0001:00058301       ?AllocCaches@GENPROJ_BINDNAME_TABLE@@IAEJII@Z 10059301 f gbindtbl.obj
 0001:000583ce       ?ReleaseTable@GENPROJ_BINDNAME_TABLE@@QAEXXZ 100593ce f gbindtbl.obj
 0001:0005845b       ?ReleaseResources@GENPROJ_BINDNAME_TABLE@@QAEXXZ 1005945b f gbindtbl.obj
 0001:000584ee       ?SetTableSize@GENPROJ_BINDNAME_TABLE@@IAEJI@Z 100594ee f gbindtbl.obj
 0001:000587b4       ?DebCheckState@GENPROJ_BINDNAME_TABLE@@QBEXI@Z 100597b4 f gbindtbl.obj
 0001:00058aab       ?DebShowState@GENPROJ_BINDNAME_TABLE@@QBEXI@Z 10059aab f gbindtbl.obj
 0001:00058b50       ?GetBucketOfHlnam@GENPROJ_BINDNAME_TABLE@@IBEII@Z 10059b50 f gbindtbl.obj
 0001:00058bc0       ?Pgptbind@GENPROJ_BINDNAME_TABLE@@IBEPAVGENPROJ_TYPEBIND@@XZ 10059bc0 f gbindtbl.obj
 0001:00058be0       ?Hlnam@GENPROJ_BIND_DESC@@QAEIXZ 10059be0 f gbindtbl.obj
 0001:00058c40       ?IndexNextGlobal@GENPROJ_BIND_DESC@@QAEIXZ 10059c40 f gbindtbl.obj
 0001:00058c70       ?Rqpdtbind@GENPROJ_BINDNAME_TABLE@@IBEPAPAVDYN_TYPEBIND@@XZ 10059c70 f gbindtbl.obj
 0001:00058ca0       ?IndexFirstGlobal@GENPROJ_BINDNAME_TABLE@@QBEIXZ 10059ca0 f gbindtbl.obj
 0001:00058cc0       ??0DOCSTR_MGR@@QAE@XZ      10059cc0 f dstrmgr.obj
 0001:00058d63       ??1DOCSTR_MGR@@QAE@XZ      10059d63 f dstrmgr.obj
 0001:00058e76       ?Init@DOCSTR_MGR@@QAEJXZ   10059e76 f dstrmgr.obj
 0001:00058f4a       ?Read@DOCSTR_MGR@@QAEJPAVSTREAM@@@Z 10059f4a f dstrmgr.obj
 0001:00059136       ?Write@DOCSTR_MGR@@QAEJPAVSTREAM@@@Z 1005a136 f dstrmgr.obj
 0001:0005924c       ?ParseString@DOCSTR_MGR@@AAEJPBDPAPAPADPAI@Z 1005a24c f dstrmgr.obj
 0001:00059510       ?AddWord@DOCSTR_MGR@@AAEJPADPAPAUWORD_ENTRY@@@Z 1005a510 f dstrmgr.obj
 0001:000595da       ?AddNewWord@DOCSTR_MGR@@AAEJPADPAPAUWORD_ENTRY@@@Z 1005a5da f dstrmgr.obj
 0001:000596b0       ?GetHstOfHelpString@DOCSTR_MGR@@QAEJPBDPAI@Z 1005a6b0 f dstrmgr.obj
 0001:00059936       ?CreateSubTree@DOCSTR_MGR@@AAEJPAUHUFFMAN_TREE_MEM@@0PAPAU2@@Z 1005a936 f dstrmgr.obj
 0001:00059a05       ?BuildHuffmanTree@DOCSTR_MGR@@AAEJPAPAUWORD_ENTRY@@PAJPAI@Z 1005aa05 f dstrmgr.obj
 0001:00059d16       ?BuildCmptHuffmanTree@DOCSTR_MGR@@AAEJPAUHUFFMAN_TREE_MEM@@@Z 1005ad16 f dstrmgr.obj
 0001:00059ecf       ?ProcessDocStrings@DOCSTR_MGR@@QAEJXZ 1005aecf f dstrmgr.obj
 0001:0005a200       ?EncodeWords@DOCSTR_MGR@@AAEJXZ 1005b200 f dstrmgr.obj
 0001:0005a279       ?TraverseHuffmanTree@DOCSTR_MGR@@AAEJPAUHUFFMAN_TREE_MEM@@PAEI@Z 1005b279 f dstrmgr.obj
 0001:0005a3d7       ?GetNthBit@DOCSTR_MGR@@AAE?AW4HCODE@@IPAE@Z 1005b3d7 f dstrmgr.obj
 0001:0005a51a       ?SetNthBit@DOCSTR_MGR@@AAEXIPAEW4HCODE@@@Z 1005b51a f dstrmgr.obj
 0001:0005a73c       ?GetEncodedDocStrOfHst@DOCSTR_MGR@@QAEJIPAPADPAI@Z 1005b73c f dstrmgr.obj
 0001:0005a8bb       ?GetWord@DOCSTR_MGR@@AAEJPAXPAEPAIPAD@Z 1005b8bb f dstrmgr.obj
 0001:0005a9aa       ?GetDecodedDocStrOfHst@DOCSTR_MGR@@QAEJPAEPAPAG@Z 1005b9aa f dstrmgr.obj
 0001:0005ac21       ?ReleaseHuffmanTree@DOCSTR_MGR@@AAEXPAUHUFFMAN_TREE_MEM@@@Z 1005bc21 f dstrmgr.obj
 0001:0005acd0       ?ZeroFill@@YAXPAXK@Z       1005bcd0 f dstrmgr.obj
 0001:0005ad10       ??0HT_NON_TERMINAL@@QAE@XZ 1005bd10 f dstrmgr.obj
 0001:0005ad40       ?IndexOfHash@DOCSTR_MGR@@AAEIK@Z 1005bd40 f dstrmgr.obj
 0001:0005ad80       ??1GENPROJ_TYPEBIND@@UAE@XZ 1005bd80 f gptbind.obj
 0001:0005adb2       ?QueryProtocol@GENPROJ_TYPEBIND@@UAEPAXPAG@Z 1005bdb2 f gptbind.obj
 0001:0005ae0c       ?Pgtlibole@GENPROJ_TYPEBIND@@QBEPAVOGTOLE@@XZ 1005be0c f gptbind.obj
 0001:0005ae2b       ?Init@GENPROJ_TYPEBIND@@QAEJPAVSHEAP_MGR@@@Z 1005be2b f gptbind.obj
 0001:0005aec1       ??0GENPROJ_TYPEBIND@@QAE@XZ 1005bec1 f gptbind.obj
 0001:0005aef6       ?AddNameToTable@GENPROJ_TYPEBIND@@QAEJPADIH@Z 1005bef6 f gptbind.obj
 0001:0005b005       ?RemoveNameFromTable@GENPROJ_TYPEBIND@@QAEJPAG@Z 1005c005 f gptbind.obj
 0001:0005b0a5       ?tcomp@@YAJPAUITypeLib@@PAPAUITypeComp@@@Z 1005c0a5 f gptbind.obj
 0001:0005b0c5       ?BindAll@GENPROJ_TYPEBIND@@QAEJHKIW4ACCESS@@W4COMPSTATE@@PAVEXBIND@@@Z 1005c0c5 f gptbind.obj
 0001:0005b13f       ?BindDefnStr@GENPROJ_TYPEBIND@@UAEJPADIW4ACCESS@@PAVEXBIND@@@Z 1005c13f f gptbind.obj
 0001:0005b1df       ?Release@GENPROJ_TYPEBIND@@UAEXXZ 1005c1df f gptbind.obj
 0001:0005b212       ?AddRef@GENPROJ_TYPEBIND@@UAEXXZ 1005c212 f gptbind.obj
 0001:0005b245       ?GetTypeKind@GENPROJ_TYPEBIND@@UAE?AW4tagTYPEKIND@@XZ 1005c245 f gptbind.obj
 0001:0005b25d       ?IsProtocol@GENPROJ_TYPEBIND@@UAEHXZ 1005c25d f gptbind.obj
 0001:0005b275       ?GetCbSize@GENPROJ_TYPEBIND@@UAEGXZ 1005c275 f gptbind.obj
 0001:0005b28f       ?GetAlignment@GENPROJ_TYPEBIND@@UAEGXZ 1005c28f f gptbind.obj
 0001:0005b2a9       ?Read@GENPROJ_TYPEBIND@@QAEJPAVSTREAM@@@Z 1005c2a9 f gptbind.obj
 0001:0005b338       ?Write@GENPROJ_TYPEBIND@@QAEJPAVSTREAM@@@Z 1005c338 f gptbind.obj
 0001:0005b3c6       ?BindTypeDefnStr@GENPROJ_TYPEBIND@@UAEJPADIW4ACCESS@@PAVEXBIND@@@Z 1005c3c6 f gptbind.obj
 0001:0005b44c       ?BindProjLevel@GENPROJ_TYPEBIND@@QAEJHKIW4ACCESS@@0W4COMPSTATE@@PAVEXBIND@@@Z 1005c44c f gptbind.obj
 0001:0005ba9b       ?BindModulesWithCaches@GENPROJ_TYPEBIND@@IAEJHKIW4ACCESS@@0W4COMPSTATE@@PAVEXBIND@@@Z 1005ca9b f gptbind.obj
 0001:0005bcdc       ?BindModulesWithNammgr@GENPROJ_TYPEBIND@@IAEJHKIW4ACCESS@@0W4COMPSTATE@@PAVEXBIND@@@Z 1005ccdc f gptbind.obj
 0001:0005be16       ?BindItyp@GENPROJ_TYPEBIND@@IAEJIHKIW4ACCESS@@0W4COMPSTATE@@PAVEXBIND@@@Z 1005ce16 f gptbind.obj
 0001:0005c1a4       ?BindTypeDefnProjLevelStr@GENPROJ_TYPEBIND@@UAEJPADIW4ACCESS@@1PAVEXBIND@@@Z 1005d1a4 f gptbind.obj
 0001:0005c25b       ?BindDefnProjLevelStr@GENPROJ_TYPEBIND@@UAEJPADIW4ACCESS@@1PAVEXBIND@@@Z 1005d25b f gptbind.obj
 0001:0005c314       ?ReleaseResources@GENPROJ_TYPEBIND@@QAEXXZ 1005d314 f gptbind.obj
 0001:0005c335       ?DebCheckState@GENPROJ_TYPEBIND@@QBEXI@Z 1005d335 f gptbind.obj
 0001:0005c38d       ?DebShowState@GENPROJ_TYPEBIND@@QBEXI@Z 1005d38d f gptbind.obj
 0001:0005c3d0       ??_GGENPROJ_TYPEBIND@@UAEPAXI@Z 1005d3d0 f gptbind.obj
 0001:0005c3d0       ??_EGENPROJ_TYPEBIND@@UAEPAXI@Z 1005d3d0 f gptbind.obj
 0001:0005c410       ??0BINDINFO@@QAE@XZ        1005d410 f gptbind.obj
 0001:0005c440       ?BindInfoKind@BINDINFO@@QAE?AW4BINDINFOKIND@@XZ 1005d440 f gptbind.obj
 0001:0005c460       ?Pdfntbind@BINDINFO@@QAEPAVDEFN_TYPEBIND@@XZ 1005d460 f gptbind.obj
 0001:0005c4a0       ?Ptcomp@BINDINFO@@QAEPAUITypeComp@@XZ 1005d4a0 f gptbind.obj
 0001:0005c4e0       ?IsEmpty@BINDINFO@@QAEHXZ  1005d4e0 f gptbind.obj
 0001:0005c510       ?PdtbindOfOrdinal@GENPROJ_BINDNAME_TABLE@@QBEPAVDYN_TYPEBIND@@I@Z 1005d510 f gptbind.obj
 0001:0005c570       ?SetPdtbindOfOrdinal@GENPROJ_BINDNAME_TABLE@@QAEXIPAVDYN_TYPEBIND@@@Z 1005d570 f gptbind.obj
 0001:0005c5d0       ?GetTypeInfo@GENPROJ_TYPEBIND@@UAEJPAPAVTYPEINFO@@@Z 1005d5d0 f gptbind.obj
 0001:0005c620       ?Compstate@GENPROJ_TYPEBIND@@QBE?AW4COMPSTATE@@XZ 1005d620 f gptbind.obj
 0001:0005c640       ?IsAmbiguous@NAMMGR@@QBEHI@Z 1005d640 f gptbind.obj
 0001:0005c6b0       ?DebSetNameCacheGlobHits@OGTOLE@@QAEXXZ 1005d6b0 f gptbind.obj
 0001:0005c6d0       ?Access@DYN_TYPEROOT@@QBE?AW4ACCESS@@XZ 1005d6d0 f gptbind.obj
 0001:0005c700       ?IsNestedTypeBindMatch@EXBIND@@QBEHXZ 1005d700 f gptbind.obj
 0001:0005c730       ?SetPdfntbind@EXBIND@@QAEXPAVDEFN_TYPEBIND@@@Z 1005d730 f gptbind.obj
 0001:0005c760       ??0ODfnTCmp@@QAE@XZ        1005d760 f dfntcomp.obj
 0001:0005c79d       ??1ODfnTCmp@@UAE@XZ        1005d79d f dfntcomp.obj
 0001:0005c7cd       ?Create@ODfnTCmp@@SAJPAPAV1@PAVDEFN_TYPEBIND@@@Z 1005d7cd f dfntcomp.obj
 0001:0005c89b       ?Init@ODfnTCmp@@IAEJPAVDEFN_TYPEBIND@@@Z 1005d89b f dfntcomp.obj
 0001:0005c8d8       ?QueryInterface@ODfnTCmp@@UAGJABU_GUID@@PAPAX@Z 1005d8d8 f dfntcomp.obj
 0001:0005c994       ?AddRef@ODfnTCmp@@UAGKXZ   1005d994 f dfntcomp.obj
 0001:0005c9e0       ?Release@ODfnTCmp@@UAGKXZ  1005d9e0 f dfntcomp.obj
 0001:0005ca58       ?Bind@ODfnTCmp@@UAGJPAGKGPAPAUITypeInfo@@PAW4tagDESCKIND@@PATtagBINDPTR@@@Z 1005da58 f dfntcomp.obj
 0001:0005cf76       ?BindType@ODfnTCmp@@UAGJPAGKPAPAUITypeInfo@@PAPAUITypeComp@@@Z 1005df76 f dfntcomp.obj
 0001:0005d290       ??_EODfnTCmp@@UAEPAXI@Z    1005e290 f dfntcomp.obj
 0001:0005d290       ??_GODfnTCmp@@UAEPAXI@Z    1005e290 f dfntcomp.obj
 0001:0005d2d0       ?Pdfntbind@EXBIND@@QBEPAVDEFN_TYPEBIND@@XZ 1005e2d0 f dfntcomp.obj
 0001:0005d330       ?IsDynTypeBindMatch@EXBIND@@QBEHXZ 1005e330 f dfntcomp.obj
 0001:0005d360       ?IsProjTypeBindMatch@EXBIND@@QBEHXZ 1005e360 f dfntcomp.obj
 0001:0005d390       _SysAllocStringA@4         1005e390 f convert.obj
 0001:0005d3c9       _SysAllocStringLenA@8      1005e3c9 f convert.obj
 0001:0005d3e8       _SysFreeStringA@4          1005e3e8 f convert.obj
 0001:0005d403       _StringFromGUID2A@12       1005e403 f convert.obj
 0001:0005d44a       ?ConvertStringToW@@YIJPBDPAPAG@Z 1005e44a f convert.obj
 0001:0005d4cd       ?ConvertStringToA@@YIJPBGPAPAD@Z 1005e4cd f convert.obj
 0001:0005d56f       ?ConvertStringAlloc@@YIJKPAPAX@Z 1005e56f f convert.obj
 0001:0005d5df       ?ConvertStringFree@@YIXPAD@Z 1005e5df f convert.obj
 0001:0005d639       ?ConvertBstrToWInPlace@@YIJPAPAG@Z 1005e639 f convert.obj
 0001:0005d6da       ?ConvertBstrToW@@YIJPBDPAPAG@Z 1005e6da f convert.obj
 0001:0005d774       ?ConvertBstrToAInPlace@@YIJPAPAD@Z 1005e774 f convert.obj
 0001:0005d7d0       ?ConvertBstrToA@@YIJPAGPAPAD@Z 1005e7d0 f convert.obj
 0001:0005d870       ?ConvertBstrAlloc@@YIJKPAPAG@Z 1005e870 f convert.obj
 0001:0005d8c0       ?OpenForReadOnly@GTLibStorage@@SAJPAUILockBytes@@PAPAUIStorage@@@Z 1005e8c0 f gtlibstg.obj
 0001:0005dce9       ??0GTLibStorage@@IAE@XZ    1005ece9 f gtlibstg.obj
 0001:0005dd8e       ??1GTLibStorage@@IAE@XZ    1005ed8e f gtlibstg.obj
 0001:0005dddb       ?QueryInterface@GTLibStorage@@UAGJABU_GUID@@PAPAX@Z 1005eddb f gtlibstg.obj
 0001:0005de34       ?AddRef@GTLibStorage@@UAGKXZ 1005ee34 f gtlibstg.obj
 0001:0005de52       ?Release@GTLibStorage@@UAGKXZ 1005ee52 f gtlibstg.obj
 0001:0005debb       ?LookupStream@GTLibStorage@@IAEPAUStreamInfo@@PBD@Z 1005eebb f gtlibstg.obj
 0001:0005df66       ?OpenStream@GTLibStorage@@UAGJPBGPAXKKPAPAUIStream@@@Z 1005ef66 f gtlibstg.obj
 0001:0005e10c       ?Stat@GTLibStorage@@UAGJPAUtagSTATSTG@@K@Z 1005f10c f gtlibstg.obj
 0001:0005e1d3       ?Create@GTLibStorage@@SAJPAUILockBytes@@IPAPAUIStorage@@@Z 1005f1d3 f gtlibstg.obj
 0001:0005e363       ?CreateStream@GTLibStorage@@UAGJPBGKKKPAPAUIStream@@@Z 1005f363 f gtlibstg.obj
 0001:0005e4d7       ?NotifyStreamClosed@GTLibStorage@@IAEXK@Z 1005f4d7 f gtlibstg.obj
 0001:0005e54d       ?SwapStreamInfos@GTLibStorage@@IAEXPAUStreamInfo@@0@Z 1005f54d f gtlibstg.obj
 0001:0005e611       ?SortStreamInfo@GTLibStorage@@IAEXPAUStreamInfo@@I@Z 1005f611 f gtlibstg.obj
 0001:0005e82f       ?Commit@GTLibStorage@@UAGJK@Z 1005f82f f gtlibstg.obj
 0001:0005eab4       ?CreateStorage@GTLibStorage@@UAGJPBGKKKPAPAUIStorage@@@Z 1005fab4 f gtlibstg.obj
 0001:0005eadd       ?OpenStorage@GTLibStorage@@UAGJPBGPAUIStorage@@KPAPAGKPAPAU2@@Z 1005fadd f gtlibstg.obj
 0001:0005eb06       ?CopyTo@GTLibStorage@@UAGJKPBU_GUID@@PAPAGPAUIStorage@@@Z 1005fb06 f gtlibstg.obj
 0001:0005eb2f       ?MoveElementTo@GTLibStorage@@UAGJPBGPAUIStorage@@0K@Z 1005fb2f f gtlibstg.obj
 0001:0005eb58       ?Revert@GTLibStorage@@UAGJXZ 1005fb58 f gtlibstg.obj
 0001:0005eb81       ?EnumElements@GTLibStorage@@UAGJKPAXKPAPAUIEnumSTATSTG@@@Z 1005fb81 f gtlibstg.obj
 0001:0005ebaa       ?DestroyElement@GTLibStorage@@UAGJPBG@Z 1005fbaa f gtlibstg.obj
 0001:0005ebd3       ?RenameElement@GTLibStorage@@UAGJPBG0@Z 1005fbd3 f gtlibstg.obj
 0001:0005ebfc       ?SetElementTimes@GTLibStorage@@UAGJPBGPBU_FILETIME@@11@Z 1005fbfc f gtlibstg.obj
 0001:0005ec25       ?SetStateBits@GTLibStorage@@UAGJKK@Z 1005fc25 f gtlibstg.obj
 0001:0005ec4e       ?SetClass@GTLibStorage@@UAGJABU_GUID@@@Z 1005fc4e f gtlibstg.obj
 0001:0005ec81       ??0GTLibStream@@IAE@XZ     1005fc81 f gtlibstg.obj
 0001:0005ecab       ??1GTLibStream@@IAE@XZ     1005fcab f gtlibstg.obj
 0001:0005ed3e       ?Open@GTLibStream@@SAJPAUILockBytes@@KKPAPAUIStream@@@Z 1005fd3e f gtlibstg.obj
 0001:0005ede9       ?QueryInterface@GTLibStream@@UAGJABU_GUID@@PAPAX@Z 1005fde9 f gtlibstg.obj
 0001:0005ee42       ?AddRef@GTLibStream@@UAGKXZ 1005fe42 f gtlibstg.obj
 0001:0005ee60       ?Release@GTLibStream@@UAGKXZ 1005fe60 f gtlibstg.obj
 0001:0005eec9       ?Read@GTLibStream@@UAGJPAXKPAK@Z 1005fec9 f gtlibstg.obj
 0001:0005ef47       ?Seek@GTLibStream@@UAGJT_LARGE_INTEGER@@KPAT_ULARGE_INTEGER@@@Z 1005ff47 f gtlibstg.obj
 0001:0005f08b       ?Create@GTLibStream@@SAJPAUILockBytes@@KPAVGTLibStorage@@PAPAUIStream@@@Z 1006008b f gtlibstg.obj
 0001:0005f172       ?Write@GTLibStream@@UAGJPBXKPAK@Z 10060172 f gtlibstg.obj
 0001:0005f1ea       ?Commit@GTLibStream@@UAGJK@Z 100601ea f gtlibstg.obj
 0001:0005f1fe       ?SetSize@GTLibStream@@UAGJT_ULARGE_INTEGER@@@Z 100601fe f gtlibstg.obj
 0001:0005f227       ?CopyTo@GTLibStream@@UAGJPAUIStream@@T_ULARGE_INTEGER@@PAT3@2@Z 10060227 f gtlibstg.obj
 0001:0005f250       ?Revert@GTLibStream@@UAGJXZ 10060250 f gtlibstg.obj
 0001:0005f279       ?LockRegion@GTLibStream@@UAGJT_ULARGE_INTEGER@@0K@Z 10060279 f gtlibstg.obj
 0001:0005f2a2       ?UnlockRegion@GTLibStream@@UAGJT_ULARGE_INTEGER@@0K@Z 100602a2 f gtlibstg.obj
 0001:0005f2cb       ?Stat@GTLibStream@@UAGJPAUtagSTATSTG@@K@Z 100602cb f gtlibstg.obj
 0001:0005f2f4       ?Clone@GTLibStream@@UAGJPAPAUIStream@@@Z 100602f4 f gtlibstg.obj
 0001:0005f31d       ?OpenFileLockBytes@@YAJHPAGPAPAUILockBytes@@@Z 1006031d f gtlibstg.obj
 0001:0005f3e6       ?CreateFileLockBytesOnHFILE@@YAJHHKKPAPAUILockBytes@@@Z 100603e6 f gtlibstg.obj
 0001:0005f5fa       ??0FileLockBytes@@IAE@XZ   100605fa f gtlibstg.obj
 0001:0005f62e       ??1FileLockBytes@@IAE@XZ   1006062e f gtlibstg.obj
 0001:0005f667       ?AddRef@FileLockBytes@@UAGKXZ 10060667 f gtlibstg.obj
 0001:0005f685       ?Release@FileLockBytes@@UAGKXZ 10060685 f gtlibstg.obj
 0001:0005f6ee       ?ReadAt@FileLockBytes@@UAGJT_ULARGE_INTEGER@@PAXKPAK@Z 100606ee f gtlibstg.obj
 0001:0005f7d0       ?QueryInterface@FileLockBytes@@UAGJABU_GUID@@PAPAX@Z 100607d0 f gtlibstg.obj
 0001:0005f829       ?WriteAt@FileLockBytes@@UAGJT_ULARGE_INTEGER@@PBXKPAK@Z 10060829 f gtlibstg.obj
 0001:0005f905       ?Flush@FileLockBytes@@UAGJXZ 10060905 f gtlibstg.obj
 0001:0005f919       ?SetSize@FileLockBytes@@UAGJT_ULARGE_INTEGER@@@Z 10060919 f gtlibstg.obj
 0001:0005f930       ?LockRegion@FileLockBytes@@UAGJT_ULARGE_INTEGER@@0K@Z 10060930 f gtlibstg.obj
 0001:0005f947       ?UnlockRegion@FileLockBytes@@UAGJT_ULARGE_INTEGER@@0K@Z 10060947 f gtlibstg.obj
 0001:0005f95b       ?Stat@FileLockBytes@@UAGJPAUtagSTATSTG@@K@Z 1006095b f gtlibstg.obj
 0001:0005f972       ??0FileLockBytesMemory@@IAE@XZ 10060972 f gtlibstg.obj
 0001:0005f9a6       ??1FileLockBytesMemory@@IAE@XZ 100609a6 f gtlibstg.obj
 0001:0005fa13       ?AddRef@FileLockBytesMemory@@UAGKXZ 10060a13 f gtlibstg.obj
 0001:0005fa31       ?Release@FileLockBytesMemory@@UAGKXZ 10060a31 f gtlibstg.obj
 0001:0005fa9a       ?ReadAt@FileLockBytesMemory@@UAGJT_ULARGE_INTEGER@@PAXKPAK@Z 10060a9a f gtlibstg.obj
 0001:0005fbc1       ?QueryInterface@FileLockBytesMemory@@UAGJABU_GUID@@PAPAX@Z 10060bc1 f gtlibstg.obj
 0001:0005fc1a       ?WriteAt@FileLockBytesMemory@@UAGJT_ULARGE_INTEGER@@PBXKPAK@Z 10060c1a f gtlibstg.obj
 0001:0005fc48       ?Flush@FileLockBytesMemory@@UAGJXZ 10060c48 f gtlibstg.obj
 0001:0005fc5c       ?SetSize@FileLockBytesMemory@@UAGJT_ULARGE_INTEGER@@@Z 10060c5c f gtlibstg.obj
 0001:0005fc73       ?LockRegion@FileLockBytesMemory@@UAGJT_ULARGE_INTEGER@@0K@Z 10060c73 f gtlibstg.obj
 0001:0005fc8a       ?UnlockRegion@FileLockBytesMemory@@UAGJT_ULARGE_INTEGER@@0K@Z 10060c8a f gtlibstg.obj
 0001:0005fc9e       ?Stat@FileLockBytesMemory@@UAGJPAUtagSTATSTG@@K@Z 10060c9e f gtlibstg.obj
 0001:0005fcc0       ??0IStorage@@QAE@XZ        10060cc0 f gtlibstg.obj
 0001:0005fcf0       ??0ILockBytes@@QAE@XZ      10060cf0 f gtlibstg.obj
 0001:0005fd20       _CoSetState@4              10060d20 f ole32:ole32.dll
 0001:0005fd30       __CRT_INIT@12              10060d30 f crtdll:crtdll.obj
 0001:0005fe50       __DllMainCRTStartup@12     10060e50 f crtdll:crtdll.obj
 0001:0005ff60       _wcslen                    10060f60 f crtdll:msvcrt.dll
 0001:0005ff66       _sprintf                   10060f66 f crtdll:msvcrt.dll
 0001:0005ff6c       __purecall                 10060f6c f crtdll:msvcrt.dll
 0001:0005ff72       _memcmp                    10060f72 f crtdll:msvcrt.dll
 0001:0005ff78       _strcat                    10060f78 f crtdll:msvcrt.dll
 0001:0005ff7e       _strcpy                    10060f7e f crtdll:msvcrt.dll
 0001:0005ff84       _memcpy                    10060f84 f crtdll:msvcrt.dll
 0001:0005ff8a       _memset                    10060f8a f crtdll:msvcrt.dll
 0001:0005ff90       _strlen                    10060f90 f crtdll:msvcrt.dll
 0001:0005ff96       __ftol                     10060f96 f crtdll:msvcrt.dll
 0001:0005ff9c       _wcschr                    10060f9c f crtdll:msvcrt.dll
 0001:0005ffa2       _wcscpy                    10060fa2 f crtdll:msvcrt.dll
 0001:0005ffa8       _wcscmp                    10060fa8 f crtdll:msvcrt.dll
 0001:0005ffae       _wcsncpy                   10060fae f crtdll:msvcrt.dll
 0001:0005ffb4       _wcsncmp                   10060fb4 f crtdll:msvcrt.dll
 0001:0005ffba       _memmove                   10060fba f crtdll:msvcrt.dll
 0001:0005ffc0       _vsprintf                  10060fc0 f crtdll:msvcrt.dll
 0001:0005ffc6       __stat                     10060fc6 f crtdll:msvcrt.dll
 0001:0005ffcc       __ultoa                    10060fcc f crtdll:msvcrt.dll
 0001:0005ffcc       _ultoa                     10060fcc f crtdll:msvcrt.dll
 0001:0005ffd2       _atoi                      10060fd2 f crtdll:msvcrt.dll
 0001:0005ffd8       _strchr                    10060fd8 f crtdll:msvcrt.dll
 0001:0005ffde       _strrchr                   10060fde f crtdll:msvcrt.dll
 0001:0005ffe4       _strcmp                    10060fe4 f crtdll:msvcrt.dll
 0001:0005ffea       _wcscat                    10060fea f crtdll:msvcrt.dll
 0001:0005fff0       _strncpy                   10060ff0 f crtdll:msvcrt.dll
 0001:0005fff6       _wcstoul                   10060ff6 f crtdll:msvcrt.dll
 0001:0005fffc       _remove                    10060ffc f crtdll:msvcrt.dll
 0001:00060002       _wcsrchr                   10061002 f crtdll:msvcrt.dll
 0001:00060010       __alloca_probe             10061010   crtdll:chkstk.obj
 0001:00060010       __chkstk                   10061010   crtdll:chkstk.obj
 0001:00060048       __except_handler3          10061048 f crtdll:exsup3.obj
 0001:00060105       __seh_longjmp_unwind@4     10061105 f crtdll:exsup3.obj
 0001:00060120       _wcsicmp                   10061120 f crtdll:msvcrt.dll
 0001:00060120       __wcsicmp                  10061120 f crtdll:msvcrt.dll
 0001:00060126       _itoa                      10061126 f crtdll:msvcrt.dll
 0001:00060126       __itoa                     10061126 f crtdll:msvcrt.dll
 0001:0006012c       __initterm                 1006112c f crtdll:msvcrt.dll
 0001:00060132       __global_unwind2           10061132 f crtdll:msvcrt.dll
 0001:0006015a       __local_unwind2            1006115a f crtdll:exsup.obj
 0001:000601b2       __NLG_Return2              100611b2   crtdll:exsup.obj
 0001:000601c2       __abnormal_termination     100611c2 f crtdll:exsup.obj
 0001:000601e5       __NLG_Notify1              100611e5 f crtdll:exsup.obj
 0001:000601ee       __NLG_Notify               100611ee f crtdll:exsup.obj
 0001:00060201       __NLG_Dispatch             10061201   crtdll:exsup.obj
 0001:00060206       _WNetGetConnectionW@12     10061206 f mpr:MPR.dll
 0001:0006020c       _WNetGetConnectionA@12     1006120c f mpr:MPR.dll
 0002:00000000       ___xc_a                    10062000   crtdll:cinitexe.obj
 0002:0000000c       ___xc_z                    1006200c   crtdll:cinitexe.obj
 0002:00000010       ___xi_a                    10062010   crtdll:cinitexe.obj
 0002:00000014       ___xi_z                    10062014   crtdll:cinitexe.obj
 0002:00000090       ??_7COleAutomationPSFactory@@6B@ 10062090   psfactry.obj
 0002:000000a8       ??_7IPSFactoryBuffer@@6B@  100620a8   psfactry.obj
 0002:000000c0       ??_7IUnknown@@6B@          100620c0   psfactry.obj
 0002:000000d0       ??_7CHolder@@6B@           100620d0   dispmrsh.obj
 0002:000000e0       ??_7CPDUnkImpl@@6B@        100620e0   dispprox.obj
 0002:000000f0       ??_7CPDProxImpl@@6B@       100620f0   dispprox.obj
 0002:00000108       ??_7IRpcProxyBuffer@@6B@   10062108   dispprox.obj
 0002:00000120       ??_7CPDDispImpl@@6B@       10062120   dispprox.obj
 0002:00000140       ??_7IDispatch@@6B@         10062140   dispprox.obj
 0002:00000160       ??_7CStubDisp@@6B@         10062160   dispstub.obj
 0002:00000188       ??_7IRpcStubBuffer@@6B@    10062188   dispstub.obj
 0002:000001b0       ??_7CPEVUnkImpl@@6B@       100621b0   evprox.obj
 0002:000001c0       ??_7CPEVProxImpl@@6B@      100621c0   evprox.obj
 0002:000001d8       ??_7CPEVEnumVARIANTImpl@@6B@ 100621d8   evprox.obj
 0002:000001f8       ??_7IEnumVARIANT@@6B@      100621f8   evprox.obj
 0002:00000218       ??_7CStubEnumVARIANT@@6B@  10062218   evstub.obj
 0002:00000240       ??_7CPTIUnkImpl@@6B@       10062240   tiprox.obj
 0002:00000250       ??_7CPTIProxImpl@@6B@      10062250   tiprox.obj
 0002:00000268       ??_7CPTITypeInfoImpl@@6B@  10062268   tiprox.obj
 0002:000002c0       ??_7ITypeInfo@@6B@         100622c0   tiprox.obj
 0002:00000318       ??_7CStubTypeInfo@@6B@     10062318   tistub.obj
 0002:00000340       ??_7CErrorInfo@@6BICreateErrorInfo@@@ 10062340   errinfo.obj
 0002:00000360       ??_7CErrorInfo@@6BIErrorInfo@@@ 10062360   errinfo.obj
 0002:00000380       ??_7IErrorInfo@@6B@        10062380   errinfo.obj
 0002:000003a0       ??_7ICreateErrorInfo@@6B@  100623a0   errinfo.obj
 0002:000003c0       ??_7CPTLibUnkImpl@@6B@     100623c0   tlprox.obj
 0002:000003d0       ??_7CPTLibProxImpl@@6B@    100623d0   tlprox.obj
 0002:000003e8       ??_7CPTLibTypeLibImpl@@6B@ 100623e8   tlprox.obj
 0002:00000420       ??_7ITypeLib@@6B@          10062420   tlprox.obj
 0002:00000458       ??_7CStubTypeLib@@6B@      10062458   tlstub.obj
 0002:00000480       ??_7CPTCompUnkImpl@@6B@    10062480   tcprox.obj
 0002:00000490       ??_7CPTCompProxImpl@@6B@   10062490   tcprox.obj
 0002:000004a8       ??_7CPTCompTypeCompImpl@@6B@ 100624a8   tcprox.obj
 0002:000004c0       ??_7ITypeComp@@6B@         100624c0   tcprox.obj
 0002:000004d8       ??_7CStubTypeComp@@6B@     100624d8   tcstub.obj
 0002:00000500       ??_7CPriv@CProxUniv@@6B@   10062500   ups.obj
 0002:00000518       ??_7CStubUniv@@6B@         10062518   ups.obj
 0002:00000540       ??_7CStreamOnBuffer@@6B@   10062540   dispstrm.obj
 0002:00000588       ??_7IStream@@6B@           10062588   dispstrm.obj
 0002:000005c0       ??_7ISequentialStream@@6B@ 100625c0   dispstrm.obj
 0002:000005f8       ??_7CDispTypeInfo@@6B@     100625f8   cdispti.obj
 0002:00000650       ??_7CStdDisp@@6B@          10062650   stddisp.obj
 0002:00000670       ??_7CStdDispUnkImpl@@6B@   10062670   stddisp.obj
 0002:00000680       _mpmmdd                    10062680   oledate.obj
 0002:00000758       _CLSID_PSDispatch          10062758   clsid.obj
 0002:00000768       _CLSID_PSEnumVARIANT       10062768   clsid.obj
 0002:00000778       _CLSID_PSTypeInfo          10062778   clsid.obj
 0002:00000788       _CLSID_PSTypeLib           10062788   clsid.obj
 0002:00000798       _CLSID_PSAutomation        10062798   clsid.obj
 0002:000007a8       _CLSID_PSTypeComp          100627a8   clsid.obj
 0002:000007b8       ?BM_cbSizeInitial@@3IB     100627b8   blkmgr.obj
 0002:000007bc       ?m_cbSizeInitial@SHEAP_MGR@@2IB 100627bc   sheapmgr.obj
 0002:000007c0       _CLSID_PSRemoteTypeInfo    100627c0   tlibguid.obj
 0002:000007d0       _CLSID_GenericTypeLibOLE   100627d0   obguid.obj
 0002:000007e0       _IID_TYPEINFO              100627e0   obguid.obj
 0002:000007f0       _IID_DYNTYPEINFO           100627f0   obguid.obj
 0002:00000800       _IID_CDefnTypeComp         10062800   obguid.obj
 0002:00000810       _IID_TYPELIB_GEN_DTINFO    10062810   obguid.obj
 0002:00000820       _CLSID_TypeLibCF           10062820   obguid.obj
 0002:00000830       _IID_IGenericTypeLibOLE    10062830   obguid.obj
 0002:00000840       ?szProtocolName@GEN_DTINFO@@2QAGA 10062840   gdtinfo.obj
 0002:00000844       ?bCurVersion@DYN_TYPEROOT@@1EB 10062844   gdtinfo.obj
 0002:00000848       ?bFirstSerByte@DYN_TYPEROOT@@1EB 10062848   gdtinfo.obj
 0002:0000084c       ?cbSizeDir@DYN_TYPEROOT@@1GB 1006284c   gdtinfo.obj
 0002:00000850       ??_7GEN_DTINFO@@6BICreateTypeInfo@@@ 10062850   gdtinfo.obj
 0002:000008b8       ??_7GEN_DTINFO@@6BDYNTYPEINFO@@@ 100628b8   gdtinfo.obj
 0002:00000980       ??_7DYN_TYPEROOT@@6B@      10062980   gdtinfo.obj
 0002:000009a0       ??_7OSTL_TI@@6BICreateTypeInfo@@@ 100629a0   gdtinfo.obj
 0002:00000a08       ??_7OSTL_TI@@6BDYNTYPEINFO@@@ 10062a08   gdtinfo.obj
 0002:00000ac0       ??_7DYNTYPEINFO@@6B@       10062ac0   gdtinfo.obj
 0002:00000b50       ??_7ICreateTypeInfo@@6B@   10062b50   gdtinfo.obj
 0002:00000bb8       ??_7TYPEINFO@@6B@          10062bb8   gdtinfo.obj
 0002:00000c24       ?wFirstSerWord@OGTOLE@@1GB 10062c24   gtlibole.obj
 0002:00000c28       ?wDefaultVersion@OGTOLE@@1GB 10062c28   gtlibole.obj
 0002:00000c2c       ?wDualVersion@OGTOLE@@1GB  10062c2c   gtlibole.obj
 0002:00000c30       ?wMaxVersion@OGTOLE@@1GB   10062c30   gtlibole.obj
 0002:00000c34       ?chMinorVerNumSep@OGTOLE@@1DB 10062c34   gtlibole.obj
 0002:00000c38       ?chLibIdSep@OGTOLE@@1GB    10062c38   gtlibole.obj
 0002:00000c3c       ?szDirStreamName@OGTOLE@@1QAGA 10062c3c   gtlibole.obj
 0002:00000c40       ?oGptbind@OGTOLE@@2IB      10062c40   gtlibole.obj
 0002:00000c48       ??_7OGTOLE@@6BICreateTypeLib@@@ 10062c48   gtlibole.obj
 0002:00000c80       ??_7OGTOLE@@6BITypeLib@@@  10062c80   gtlibole.obj
 0002:00000cc0       ??_7ICreateTypeLib@@6B@    10062cc0   gtlibole.obj
 0002:00000cf8       ??_7DOCFILE_STREAM@@6B@    10062cf8   dfstream.obj
 0002:00000d10       ??_7STREAM@@6B@            10062d10   dfstream.obj
 0002:00000d28       ??_7CReleaseAppData@@6B@   10062d28   oautil.obj
 0002:00000d34       ?oDtbind@DYN_TYPEMEMBERS@@2IB 10062d34   dtmbrs.obj
 0002:00000d38       ??_7DYN_TYPEMEMBERS@@6B@   10062d38   dtmbrs.obj
 0002:00000d50       ?wFirstSerWord@ENTRYMGR@@0GB 10062d50   entrymgr.obj
 0002:00000d54       ?cbSizeSerMem@ENTRYMGR@@0GB 10062d54   entrymgr.obj
 0002:00000d58       ?wCurFormat@ENTRYMGR@@0GB  10062d58   entrymgr.obj
 0002:00000d5c       ?oDbindnametbl@DYN_TYPEBIND@@2IB 10062d5c   dtbind.obj
 0002:00000d60       ??_7DYN_TYPEBIND@@6B@      10062d60   dtbind.obj
 0002:00000da0       ??_7DEFN_TYPEBIND@@6B@     10062da0   dtbind.obj
 0002:00000ddc       ??_7DYN_BINDNAME_TABLE@@6B@ 10062ddc   dbindtbl.obj
 0002:00000de0       ?oGbindnametbl@GENPROJ_TYPEBIND@@2IB 10062de0   gptbind.obj
 0002:00000de8       ??_7GENPROJ_TYPEBIND@@6B@  10062de8   gptbind.obj
 0002:00000e28       ??_7ODfnTCmp@@6B@          10062e28   dfntcomp.obj
 0002:00000e40       ??_7GTLibStorage@@6B@      10062e40   gtlibstg.obj
 0002:00000e88       ??_7IStorage@@6B@          10062e88   gtlibstg.obj
 0002:00000ed0       ??_7GTLibStream@@6B@       10062ed0   gtlibstg.obj
 0002:00000f08       ??_7FileLockBytes@@6B@     10062f08   gtlibstg.obj
 0002:00000f30       ??_7ILockBytes@@6B@        10062f30   gtlibstg.obj
 0002:00000f58       ??_7FileLockBytesMemory@@6B@ 10062f58   gtlibstg.obj
 0002:00000fa8       _IID_IPSFactoryBuffer      10062fa8   uuid:objidl_i_guid34.obj
 0002:00000fb8       _IID_IUnknown              10062fb8   uuid:unknwn_i_guid0.obj
 0002:00000fc8       _IID_IRpcProxyBuffer       10062fc8   uuid:objidl_i_guid32.obj
 0002:00000fd8       _IID_ITypeComp             10062fd8   uuid:oaidl_i_guid6.obj
 0002:00000fe8       _IID_ITypeLib              10062fe8   uuid:oaidl_i_guid9.obj
 0002:00000ff8       _IID_ITypeInfo             10062ff8   uuid:oaidl_i_guid7.obj
 0002:00001008       _IID_IEnumVARIANT          10063008   uuid:oaidl_i_guid5.obj
 0002:00001018       _IID_IDispatch             10063018   uuid:oaidl_i_guid4.obj
 0002:00001028       _GUID_NULL                 10063028   uuid:cguid_i_guid0.obj
 0002:00001038       _IID_IErrorInfo            10063038   uuid:oaidl_i_guid12.obj
 0002:00001048       _IID_IRpcStubBuffer        10063048   uuid:objidl_i_guid33.obj
 0002:00001058       _IID_ICreateErrorInfo      10063058   uuid:oaidl_i_guid13.obj
 0002:00001068       _IID_IStream               10063068   uuid:objidl_i_guid17.obj
 0002:00001078       _IID_ICreateTypeInfo       10063078   uuid:oaidl_i_guid0.obj
 0002:00001088       _IID_ICreateTypeLib        10063088   uuid:oaidl_i_guid2.obj
 0002:00001098       _IID_IStorage              10063098   uuid:objidl_i_guid19.obj
 0002:000010a8       _IID_ILockBytes            100630a8   uuid:objidl_i_guid22.obj
 0003:00000090       _g_fChicago                10064090   oledisp.obj
 0003:00000094       _g_fWin32s                 10064094   oledisp.obj
 0003:00000098       _g_hinstDLL                10064098   oledisp.obj
 0003:0000009c       ??_C@_0BA@MPPG@Not?5initialized?$AA@ 1006409c   oledisp.obj
 0003:000000ac       ??_C@_0CH@EIJN@W?3?2nt?2private?2oleauto?2src?2inc?2oa@ 100640ac   oledisp.obj
 0003:000001a8       ?g_cbVtSizes@@3PAEA        100641a8   dispmrsh.obj
 0003:000001c0       ?g_cbFtype@@3PAEA          100641c0   dispmrsh.obj
 0003:00000420       ?g_rgpfnUnk@@3PAPAXA       10064420   uvft.obj
 0003:00000c28       ?g_rgpfnDisp@@3PAPAXA      10064c28   uvft.obj
 0003:0000142c       ?g_cfnUnk@@3JA             1006542c   uvft.obj
 0003:00001430       ?g_cfnDisp@@3JA            10065430   uvft.obj
 0003:00001498       _g_S_OK                    10065498   invhelp.obj
 0003:0000149c       _g_E_INVALIDARG            1006549c   invhelp.obj
 0003:000015c0       _g_dpsNext                 100655c0   bstrdate.obj
 0003:000016b8       _g_fDay31th                100656b8   bstrdate.obj
 0003:00001888       _g_dblMaxPosCy             10065888   asmhelp.obj
 0003:00001890       _g_dblMaxNegCy             10065890   asmhelp.obj
 0003:00001938       ?pstrInf@@3PAGA            10065938   convertt.obj
 0003:00001940       ?pstrInd@@3PAGA            10065940   convertt.obj
 0003:00001948       ?pstrNan@@3PAGA            10065948   convertt.obj
 0003:00001a18       _g_rgfdescIdldesc          10065a18   tables.obj
 0003:00001a48       _g_rgfdescElemdesc         10065a48   tables.obj
 0003:00001a78       _g_rgfdescTypeattr         10065a78   tables.obj
 0003:00001b78       _g_rgfdescFuncdesc         10065b78   tables.obj
 0003:00001c18       _g_rgfdescVardesc          10065c18   tables.obj
 0003:00001c98       _g_fHeapChk                10065c98   debug2.obj
 0003:00001c9c       ?g_fSheapShakingOn@@3HA    10065c9c   debug2.obj
 0003:00001da0       _g_szBLKMGR_HXX            10065da0   dassert.obj
 0003:00001db0       _g_szDBLKMGR_HXX           10065db0   dassert.obj
 0003:00001dc0       _g_szCLTYPES_HXX           10065dc0   dassert.obj
 0003:00001dd0       _g_szDBINDTBL_HXX          10065dd0   dassert.obj
 0003:00001de0       _g_szDEFN_HXX              10065de0   dassert.obj
 0003:00001df0       _g_szENTRYMGR_HXX          10065df0   dassert.obj
 0003:00001e00       _g_szEXBIND_HXX            10065e00   dassert.obj
 0003:00001e10       _g_szGBINDTBL_HXX          10065e10   dassert.obj
 0003:00001e20       _g_szGDTINFO_HXX           10065e20   dassert.obj
 0003:00001e30       _g_szGPTBIND_HXX           10065e30   dassert.obj
 0003:00001e40       _g_szGTLIBOLE_HXX          10065e40   dassert.obj
 0003:00001e50       _g_szNAMMGR_HXX            10065e50   dassert.obj
 0003:00001e60       _g_szSHEAPMGR_HXX          10065e60   dassert.obj
 0003:00001e70       _g_szSTLTINFO_HXX          10065e70   dassert.obj
 0003:00001e80       _g_szTDATA_HXX             10065e80   dassert.obj
 0003:00001e90       _g_szTLIBUTIL_HXX          10065e90   dassert.obj
 0003:00001ea0       _g_szTLS_C                 10065ea0   dassert.obj
 0003:00001ea8       _g_szCTSEG_HXX             10065ea8   dassert.obj
 0003:00001eb8       _g_szBLKDSC32_HXX          10065eb8   dassert.obj
 0003:00001ec8       _g_szMACHINE_HXX           10065ec8   dassert.obj
 0003:00001ed8       _g_szMACROS_HXX            10065ed8   dassert.obj
 0003:00001ee8       _g_szBLKMGR32_HXX          10065ee8   dassert.obj
 0003:00001ef8       _g_szDBM1632_HXX           10065ef8   dassert.obj
 0003:00001f9c       ?g_fValidSheapmgrList@@3HA 10065f9c   sheapmgr.obj
 0003:00001fa0       ?g_itlsSheapmgr@@3KA       10065fa0   sheapmgr.obj
 0003:00001ff0       ?g_rgbCodePage1252@@3PAEA  10065ff0   tlibutil.obj
 0003:000020f0       ?g_rgbCodePage10000@@3PAEA 100660f0   tlibutil.obj
 0003:000021f0       ?g_rgbCodePage1250@@3PAEA  100661f0   tlibutil.obj
 0003:000022f0       ?g_rgbCodePage1251@@3PAEA  100662f0   tlibutil.obj
 0003:000023f0       ?g_rgbCodePage10029@@3PAEA 100663f0   tlibutil.obj
 0003:000024f0       ?g_rgbCodePage10007@@3PAEA 100664f0   tlibutil.obj
 0003:000025f0       ?g_rgbCodePageWGreek@@3PAEA 100665f0   tlibutil.obj
 0003:000026f0       ?g_rgbCodePageWIceland@@3PAEA 100666f0   tlibutil.obj
 0003:000027f0       ?g_rgbCodePageWTurkish@@3PAEA 100667f0   tlibutil.obj
 0003:000028f0       ?g_rgbCodePageWNorwegian@@3PAEA 100668f0   tlibutil.obj
 0003:000029f0       ?g_rgbCodePageWEngIreland@@3PAEA 100669f0   tlibutil.obj
 0003:00002af0       ?g_rgbCodePageMGreek@@3PAEA 10066af0   tlibutil.obj
 0003:00002bf0       ?g_rgbCodePageMNorwegian@@3PAEA 10066bf0   tlibutil.obj
 0003:00002cf0       ?g_rgbCodePageMEngIreland@@3PAEA 10066cf0   tlibutil.obj
 0003:00002df0       ?g_rgbCodePage1255@@3PAEA  10066df0   tlibutil.obj
 0003:00002ef0       ?g_rgbCodePage1256@@3PAEA  10066ef0   tlibutil.obj
 0003:00002ff0       ?g_rgbCodePage10004@@3PAEA 10066ff0   tlibutil.obj
 0003:000030f0       ?g_rgbCodePage10005@@3PAEA 100670f0   tlibutil.obj
 0003:000031f0       ?g_prgHashTbl@@3PAY01PAEA  100671f0   tlibutil.obj
 0003:00003268       ?m_rgJapneseExcepMap@@3PAY01GA 10067268   tlibutil.obj
 0003:00003610       ?m_rgKoreaExcepMap@@3PAY01GA 10067610   tlibutil.obj
 0003:00003710       ?m_rgChinaTExcepMap@@3PAY01GA 10067710   tlibutil.obj
 0003:00003810       ?m_rgChinaSExcepMap@@3PAY01GA 10067810   tlibutil.obj
 0003:00003910       ?g_rgbPartialBaseTbl1252@@3PAEA 10067910   tlibutil.obj
 0003:00003990       ?g_rgbPartialBaseTbl1250@@3PAEA 10067990   tlibutil.obj
 0003:00003a10       ?g_rgbPartialBaseTbl10000@@3PAEA 10067a10   tlibutil.obj
 0003:00003a90       ?g_rgbPartialBaseTbl10029@@3PAEA 10067a90   tlibutil.obj
 0003:00003b10       ?g_rgbPartialBaseTbl10007@@3PAEA 10067b10   tlibutil.obj
 0003:00003b90       ?g_rgbPartialBaseTblWTurkish@@3PAEA 10067b90   tlibutil.obj
 0003:00003c10       ?g_rgbPartialBaseTblWNorwegian@@3PAEA 10067c10   tlibutil.obj
 0003:00003c90       ?g_rgbPartialBaseTblWEngIreland@@3PAEA 10067c90   tlibutil.obj
 0003:00003d10       ?g_rgbPartialBaseTblMNorwegian@@3PAEA 10067d10   tlibutil.obj
 0003:00003d90       ?g_rgbPartialBaseTblMEngIreland@@3PAEA 10067d90   tlibutil.obj
 0003:00003e10       ?g_prgbPartialBaseTbl@@3PAY01PAEA 10067e10   tlibutil.obj
 0003:00003e68       ?g_rgbExcepTblWin1030@@3PAY01EA 10067e68   tlibutil.obj
 0003:00003e88       ?g_rgbExcepTblMac1030@@3PAY01EA 10067e88   tlibutil.obj
 0003:00003ea8       ?g_rgbExcepTblWin1034@@3PAY01EA 10067ea8   tlibutil.obj
 0003:00003eb0       ?g_rgbExcepTblMac1034@@3PAY01EA 10067eb0   tlibutil.obj
 0003:00003eb8       ?g_rgbExcepTblWin1035@@3PAY01EA 10067eb8   tlibutil.obj
 0003:00003ed8       ?g_rgbExcepTblMac1035@@3PAY01EA 10067ed8   tlibutil.obj
 0003:00003ef8       ?g_rgbExcepTblWin1038@@3PAY01EA 10067ef8   tlibutil.obj
 0003:00003f20       ?g_rgbExcepTblMac1038@@3PAY01EA 10067f20   tlibutil.obj
 0003:00003f48       ?g_rgbExcepTblWin1045@@3PAY01EA 10067f48   tlibutil.obj
 0003:00003f80       ?g_rgbExcepTblMac1045@@3PAY01EA 10067f80   tlibutil.obj
 0003:00003fb8       ?g_rgbExcepTblWin1051@@3PAY01EA 10067fb8   tlibutil.obj
 0003:00003fc8       ?g_rgbExcepTblMac1051@@3PAY01EA 10067fc8   tlibutil.obj
 0003:00003fd0       ?g_rgbExcepTblNew@@3PAY01EA 10067fd0   tlibutil.obj
 0003:00003fd8       ?g_rgLcidToExcepTbl@@3PAY01ULcidToExcep@@A 10067fd8   tlibutil.obj
 0003:00004148       ?g_fSBCS@@3HA              10068148   mbstring.obj
 0003:0000414c       ?_mbascii@@3IA             1006814c   mbstring.obj
 0003:00004150       ?g_szGuidStdole@@3PAGA     10068150   gdtinfo.obj
 0003:00004270       ??_C@_13ECNF@?$AA?5?$AA?$AA?$AA?$AH?$AA?$AA@ 10068270   nammgr.obj
 0003:000046d8       ?bFirstSerByte@IMPMGR@@0EA 100686d8   impmgr.obj
 0003:000046dc       ?bCurVersion@IMPMGR@@0EA   100686dc   impmgr.obj
 0003:00004740       ?szPlatSubkey1@@3PAGA      10068740   clutil.obj
 0003:00004744       ?szPlatSubkey2@@3PAGA      10068744   clutil.obj
 0003:00004748       ?g_rgrgcbSizeType@@3PAY0CA@DA 10068748   clutil.obj
 0003:000047a8       ?g_rgcbAlignment@@3PADA    100687a8   clutil.obj
 0003:00004830       ?g_itlsAppData@@3KA        10068830   oautil.obj
 0003:00004938       ?szProtocolName@DYN_TYPEBIND@@2PAGA 10068938   dtbind.obj
 0003:00004a00       ?szProtocolName@DEFN_TYPEBIND@@2PAGA 10068a00   dfntbind.obj
 0003:00004a04       ?szBaseName@DEFN_TYPEBIND@@2PAGA 10068a04   dfntbind.obj
 0003:00004b58       ?szDSTRMgrCxx@@3PADA       10068b58   dstrmgr.obj
 0003:00004bc0       ?szProtocolName@GENPROJ_TYPEBIND@@2PAGA 10068bc0   gptbind.obj
 0003:00004ca0       __NLG_Destination          10068ca0   crtdll:exsup.obj
 0003:00004cb0       ?g_szLoc@@3PADA            10068cb0   assert.obj
 0003:00004cb4       ?g_szMsg@@3PADA            10068cb4   assert.obj
 0003:00004db8       ?g_cbHeapAllocdMax@@3KA    10068db8   mem.obj
 0003:00004dbc       ?g_cbHeapAllocd@@3KA       10068dbc   mem.obj
 0003:00004dc0       _g_rgchLeadByteTable       10068dc0   mbstring.obj
 0003:00004ed0       ?g_AppObjectTable@@3VAppObjectTable@@A 10068ed0   oautil.obj
 0003:00004ef4       ___onexitend               10068ef4   <common>
 0003:00004ef8       ___onexitbegin             10068ef8   <common>
 0003:00004efc       __pRawDllMain              10068efc   <common>
 0004:00000000       __IMPORT_DESCRIPTOR_ole32  10069000   ole32:ole32.dll
 0004:00000014       __IMPORT_DESCRIPTOR_USER32 10069014   user32:USER32.dll
 0004:00000028       __IMPORT_DESCRIPTOR_msvcrt 10069028   crtdll:msvcrt.dll
 0004:0000003c       __IMPORT_DESCRIPTOR_KERNEL32 1006903c   kernel32:KERNEL32.dll
 0004:00000050       __IMPORT_DESCRIPTOR_ADVAPI32 10069050   advapi32:ADVAPI32.dll
 0004:00000064       __IMPORT_DESCRIPTOR_MPR    10069064   mpr:MPR.dll
 0004:00000078       __NULL_IMPORT_DESCRIPTOR   10069078   ole32:ole32.dll
 0004:000002b8       __imp__RegCreateKeyW@12    100692b8   advapi32:ADVAPI32.dll
 0004:000002bc       __imp__RegQueryValueA@16   100692bc   advapi32:ADVAPI32.dll
 0004:000002c0       __imp__RegCloseKey@4       100692c0   advapi32:ADVAPI32.dll
 0004:000002c4       __imp__RegOpenKeyA@12      100692c4   advapi32:ADVAPI32.dll
 0004:000002c8       __imp__RegCreateKeyA@12    100692c8   advapi32:ADVAPI32.dll
 0004:000002cc       __imp__RegEnumKeyA@16      100692cc   advapi32:ADVAPI32.dll
 0004:000002d0       __imp__RegQueryValueW@16   100692d0   advapi32:ADVAPI32.dll
 0004:000002d4       __imp__RegEnumKeyW@16      100692d4   advapi32:ADVAPI32.dll
 0004:000002d8       __imp__RegOpenKeyW@12      100692d8   advapi32:ADVAPI32.dll
 0004:000002dc       __imp__RegSetValueA@20     100692dc   advapi32:ADVAPI32.dll
 0004:000002e0       __imp__RegSetValueW@20     100692e0   advapi32:ADVAPI32.dll
 0004:000002e4       \177ADVAPI32_NULL_THUNK_DATA 100692e4   advapi32:ADVAPI32.dll
 0004:000002e8       __imp__GetFileSize@8       100692e8   kernel32:KERNEL32.dll
 0004:000002ec       __imp__TlsFree@4           100692ec   kernel32:KERNEL32.dll
 0004:000002f0       __imp__TlsAlloc@0          100692f0   kernel32:KERNEL32.dll
 0004:000002f4       __imp__GetSystemInfo@4     100692f4   kernel32:KERNEL32.dll
 0004:000002f8       __imp__MapViewOfFile@20    100692f8   kernel32:KERNEL32.dll
 0004:000002fc       __imp__UnmapViewOfFile@4   100692fc   kernel32:KERNEL32.dll
 0004:00000300       __imp__CloseHandle@4       10069300   kernel32:KERNEL32.dll
 0004:00000304       __imp__LoadLibraryA@4      10069304   kernel32:KERNEL32.dll
 0004:00000308       __imp__SetErrorMode@4      10069308   kernel32:KERNEL32.dll
 0004:0000030c       __imp__GetProcAddress@8    1006930c   kernel32:KERNEL32.dll
 0004:00000310       __imp__FreeLibrary@4       10069310   kernel32:KERNEL32.dll
 0004:00000314       __imp__InitializeCriticalSection@4 10069314   kernel32:KERNEL32.dll
 0004:00000318       __imp__EnterCriticalSection@4 10069318   kernel32:KERNEL32.dll
 0004:0000031c       __imp__LeaveCriticalSection@4 1006931c   kernel32:KERNEL32.dll
 0004:00000320       __imp__DeleteCriticalSection@4 10069320   kernel32:KERNEL32.dll
 0004:00000324       __imp__lstrcmpiA@8         10069324   kernel32:KERNEL32.dll
 0004:00000328       __imp___lread@12           10069328   kernel32:KERNEL32.dll
 0004:0000032c       __imp___llseek@12          1006932c   kernel32:KERNEL32.dll
 0004:00000330       __imp___lopen@8            10069330   kernel32:KERNEL32.dll
 0004:00000334       __imp___lclose@4           10069334   kernel32:KERNEL32.dll
 0004:00000338       __imp__IsDBCSLeadByte@4    10069338   kernel32:KERNEL32.dll
 0004:0000033c       __imp__GetLastError@0      1006933c   kernel32:KERNEL32.dll
 0004:00000340       __imp__OpenFile@12         10069340   kernel32:KERNEL32.dll
 0004:00000344       __imp__GetDriveTypeA@4     10069344   kernel32:KERNEL32.dll
 0004:00000348       __imp__GetDriveTypeW@4     10069348   kernel32:KERNEL32.dll
 0004:0000034c       __imp__TlsSetValue@8       1006934c   kernel32:KERNEL32.dll
 0004:00000350       __imp__IsBadReadPtr@8      10069350   kernel32:KERNEL32.dll
 0004:00000354       __imp___lwrite@12          10069354   kernel32:KERNEL32.dll
 0004:00000358       __imp__GetLocaleInfoW@16   10069358   kernel32:KERNEL32.dll
 0004:0000035c       __imp__GetStringTypeExW@20 1006935c   kernel32:KERNEL32.dll
 0004:00000360       __imp__GetStringTypeExA@20 10069360   kernel32:KERNEL32.dll
 0004:00000364       __imp__LCMapStringW@24     10069364   kernel32:KERNEL32.dll
 0004:00000368       __imp__LCMapStringA@24     10069368   kernel32:KERNEL32.dll
 0004:0000036c       __imp__CompareStringW@24   1006936c   kernel32:KERNEL32.dll
 0004:00000370       __imp__CompareStringA@24   10069370   kernel32:KERNEL32.dll
 0004:00000374       __imp__GetUserDefaultLCID@0 10069374   kernel32:KERNEL32.dll
 0004:00000378       __imp__GetProfileIntA@12   10069378   kernel32:KERNEL32.dll
 0004:0000037c       __imp__GetLocalTime@4      1006937c   kernel32:KERNEL32.dll
 0004:00000380       __imp__GetLocaleInfoA@16   10069380   kernel32:KERNEL32.dll
 0004:00000384       __imp__MultiByteToWideChar@24 10069384   kernel32:KERNEL32.dll
 0004:00000388       __imp__WideCharToMultiByte@32 10069388   kernel32:KERNEL32.dll
 0004:0000038c       __imp__TlsGetValue@4       1006938c   kernel32:KERNEL32.dll
 0004:00000390       __imp__GetVersion@0        10069390   kernel32:KERNEL32.dll
 0004:00000394       __imp__OutputDebugStringA@4 10069394   kernel32:KERNEL32.dll
 0004:00000398       __imp__DebugBreak@0        10069398   kernel32:KERNEL32.dll
 0004:0000039c       __imp__FatalAppExitA@8     1006939c   kernel32:KERNEL32.dll
 0004:000003a0       __imp__IsBadStringPtrA@8   100693a0   kernel32:KERNEL32.dll
 0004:000003a4       __imp__IsBadStringPtrW@8   100693a4   kernel32:KERNEL32.dll
 0004:000003a8       __imp__CreateFileMappingA@24 100693a8   kernel32:KERNEL32.dll
 0004:000003ac       __imp__IsBadCodePtr@4      100693ac   kernel32:KERNEL32.dll
 0004:000003b0       __imp__IsBadWritePtr@8     100693b0   kernel32:KERNEL32.dll
 0004:000003b4       \177KERNEL32_NULL_THUNK_DATA 100693b4   kernel32:KERNEL32.dll
 0004:000003b8       __imp__WNetGetConnectionA@12 100693b8   mpr:MPR.dll
 0004:000003bc       __imp__WNetGetConnectionW@12 100693bc   mpr:MPR.dll
 0004:000003c0       \177MPR_NULL_THUNK_DATA    100693c0   mpr:MPR.dll
 0004:000003c4       __imp__EndDialog@8         100693c4   user32:USER32.dll
 0004:000003c8       __imp__SetDlgItemTextA@12  100693c8   user32:USER32.dll
 0004:000003cc       __imp__DialogBoxParamA@20  100693cc   user32:USER32.dll
 0004:000003d0       __imp__IsCharAlphaA@4      100693d0   user32:USER32.dll
 0004:000003d4       __imp__IsCharAlphaW@4      100693d4   user32:USER32.dll
 0004:000003d8       __imp__IsCharAlphaNumericA@4 100693d8   user32:USER32.dll
 0004:000003dc       __imp__IsCharAlphaNumericW@4 100693dc   user32:USER32.dll
 0004:000003e0       __imp__MessageBoxA@16      100693e0   user32:USER32.dll
 0004:000003e4       \177USER32_NULL_THUNK_DATA 100693e4   user32:USER32.dll
 0004:000003e8       __imp__strncpy             100693e8   crtdll:msvcrt.dll
 0004:000003ec       __imp__wcscat              100693ec   crtdll:msvcrt.dll
 0004:000003f0       __imp__remove              100693f0   crtdll:msvcrt.dll
 0004:000003f4       __imp__strcmp              100693f4   crtdll:msvcrt.dll
 0004:000003f8       __imp__strrchr             100693f8   crtdll:msvcrt.dll
 0004:000003fc       __imp__strchr              100693fc   crtdll:msvcrt.dll
 0004:00000400       __imp__atoi                10069400   crtdll:msvcrt.dll
 0004:00000404       __imp___ultoa              10069404   crtdll:msvcrt.dll
 0004:00000408       __imp___stat               10069408   crtdll:msvcrt.dll
 0004:0000040c       __imp__vsprintf            1006940c   crtdll:msvcrt.dll
 0004:00000410       __imp__memmove             10069410   crtdll:msvcrt.dll
 0004:00000414       __imp__wcsncmp             10069414   crtdll:msvcrt.dll
 0004:00000418       __imp__towlower            10069418   crtdll:msvcrt.dll
 0004:0000041c       __imp__wcsncpy             1006941c   crtdll:msvcrt.dll
 0004:00000420       __imp__modf                10069420   crtdll:msvcrt.dll
 0004:00000424       __imp___errno              10069424   crtdll:msvcrt.dll
 0004:00000428       __imp____p___mb_cur_max    10069428   crtdll:msvcrt.dll
 0004:0000042c       __imp___stricmp            1006942c   crtdll:msvcrt.dll
 0004:0000042c       __imp__stricmp             1006942c   crtdll:msvcrt.dll
 0004:00000430       __imp__wcsrchr             10069430   crtdll:msvcrt.dll
 0004:00000434       __imp__wcscmp              10069434   crtdll:msvcrt.dll
 0004:00000438       __imp__wcscpy              10069438   crtdll:msvcrt.dll
 0004:0000043c       __imp__wcschr              1006943c   crtdll:msvcrt.dll
 0004:00000440       __imp__wcstod              10069440   crtdll:msvcrt.dll
 0004:00000444       __imp___gcvt               10069444   crtdll:msvcrt.dll
 0004:00000448       __imp__floor               10069448   crtdll:msvcrt.dll
 0004:0000044c       __imp___ftol               1006944c   crtdll:msvcrt.dll
 0004:00000450       __imp__strlen              10069450   crtdll:msvcrt.dll
 0004:00000454       __imp__strtoul             10069454   crtdll:msvcrt.dll
 0004:00000458       __imp__memset              10069458   crtdll:msvcrt.dll
 0004:0000045c       __imp__memcpy              1006945c   crtdll:msvcrt.dll
 0004:00000460       __imp__strcpy              10069460   crtdll:msvcrt.dll
 0004:00000464       __imp__strcat              10069464   crtdll:msvcrt.dll
 0004:00000468       __imp__memcmp              10069468   crtdll:msvcrt.dll
 0004:0000046c       __imp___purecall           1006946c   crtdll:msvcrt.dll
 0004:00000470       __imp__sprintf             10069470   crtdll:msvcrt.dll
 0004:00000474       __imp__wcslen              10069474   crtdll:msvcrt.dll
 0004:00000478       __imp___wcsicmp            10069478   crtdll:msvcrt.dll
 0004:00000478       __imp__wcsicmp             10069478   crtdll:msvcrt.dll
 0004:0000047c       __imp__malloc              1006947c   crtdll:msvcrt.dll
 0004:00000480       __imp___initterm           10069480   crtdll:msvcrt.dll
 0004:00000484       __imp___itoa               10069484   crtdll:msvcrt.dll
 0004:00000488       __imp___isctype            10069488   crtdll:msvcrt.dll
 0004:0000048c       __imp____p__pctype         1006948c   crtdll:msvcrt.dll
 0004:00000490       __imp__free                10069490   crtdll:msvcrt.dll
 0004:00000494       __imp__wcstoul             10069494   crtdll:msvcrt.dll
 0004:00000498       __imp___global_unwind2     10069498   crtdll:msvcrt.dll
 0004:0000049c       \177msvcrt_NULL_THUNK_DATA 1006949c   crtdll:msvcrt.dll
 0004:000004a0       __imp__CoCreateInstance@20 100694a0   ole32:ole32.dll
 0004:000004a4       __imp__WriteClassStg@8     100694a4   ole32:ole32.dll
 0004:000004a8       __imp__WriteFmtUserTypeStg@12 100694a8   ole32:ole32.dll
 0004:000004ac       __imp__ReadClassStg@8      100694ac   ole32:ole32.dll
 0004:000004b0       __imp__StringFromGUID2@12  100694b0   ole32:ole32.dll
 0004:000004b4       __imp__CreateBindCtx@8     100694b4   ole32:ole32.dll
 0004:000004b8       __imp__MkParseDisplayName@16 100694b8   ole32:ole32.dll
 0004:000004bc       __imp__CoSetState@4        100694bc   ole32:ole32.dll
 0004:000004c0       __imp__GetRunningObjectTable@8 100694c0   ole32:ole32.dll
 0004:000004c4       __imp__StringFromCLSID@8   100694c4   ole32:ole32.dll
 0004:000004c8       __imp__CreateFileMoniker@8 100694c8   ole32:ole32.dll
 0004:000004cc       __imp__CoGetMalloc@8       100694cc   ole32:ole32.dll
 0004:000004d0       __imp__CoUnmarshalInterface@12 100694d0   ole32:ole32.dll
 0004:000004d4       __imp__CoMarshalInterface@24 100694d4   ole32:ole32.dll
 0004:000004d8       __imp__CoUnmarshalHresult@8 100694d8   ole32:ole32.dll
 0004:000004dc       __imp__CoMarshalHresult@8  100694dc   ole32:ole32.dll
 0004:000004e0       \177ole32_NULL_THUNK_DATA  100694e0   ole32:ole32.dll

 entry point at        0001:0005fe50

 Static symbols

 0001:00046480       _$E35                      10047480 f oautil.obj
 0001:00046495       _$E34                      10047495 f oautil.obj
 0001:0004655d       _$E38                      1004755d f oautil.obj
 0001:00046572       _$E37                      10047572 f oautil.obj
 0001:00045da7       ?SkipVolumeName@@YAPAGPAG@Z 10046da7 f clutil.obj
 0001:00045e51       ?StripDirsFromEnd@@YAPAGPAGI@Z 10046e51 f clutil.obj
 0001:0003986c       ?FFullyQualified@@YAHPBG@Z 1003a86c f gtlibole.obj
 0001:0003a6de       ?RegisterPathAndAlias@@YAJPAUHKEY__@@PAG@Z 1003b6de f gtlibole.obj
 0001:00020829       _$$$00013@0                10021829 f oleconva.obj
 0001:000163e3       _$$$00003                  100173e3 f invoke.obj
 0001:0000ce2e       ?HrDupBstr@@YAJPAGPAPAG@Z  1000de2e f errinfo.obj
 0001:00060138       __unwind_handler           10061138 f crtdll:exsup.obj

FIXUPS: 1591 87 fffffac9 2a 3c 5ff5c d 11 2f 25 fffffcb3 103 1e 28 fffa0bb3
FIXUPS: 1adc 19 18 19 18 18 2c 1c 19 1c 4e 23 23 23 23 23 39 1a 46 15 11
FIXUPS: 1e70 40 61 40 fffff5b8 f a f 5 56 39a3 8a 7c 94 b9 18 206 13 ffffc299
FIXUPS: 1664 46 26 8e 45 18 19 14 19 14 19 14 19 14 18 2c 18 19 1c 15e
FIXUPS: 1a7a 19 18 25a8 1c 51 11 6d 30 92 8f 6d f7 7c ae 2e 38 f7 ad 74
FIXUPS: 48d1 67 4e c 2e 50 af 30 8c 36 df d0 30 8c 34 ffffe698 83 32 32
FIXUPS: 369f 32 32 7f 140 31 31 30 9 9 db 7a 31 31 29 7f 10 9 9 1eb 1e
FIXUPS: 3e0c 4d 73 76 73 62 1e ffffeb85 15 1a 1a 1a 1a 21 3a 63 60 137
FIXUPS: 2f90 33 2c 14 16 14 18 15 17 5c 64 5c 98 38 1c 85 19 19 17 4d 20
FIXUPS: 6a40 2f ffffb51f 85 41 66 100 18 5c 4a 1a 66 307 33 54 1e 18 17
FIXUPS: 26ed 1c 1a 1c 19 5b 53 3e 40 155 146 33 34 1c 2dde e8 39 27 82
FIXUPS: 5c13 23 39 27 ed 4f 82 119 30 1ae b3 e8 ff 21 a5 27 185 86 3f 9c
FIXUPS: 681c 45 3e 107 2a 13 2d 11d2 9b 27 41 1b 1b 1b 14 71 32 b3 30 13
FIXUPS: 7f10 13 ffffd4c1 f f 63 b 8 15 20 4b 54 37 3a 1e bb 35 199 f5 164a
FIXUPS: 70bf 2d a0 73 51 65 c7 b4 29 24 130 2d 5b 6e 58 9e 59 144 60 29
FIXUPS: 79dd 50 2c 21 2f f f 66 24 47 26 4f9 bb 35 176 127 27 eb cd a6
FIXUPS: 86f0 b3 7d 27 82 78 27 85 49 6a 13 35 28 ffffdfa0 73 1a 18 95 26
FIXUPS: 6ca9 4f 14e 11e 1cd4 26 99 4f 135 52 56 c2 56 1a bd 73 41 39 3e
FIXUPS: 9264 41 18 18 18 6d 32 b4 13 ffffeb01 f f 38 1c 4b 35 37 375f 2b
FIXUPS: b82c 5f 36 99 e4 72 17e 3f 4b 3f 5f 5e 57 3d 55 5d 36 40 af 33
FIXUPS: c07f 25 ac 13 35 28 ffffc980 52 1a 18 20f8 27 125 b0 40 11 40 33
FIXUPS: aff9 27 b6 49 b2 27 b6 48 a4 27 85 80 7d a8 17 3d 57 1d f 15 1e
FIXUPS: b716 15 1e ffffe56f 27 f4 6f 32 9e 27 f4 6f 32 df 27 125 104 82
FIXUPS: a509 27 b9 da 27 b9 1bd 27 ee b0 31 31 52 20 20 1d 9 2aa5 9 be
FIXUPS: d801 b4 55 83 6f 4f 55 13 ffffb9d1 f f 38 1c 4b 35 37 3a bb 35
FIXUPS: 984d d6 27 bd 6f 32 99 27 85 49 2998 10 10 10 10 b1 3c f6 93 98
FIXUPS: c972 f1 93 10a 93 12b 6a f1 69 1a c0 fd 170 ca 34 34 4a 9 9 145
FIXUPS: d666 34 b8d 65 27 6d 30 30 13 2c 3b 16 1a 1c 10 10 ffffdd8a 5c
FIXUPS: c266 18 74 26 99 4f e5 27 42 10 10 10 10 10 10 10 15e3 1a 18 5e
FIXUPS: dc57 26 a7 38 32 5f 2e 37 e 2a 2b 2e 23 2e 23 4b 66 1e 1a 27 1e
FIXUPS: e09f 27 1e 1a 5b 1b 8c 1590 96 41 41 9d 13 13 8e 27 8d 31 56 7f
FIXUPS: fc21 27 fd 31 56 8a 6e a4 75 42 27 3ba 13 35 28 ffffd670 b 9e c
FIXUPS: e838 2c b6 35 111 71 e3 27 eb 59 27 bc 49 87 27 bc e0 27 b6 49
FIXUPS: f242 27 85 3e 2e 28 7f 27 85 49 97 27 1891 ae 4c 257 9f 44 44 29
FIXUPS: 112ef 9 ac 63 7d e0 31 32 74 27 102 41 4e 37 c 12a 13 ffffcda1
FIXUPS: e723 f 38 1c 4b 3e 3f01 13 35 28 ffffdd20 66 1a 18 74 26 99 4f
FIXUPS: 1079f 27 42 10 10 10 10 10 10 10 10 10 89 3c 158 4c e9 11f 4c a9
FIXUPS: 11a9f 29 2c b6 35 111 71 156 27 be 31 56 98 35 2f 1b 35 2f 2f 33
FIXUPS: 12247 13 9 f0 27 8d 31 56 49 6a 7b 27 3e7 e5 27 42 10 10 68 3c
FIXUPS: 12cf4 6f 9b 32 39 32 37 33 70 35 76 b1 67 27 4c 22 113 13 ffffe6b1
FIXUPS: 119b3 f 38 1c 4b 3cd8 3f 163 4e 83 45 73 4f 72 12 e 4a d4 15 180
FIXUPS: 15e77 103 1a1 68 9d 30 13 5d 30 13 ffffc4ad 66 1a 18 74 26 99 2246
FIXUPS: 14bf3 32 32 13 39 79 52 2d0 1e 3e 26 2c f 2c f b7 69 45 3c 70 3e
FIXUPS: 153ef 4d 35 3d 35 3d bb 79 ad 20 ffffe56a 34 3a 73 c 2f 1c2 63
FIXUPS: 14003 8b 6c 2d 7e 62 196 164 5e 67 35 63 82 38 87 91 1a 18 90 26
FIXUPS: 149b1 52 d0 29 2314 2e 1d 1c fffff535 34 3c 48 ffffcebf 13 156
FIXUPS: 135f7 31 27 1c 104 44 f 9c 9b 81 30 1c 95 56 a3 19 20 13 5a 2c
FIXUPS: 13c5c 616e 18 26 c3 1b 38 3c ffffe84c ffffe783 3a 38 fffff4f5 7c
FIXUPS: 165dc 26 af 4c 20 36 23 d6 23 25d 1f ab 55 3b 8c 1f 33 39 a3 2663
FIXUPS: 19488 57 f 16 25 19 31 90 16 48 5b 2c 2b 79 1b 18 57 18 74 52 88
FIXUPS: 19ab9 8a 1d 28 28 18 32 36 bc ae ffffea4a 7a 48 3e 32 94 2c a1
FIXUPS: 18c3a 30 4a 106 18 82 43 12 55 6f e7 af c1 40 6f 5a 26 47 18 30
FIXUPS: 1939a 25 3a 2f 13bd 3e 2e 2c 8e 57 94 53 79 43 3f a 74 8b 5d fffff904
FIXUPS: 1a5dc 82 fffff9c9 23 f 6c 18 88 35 32 d4 123 2d 20 40 ffffe37c
FIXUPS: 1bb28 35 9 9 41 19 2a 19 3d 94 7f 63 4f 43 103 3e 2e 3e cf 36 13
FIXUPS: 1c15f 3e 2e 50 26 ea 36 13 173 ffffe243 2c abb 1b 1e 4f 24 30 6c
FIXUPS: 1b397 34 3f 54 37 8a 29 1e 32 be 84 20 2f 69 42 76 c 26 26 26 1e
FIXUPS: 1b947 169 46 c 5583 ac 2b 60 18 52 19 40 52 a6 97 47 15 27 a2 ffffb86f
FIXUPS: 1cdba 54 fffffbec 31 e ffffe2d9 29 48 1b 20 5d 17d 8e 2e 6c f2
FIXUPS: 20534 60 1a 23 21 51 20 20 1c 20 20 1c 20 20 18c 9f 26 69 14f 14
FIXUPS: 20b83 55 89 14 2b 21 47 58 2b 7a 1f 2b fffff18c 3e 1d 2d 1d 2f
FIXUPS: 200de 3e 1d 2d 1d 2f 2f 52 3c 36 1d 2d 1d 2d 1d 3e 1d 2d 1d 2d
FIXUPS: 20445 3e 1d 2d 1d 2d ffffecf6 7e 2c 67 22 61 24 87 1f 56 16d 1d
FIXUPS: 1f6a6 1e 3f be 10c 6f 231 27 2b 72 d9 68 16 36 122 36 1d 2d 1d
FIXUPS: 1ffac ffffe761 59 1f 48 2c 80 2e 6d 43 31 31 2f 23 1d 31 23 1d
FIXUPS: 1ead9 1a2 ac ac ac ac be 46 25 2c 93 3d 19 78 13 ffffe224 38 191
FIXUPS: 1d65f ba db 19 119 33 68 28 26 4c b6 a7 b0 cc 36 28 19 124 33 68
FIXUPS: 1df92 4c 79 a7 1ac 102 9c 127 102 49c6 21 22 21 21 25 25 27 1a5
FIXUPS: 232f3 1c9 ffff9a1c 1b 6e 2a 39 29 43 e3 56 16 1f 57 1e 2a 5b 3a
FIXUPS: 1d2eb 34 31 4e 2c 53a3 a7 1b 1b 1f 21 26 ba 2d 1f 21 21 ba 4e 21
FIXUPS: 22b42 c1 66 21 c6 1c 1b 1b 1f 21 d9 2b 2a 24 18 21 21 ffffec0d
FIXUPS: 21c16 a7 6a 37 42 3b 2c 101 1a 6e 123 3f bf 5a 27 82 27 a9 3b 2c
FIXUPS: 22411 2c 13 ed 80 fd 1b 1b 1f 21 1c 3450 12 ff 25 dd 2d 407 1b
FIXUPS: 263d7 28a 32 18 31 2e 44 28 36 16 22 1a 219 56 296 16b 1a 1ab 5e
FIXUPS: 270bc 29 f0 ffffa97e 11 33f0 3a b0 10 9 11 4e 4b 43 58 39 13 37
FIXUPS: 25267 2af 2b d 4c 2a d 3d 2e f9 16 49 144 f2 78 78 48 36 30 ffffedf1
FIXUPS: 2498e 3f 2a 3e 29 41 3a 44 d 52 28 3f 1f 1f 1f 1f 23 1f 3d e 19
FIXUPS: 24d41 41 2a 34 d 7b 42 2e 11 51 fffff00e 23 3d 22 19 dd 15 ae 1e
FIXUPS: 241bf 11 30 4f e8 96 23 3d 1a 1e 2e 8b 64 66 29 19 db 39 23 36
FIXUPS: 2483f 100 9 ffffec67 156 78 39 19 da 49 11 2b b2 43 37 1a 29 46
FIXUPS: 23afd 2e a4 43 35 23 5b 22 19 a1 50 c 11 2b 74 24 43 55c7 10 18
FIXUPS: 29550 17 109 17 10 29 17 1d 7 65 13 ffffe55a 3c 31 78 89 20 fffffbdc
FIXUPS: 27ab3 15d fffff89d 1f a4 9 cb 84 79 9 ffffbde4 5acc 22 50 43 39
FIXUPS: 29122 56 18 1f 18 67 14 4e 17 13 f 7 b 18 d 17 79 20 17 10 29 17
FIXUPS: 29427 29 17 4d 10 fffff70a 8 8 17 47 10 17 17 21 3f 47 10 17 10
FIXUPS: 28d7d 2d 21 26 10 36 b b 15 1d 1e 37 1a 5e 17 57 21 14 fffff782
FIXUPS: 28781 1a 55 1d 25 23 18 15 1c 9 21 24 1e 36 10 17 31 14 13 2b 4c
FIXUPS: 28a7d 14 1f 1e 14 6d 17 31 10 17 fffff592 10 17 14 47 2a a 11 47
FIXUPS: 2828b 74 28 4f 4a 1a 22 82 33 26 24 2f 4b 18 50 27 33 32 5b 19
FIXUPS: 2870e 14 26 1253 92 12 14 4a 35 27 1c 1b 5f 12 75 fffffb8e 24 47
FIXUPS: 29834 c ffffe655 2e 18 21 50 45 20 23 68 14 44 17 3b 15 24 23e6
FIXUPS: 2a51c 1f 38 11 17 2b 17 27 3a 4c e 2d 48 34 17 14 29 14 23 31 17
FIXUPS: 2a824 f 19 3e b 38 58 6c ffffefdd 12 438 1e 6c 1e 4e 86 2f 23 1b
FIXUPS: 29fb3 41 3c 2c 5d 1a 29 31 a4 24 f 2a 18 4b 34 24 67 2f 2e 7d 39
FIXUPS: 2a4d0 10 12c1 6f 99 8e 20 3b 11 18 63 b 50 2f 45 52 ffffeef1 20
FIXUPS: 2aa7f 1c 2f4 7e 34 b4 6a 35 b2 ffffec68 18 58 e 18 11 2d 99b9 7
FIXUPS: 3377a 6a 21 1a 27 7 89 10 10 ffff827a 7c 21 3e 192 21 3e 150 89
FIXUPS: 2b40b 4c 46 2e 57 11 18 26 9d be 2b 1b 7c16 17 18 29 10 7 11 17
FIXUPS: 333db 17 13 37 27 40 41 17 29 7 49 7 59 17 14 7 5e 21 21 1a 1e
FIXUPS: 336f2 24 10 ffffec61 41 2b 23 13 ad 14 6c 14 3c aa b 545 13 2d
FIXUPS: 32c10 30 74 41 6f 1ef 30 110 9d 10 90 90 40 13 4d 10 7 ffffe8ec
FIXUPS: 31c20 7a 77 7 36 4c 7 27 7 41 13 2d 13 5d 40 84 8c 58 28 17 10
FIXUPS: 320d4 14 14b 71 18 e 22 13 13 5e fffff1bd 20 b 16 16 10 67 1c 1c
FIXUPS: 31667 4c 7 2e 13 1d 57 13 7 2b 30 1c 93 77 7 34 49 33 5b 7f e1
FIXUPS: 31b83 6d fffff52e 3e 89 48 3a 4c 4d 18 13 7 b 7 d 3b 13 51 10 d
FIXUPS: 31414 7 17 2a 7 11 1e 25 6 20 7 25 7 15 fffff4ab 21 2e 14 5f 10
FIXUPS: 30ae0 13 c 7 65 60 40 22 3f 7 10 7 43 11 6c 3a 1af 2c 1f 9 5b 1d
FIXUPS: 3103a 6b 21 1d fffff264 23 80 38 30 18 2b 74 3f a0 1a 3d 59 19
FIXUPS: 306d2 2f 28 2f b3 2a 7 10 7 d 6b 2c 28 7 7 18 21 26 fffff50b 8
FIXUPS: 2fea6 17 10 7 18 18 18 30 40 23 15 b 20 7 56 2c 18 39 18 42 18
FIXUPS: 3017e 23 80 2b 18 2b 18 42 18 fffff4b9 18 13 1e 7 11 1f 7 40 8c
FIXUPS: 2fa67 7 17 16 7 7 7 29 83 b b4 135 c 1f c 70 56 11 7 10 7 8 fffff4ad
FIXUPS: 2f338 20 1d 50 7 24 8 34 21 24 2d 2d 29 b 2b 4e 7 38 46 25 7 b
FIXUPS: 2f657 4b 7 20 4b 7 5c 1d 13 fffff580 d 1f 9 32 35 17 7 22 39 7
FIXUPS: 2ee6c 2b 7 58 46 1d 2a 9 c5 84 7 da 4f 7 20 46 25 7 b 23 1d fffff631
FIXUPS: 2e926 7 22 21 c 7 23 21 c 7 20 39 13 7 19 7 37 2e 13 8d 6e 13 7
FIXUPS: 2ec33 13 7 b 42 7 40 22 fffff770 30 13 21 1e 46 17 9 19 53 59 27
FIXUPS: 2e678 6a 3c 19 9 7 8 14 21 11 3f 25 7 28 7 b 11 2a 49 3b fffff5e8
FIXUPS: 2df24 1e 69 17 10 2c 49 57 7 14 7 17 6c 7 29 7 9 19 7 29 7 9 7a
FIXUPS: 2e38d 4b 24 25 7 28 7 b fffff47c 42 4c 7 18 7 17 5f 87 44 7 1a
FIXUPS: 2db0b 20 15 4f 7 28 26 7 ab 7 2d 23 46 31 67 7 18 7 17 5f fffff46d
FIXUPS: 2d307 9b f f 13 9 7 8 5b 54 57 b 46 12 9 9 87 1e 2b 37 26 3e 57
FIXUPS: 2d738 10 6d 44 22 33 71 18 fffff660 7 1f a 14 4f 10 7 11 3a b 12
FIXUPS: 2d05e 9 4f 7 23 7 1f 7 17 10 7 a b 4a 51 1d 29 11 38 4a fffff8d1
FIXUPS: 2cb9e 7 40 7a 9b 17 10 7 d 18 20 22 22 9 8 9 8 b 3b b 13 b 1e f
FIXUPS: 2ce7b 38 1f d 11 7 37 fffff720 36 7 17 29 4c 76 12 26 15 11 8 70
FIXUPS: 2c888 18 13 2b 18 35 2d 2f 9 35 10 1e 37 4c 29 57 14 3a 32 a81a
FIXUPS: 373a0 14 6c 14 10 2c 10 10 14 ffff4cb7 10 34 11 7 51 52 51 64 14
FIXUPS: 2c375 2d 1f 5d 3e 7 30 7 29 7 9 7a a493 a0 123 10d 17 17c 13 27
FIXUPS: 36e88 11 6a 42 13 24 34 10 7 39 10 7 3c 2d d4 34 30 2e 32 a8 10
FIXUPS: 372e4 10 8c ffffeb20 12 9 b 30 28 26 b6 b6 7a 25 16b 31 7f 8d 1e
FIXUPS: 3641e 34 6f 45 156 48 1a 54 11 16 36 3e 64 1a d5 70 ffffef08 17
FIXUPS: 3589a e 1d 10 21 13 48 3b 48 d b 10 16 17 11 1f 3f 3e 21 4a 5c
FIXUPS: 35c3e 3c 3a 4b 32 28 c9 47 27 ffffef6b 1d 10 9 1f 63 e 11 1d d
FIXUPS: 34f30 6e 50 e 11 2b d 3e 25 42 63 f 53 c4 9 15b 98 22d 4b 15 aa
FIXUPS: 3586a fffff14d 25 7 28 18 10 10 18 17 8b 25 b 30 10 9 49 e 11 2b
FIXUPS: 34c16 19 3e 28 45 68 2a c 18 b 1a 1e 10 fffff207 e8 127 f4 12a
FIXUPS: 34466 65 c2 2d c 37 18 10 1d 31 fb 43 18 1e b b 80 2d 16 1e 7 25
FIXUPS: 34911 3d 2b 19 1e fffff2fc 11 7 b 17 10 1c b 2e b e 4a 16 7 1e
FIXUPS: 33df6 9 11 17 13 15 7 7b 16 d 9 11 17 13 15 7 86 3a56 9 107 1c
FIXUPS: 37b80 28 3c 16 10 ffffbd06 3a 71 b 12 20 43 46 c 2a 2b 7 1d 13
FIXUPS: 33b24 11 e 2a 1f 12 55 58 b 555e ffffe33c 7 38 23 10 1a 12 7 28
FIXUPS: 375c5 9 21 34 34 34 54 34 4f 73 10 40 1f 10 59 8 9 71 d 1c 15 41
FIXUPS: 38c1d 2e 1c 11 f a6 4f f 6 85 10 4e 14 f 32 9 39 17 3e 19 f c f
FIXUPS: 38ff1 15 64 2a 1c 17 2d b1 9 fffff65c 7 9 7 6 21 20 5b 27 2f 1c
FIXUPS: 38944 32 e 22 27 c c 9 43 c c f 48 57 34 c f 44 9 33 1d fffff854
FIXUPS: 3848d c 7 9 7 6 21 23 35 b 33 c 7 9 7 6 27 1b 17 11 1d 29 2a 13
FIXUPS: 38716 44 c c f 2d 2f fffff87f 26 24 1c 14 17 20 11 c 23 22 23 22
FIXUPS: 381f5 23 3c 1a 2d 7 9 7 6 20 27 13 1c f f 1b 56 e 2d 98e2 39 34
FIXUPS: 41db6 10 10 ffff5e5a 44 10 3e 18 2c 4c 13 46 4b 35 8 3a 1c 1c 1f
FIXUPS: 37ee8 c 27 26 4d 1c 1e 3b 27 26 9684 9 17 14 4c 9 17 14 2f 2c ee
FIXUPS: 418fc 38 52 2a 10 f 77 2a 14 f 3e c 87 c c c c 8d 6 14 8b fffff46f
FIXUPS: 41175 13 1d 13 12 26 13 2d 30 17 10 29 17 39 17 10 29 17 24 fb
FIXUPS: 41496 41 1a 3e 45 9 17 14 39 c c1 fffff3fa 1b c4 16 17 38 53 bc
FIXUPS: 40d33 55 98 1c 1e 23 14 8 c 25 19 21 36 56 23 c 48 11 26 54 12
FIXUPS: 410b3 18 43 fffff554 7 7 24 24 12 2e 1b 16 1a 14 12 1c 15 1c 69
FIXUPS: 40828 1e b 2f 22 37 2e 26 20 21 10 b 39 75 20 32 fffff4b7 21 32
FIXUPS: 3ffb5 43 26 27 3a 43 1b 26 26 3e 62 29 6f 4f 29 25 4b 2f 15d e
FIXUPS: 404f3 15 37 8a 48 1f 10 10 b fffff40c 36 20 11 6 e 25 c c 9 18
FIXUPS: 3fb7b 17 33 21 17 53 d 2a 29 2d 2d 2d 29 2a 29 30 28 2a 2a 84 47
FIXUPS: 3f67f 47 3c 24 1f 2f 35 21 34 23 c 18 8 12 12 8 34 32 8 4b 13 c
FIXUPS: 3f963 f 18 1b 11 f e 48 1e 28 fffff6da 24 2b 24 2b 24 24 24 29
FIXUPS: 3f292 45 27 41 26 29 24 24 24 24 24 4d 37 24 2d 50 37 1d 16 28
FIXUPS: 3f625 10 f fffff426 13 17 16 20 16 2c 84 a2 22 c 3f 9 42 17 c c
FIXUPS: 3ed74 5a 3d 9 75 2e 55 30 30 f3 1f 1b 51 8 21 fffff33f 37 37 8
FIXUPS: 3e4e5 59 80 1a 30 13 3f 69 21 6a 98 12 f 29 37 5c 10 21 f 36 10
FIXUPS: 3e96c 16 48 e 31 f 43 fffff4b7 12 43 19 2c 1b 95 1d b f 31 14 2c
FIXUPS: 3e12c 2a 45 53 62 6f 14 2f 1d 27 7 2e 7 3b 10 1d 10 3a 16 fffff631
FIXUPS: 3da94 1b 44 53 2a 22 f 2b 5b 46 21 f 39 16 6 1a 21 2c f 3b e 18
FIXUPS: 3de09 2f 23 18 a 1b 23 1c 25 fffff6ff 13 23 44 21 1e 1f 10 23 10
FIXUPS: 3d73f 12 9 7 b 17 10 18 9 7 e a7 10 20 18 3f 10 c2 1d 1e 13 3b
FIXUPS: 3d17e 25 15 e 35 16 1b 22 35 1a 14 5f 8 34 27 22 20 26 1c 18 21
FIXUPS: 3d43f 28 17 b 7b 24 f 68 b 19 1b fffff676 4e 74 9 7f 1a 9 23 18
FIXUPS: 3ce08 c 12 25 1a c 13 2e 35 24 1d 8 c ac 86 27 23 18 f 20 22 2f
FIXUPS: 3d15b fffff4ad 1f 24 9 6 f 2b 22 29 61 1f 24 9 6 f 2b 4d 18 44
FIXUPS: 3c952 23 12 2d 73 2a 4e 3b 47 3d 40 29 50 fffff44f b 1d fa 4e 12
FIXUPS: 3c201 25 6 28 d 1e 16 d 11 47 2d 3b 71 23 1d c 2d 1c 29 f 1c 33
FIXUPS: 3c507 6b 9 9 fffff796 4a 29 57 7 36 30 16 8 14 8 23 4f 16 51 16
FIXUPS: 3bf82 14 8 7 c 8 6 f 8 c 9 f 37 e e e fffff4db 23 5e 58 37 ad 16
FIXUPS: 3b741 a6 34 42 17 26 28 27 27 23 34 18 ba 26 41 19 86 b b b e e
FIXUPS: 3bb8a e 15d ffffefcb 63 6f 1d 6b c8 40 31 1b 11 39 17 64 5c 2e
FIXUPS: 3b0ee f 1c 42 14 2d 26 36 1a 32 53 50 185 22 16 30 31 fffff208
FIXUPS: 3a728 19 2f 10 34 1f 36 11 2a 4c b4 8 4b 14 7 24 14 7 16 4f 31
FIXUPS: 3aab5 44 43 23 1f 24 7 30 2a 4d fffff13b 1b 5f 2c 2c 41 2c 37 43
FIXUPS: 39f70 48 3b 8d 9a d4 73 14d 1f d2 23 1c 14 f 19 34 2c 1c 12 83
FIXUPS: 3a6b4 11 1b ffffee04 f 13 e2 27 29 2d 53 45 58 36 9a 36 26 39 2c
FIXUPS: 3993a 3e 2a 2b 8f 1d 1a 29 3c 35 2e 60 64 41 82 29 8377 94 54 2e
FIXUPS: 421b9 2e 65 2e 2b 2e 2c 44 4c 20 c3 fb 3c 50 92 7e 25 b4 9 ffff6a0f
FIXUPS: 39223 3e 22 26 b4 22 65 95 9864 1a 47 1a 11 6 11 11 24 27 24 38
FIXUPS: 42e49 a 1f 4f 21 1e 1d 21 1e 6 17 11 15 fb ffffed98 44 2d 2f 18
FIXUPS: 41f2a 2ae5 38 2c ffffddf3 57 1c 29 18 25 1e 2d 94 70 18 10 d 7
FIXUPS: 42ad3 9 12 1b b 16 24 16 12 1b 42 39 31 14 1f 181e 13 17 10 14
FIXUPS: 444f8 23 32 e 30 13 17 13 17 17 17 10 14 1f 6b 18 2c 2f 3f 43 2b
FIXUPS: 44806 2e 4f 30 30 121 fffff707 1d b 2c 11 54 23 25 4d 24 23 23
FIXUPS: 44304 7 e b 8 b e 10 26 1a 27 b 2b 13 10 14 1c 12 10 b fffff827
FIXUPS: 43cbd 22 5e 7 52 b 8 b e 11 7 b 2a 14 27 c 2c 17 34 47 b 13 41
FIXUPS: 43fb8 33 21 33 24 4c 24 20 fffff5f0 1d 46 3f e b 16 2b 18 e3 3a
FIXUPS: 43922 b 2e 26 33 52 1d 3f 21 22 50 22 26 2c 14 7 17 2b 35 48 30
FIXUPS: 4325a 24 1f 1d 30 16 27 37 42 28 18 4e 15 1d 13 18 15 22 10 15
FIXUPS: 434ff f 10 3a 18 1b 1f 9f 14 11 23 2c 38e5 52 14 2f 14 35 a5 17
FIXUPS: 4716d 38 30 35 2d 15 27 18 21 d5 11 48 ffffd6c8 e ffffe613 b 53
FIXUPS: 43147 17 10 17 6b 3b 1a 34d6 4e d3 f 47 25 f 32 1a 25 87 2d 41
FIXUPS: 46a7e 17 2d 46 4f 29 17 be 26 49 1d 23 1a 2e 40 7e 1e 39 106 fffff32d
FIXUPS: 462c0 22 3b 1b c 26 c 26 c 39 27 31 3b 3d f 2f 1b 2e 76 f 2c e
FIXUPS: 4661d e 21 e 37 d 25 13 18 fffff5fd 4d 12e 26 11 42 b 62 12 17
FIXUPS: 45f82 2e 3a 3a 11 f 2c 1e 2c 26 39 24 13 59 31 11 2c 11 f 29 1c
FIXUPS: 46288 fffff228 27 7 fd 15 2e 38 3d 3d 4c d8 38 47 4f 6c 39 36 13
FIXUPS: 459f3 30 32 1d 45 20 1c 53 2d 66 28 35 19 22 fffff04b 10 1c 7 60
FIXUPS: 44d5c d f4 54 39 6a 8f 13 59 3f 13 7d 23 86 af 23 3f 3d 3a 2a 4f
FIXUPS: 453de 7 47 6 5d 1a 5537 a 3a 34 30 30 ffffc9cf 1a 67 43 19 1a 81
FIXUPS: 47617 4a 24 28 70 d 36 a 31 c7 14 4c 68 46 38 31 e4 32 dc 2275
FIXUPS: 49e57 39 140 10 10 40 130 70 70 40 100 17 1e9 b a ab a 7c 3f d
FIXUPS: 4a740 10 10 43 34 49 b b a f0 70 fffff167 26 b 40 2c 2f 20 a 9
FIXUPS: 49c15 a a a d a a 19 2a d a b c 22 c 26 1b b 20 9 7 19 9 fffff8f0
FIXUPS: 49698 44 26 b 10 17 1e 24 3e b a 22 3b b 14 11 11 11 11 11 14 87
FIXUPS: 4995c 46 61 7 20 13 30 17 26 fffff897 1e b 17 10 1b 2f 32 23 47
FIXUPS: 49491 30 23 2d e 7 2d e 7 2d e 7 2e b 10 17 10 10 10 17 10 10 fffff8b0
FIXUPS: 48f42 25 8 18 56 18 d 31 8 18 38 11 13 35 6 33 14 1e 7 17 24 4d
FIXUPS: 491fa 1a 7 7 5b e 11 19 7f fffff743 24 29 48 14 24 24 24 24 24
FIXUPS: 48bf8 24 24 24 24 24 24 24 21 3a 7 18 3b 21 25 8 18 56 21 25 8
FIXUPS: 48ecb fffff80f 1e 18 27 2a 1c b 13 9 14 10 2e a 34 14 b 10 9 a
FIXUPS: 488a7 14 25 25 25 25 25 25 25 25 25 25 25 fffff9a7 10 20 d 8 10
FIXUPS: 48457 8 18 a 24 b 10 7 12 9 7 c 1a e0 14 b 10 1c b 18 11 b 1e b
FIXUPS: 486b3 18 fffff9cd 53 3f 27 1c 14 33 11 d 24 1c 10 c 25 d 9 f d
FIXUPS: 4829c 10 c 63 c d 34 14 b 1e 8 1c 18 8 8307 347 100 cc 41 34 3c
FIXUPS: 50ccc b 1f 10 13 2b 32 7 23 17 ffff703e 21 21 24 24 e1 23 10 d
FIXUPS: 47fbf 10 27 18 3c 43 7aaf 14 11 f 9 b 18 29 7 18 34 7 18 47 7 18
FIXUPS: 4fce0 40 100 17 10 39 11 11f 1b1 123 35 10 42 47 31e 40 fffff159
FIXUPS: 4f82c f 22 1b 1c 1f 42 7 7 7 1d 1e e 24 2e 18 23 14 11 12 9 b 24
FIXUPS: 4fa5f 1e b 17 10 24 2e 18 fffff6c0 13 1d 70 cf b 17 12 9 b 17 10
FIXUPS: 4f3f3 7 73 f9 34 28 2b 42 a 10 a 1a 1a 2a 1d b 1c 24 84 3c fffff559
FIXUPS: 4ed3d b b 9 21 1c b e e 9 2c 7 3c 1f 18 4c 5f 13d 21 24 55 14 7
FIXUPS: 4f113 7 25 50 14 7 7 7 fffff854 1b 11 b 17 1a 11 b 17 20 23 f 29
FIXUPS: 4eb41 2a 23 12 29 7 17 10 23 1d 11 b 17 1a 11 b 17 1c 31 fffffa2b
FIXUPS: 4e74d b 11 20 16 9 19 23 11 b 11 b 1e b 11 20 16 9 23 10 41 7 17
FIXUPS: 4e937 1f 2a 23 12 29 7 17 fffff98d 38 7 26 7 26 34 1c b 16 24 b
FIXUPS: 4e4e1 7 24 1a b b 48 e 26 7 26 4c 5d 23 25 e 16 9 10 11 fffff886
FIXUPS: 4dfc2 1a 14 23 7 17 10 1b 1c 1c 5b 7 23 1c 32 18 25 b 1a a 1e d
FIXUPS: 4e216 b 2a 1a 21 60 7 26 1c fffff98b 14 34 26 9 18 11 b 17 19 11
FIXUPS: 4ddb1 17 15 9 11 37 39 7 17 10 2b 7 21 25 1d 11 b 17 1a 11 b fffffacf
FIXUPS: 4da7d 2a d d a 11 c b 34 d 7 7 21 6 c f 17 12 17 1d 18 f f 8 12
FIXUPS: 4dc38 1a 7 18 2a 12 fffff984 18 f a 2a 16 1e 19 7 9 7 2e cb 2a
FIXUPS: 4d82a 18 f 8 11 7 2f 2a 43 18 11 6c 10 7 17 10 4b 28 fffff74f b
FIXUPS: 4d1be b 9 7 27 3a 31 28 38 1e 19 17 18 f 1e e 7 7 12 12c 28 33
FIXUPS: 4d531 19 17 18 f a 58 30 fffff8df 23 2b e 18 f 8 f 7 19 d a a c
FIXUPS: 4cfea a 11 18 44 b 2e 21 9 f 22 21 9 b 2a 1b 7 23 fffff8ff 16 1e
FIXUPS: 4caec 1d 16 14 20 c e 10 cb 34 1e 1f 1d 16 14 15 3b c e 10 17 87
FIXUPS: 4ce44 23 21 22 7 17 10 fffff836 1e 9 18 27 10 11 1d 37 1b 1e 9
FIXUPS: 4c843 2e 62 10 7 28 b 9 7 44 47 26 13 a 15 19 29 1f 6 11 fffff84e
FIXUPS: 4c2ea 10 b 16 30 af 5a 1b 13 11 b 17 1d b 29 c d 2a 18 45 37 b
FIXUPS: 4c5fb 10 39 18 34 d 10 f 37 fffff809 38 19 7 7 36 17 10 10 19 2a
FIXUPS: 4c028 19 10 1d 16 16 22 14 10 b 16 25 26 1b 12 10 c6 29 17 19 c
FIXUPS: 4bc0d 7 11 37 5c f 25 c 1a b 29 1f 1a 20 1b 17 10 14 9 9 1f 27
FIXUPS: 4be5d 17 10 1d 10 10 12 9 b b fffff9f9 e 18 1d 1c 3e 27 14 c d
FIXUPS: 4ba0d 2e 10 10 1b 21 f 19 f 1d 1c 1c a 14 a d 3b 7 2a 14 11 10
FIXUPS: 4b497 10 59 30 13 17 a 15 28 1a 1c f 48 b 2b f d 1c 12 17 18 29
FIXUPS: 4b720 9a 15 2a 1b 1b 2a 17 f 2a fffff8a8 1c 24 2b 11 10 12 9 b
FIXUPS: 4b213 1f 10 1f 1f 4c 9 9 47 3c 1b 13 11 b 17 1d 24 c 11 18 31 10
FIXUPS: 4b480 fffff95e b 11 16 2b 39 16 a 25 c 11 b 10 29 1d 1f 1f 26 b
FIXUPS: 4afb7 11 1c 35 28 c 9 22 d 27 10 2b 2f a12e 14 4c 9 17 24 14 44
FIXUPS: 5534f ffff57ee 14 10 14 10 10 10 23 18 14 10 14 10 14 11 bc 1e
FIXUPS: 4ad32 17 10 16 2f d 9fc7 11 3d 10 12 10 12 17 10 25 11 3f 70 100
FIXUPS: 55034 9 17 14 3c 9 17 14 4c 9 17 14 4c 9 17 14 4c 9 fffff580 17
FIXUPS: 547d4 10 29 17 58 17 3d 18 19 b 19 27 f e 7 13 61 ea b 55 4d c
FIXUPS: 54bd2 2e 11 9f 40 40 1d 1a fffff51f 27 52 7 22 3e 16 1a 1f 1c 9
FIXUPS: 543ec 25 3f 31 b4 7a 92 28 16 7 1c 7 44 16 7 1e 26 b f f 1c fffff425
FIXUPS: 53bc3 b 11 b 11 148 37 29 20 b6 30 28 29 20 aa 79 94 7 1e 1a 17
FIXUPS: 5413c 22 15 29 6 4c 21 7 1e 7 fffff5e3 22 25 7 17 7 16 7 f 63 2b
FIXUPS: 5396d e 6 18 15 1e 14 16 2c 1c 12 17 1a 26 22 33 1e 3d 16 7 1e
FIXUPS: 5326c cc 3a 22 21 b b 14 5b 16 18 2d 23 c 30 69 6d 29 29 5d 19
FIXUPS: 536b6 24 48 1b 24 24 41 7 16 7 1e fffff6aa 14 90 7 17 26 26 7 61
FIXUPS: 5303b 13 13 17 25 d 28 7 1e 16 e 13 19 16 13 2a 1a 13 14 13 26
FIXUPS: 53242 15 fffff88d 16 e 15 25 29 67 62 23 b 17 19 b b 10 21 10 1a
FIXUPS: 52d13 17 10 10 10 17 10 1a 1c d 38 32 30 49 fffff7a5 21 16 10 17
FIXUPS: 526e4 ba 11 57 b 6 e b b 26 30 47 34 23 e 15 16 19 10 17 29 33
FIXUPS: 52a47 35 b f 1b fffff73b 1d 2a 36 24 b 17 10 2a b c 58 19 b 10
FIXUPS: 523a3 10 c 17 25 5b 3c 7d b b 14 1a 1d 3a 2d 19 14 fffff801 14
FIXUPS: 51e27 10 2c 10 9 1c 2a 2c f 4b 64 21 b 17 10 31 c 8 1a 9 5f 26
FIXUPS: 52121 2d 7 1e 16 1e 13 15 fffff7e8 17 65 42 17 2b 2c 17 16 7 6b
FIXUPS: 51bab 13 2f b 10 b 19 20 2c 18 2e 23 11 25 2b 22 13 19 c 30 13
FIXUPS: 51481 21 47 44 b 73 3c 76 b 1f 24 24 7 24 7 21 b a1 25 2c 2c 23
FIXUPS: 51875 1c 2b 4f 16 18 1b 2d 1c 13 fffff6f6 e b b 11 1c 10 16 7 e
FIXUPS: 5113d b 26 b 17 9 7 100 1b 10 12 9 b 2a 9 16 af 7 2d b 21 2d 4876
FIXUPS: 55cf2 10 ffffb0eb 8 2e 16 20 36 7 30 21 36 22 10 12 9 b 1d b a
FIXUPS: 50fce 9 d 9 a 5c 7 11 7 17 16 4752 32 21 2c 49 4f 15 1f 4a 81 b
FIXUPS: 55a18 d a 8 3d 18 34 9 3b 45 1e 31 1f 22 b 50 13 f 3e c 12 fffff780
FIXUPS: 55453 50 27 c 24 55 24 19 23 f c a a 11 42 2b 13 18 38 7 1f 19
FIXUPS: 55716 13 d 7 8 6 14 31 4d 18bd 25 24 25 24 24 24 3e 31 2d 17 22
FIXUPS: 57263 1a 17 17 14 12 2f 13 d1 d 5d 55 10 38 25 17 1a ffffde92 22
FIXUPS: 55408 1810 7 7 1e 7 25 21 1a 17 2f 27 21 1a 17 2d 23 17 13 7 37
FIXUPS: 56e68 3e 14 21 21 21 24 24 24 24 b4 14 fffff81f 12 8 7 1c 13 17
FIXUPS: 56912 2e 12 2b 14 b 24 47 24 20 69 1b 74 b 10 14 6 13 11 c c 8
FIXUPS: 56bc3 f 20 fffff913 17 17 31 1d 10 f 18 1e 2e b b 47 16 7 1e 1f
FIXUPS: 566cd 27 10 17 12 8 21 23 17 1a 24 16 1f 12 5e fffff912 7 37 27
FIXUPS: 5621f 20 17 37 7 1c 16 f 6 1d 2e 10 7 b 18 23 6f f 48 7 b b 2e
FIXUPS: 564b5 12 8 7 1c 1fb7 13 18 30 17 28 6e 7 27 20 19 12 36 13 fffff093
FIXUPS: 57720 ffffe7fe 1e 24 38 b 8a 8 2f 24 20 32 7 1e 7 21 4e 1edc 18
FIXUPS: 58079 17 14 59 23 32 26 80 7 44 25 53 b 22 7 17 16 1a 1a 1b 1a
FIXUPS: 5839f 1b 1a 1a 1c 48 14 18 13 fffff89e 86 7 25 42 b b f 1e 9 b
FIXUPS: 57e8a 1f 10 1f 10 10 20 b 41 13 10 13 7 17 10 21 b 11 15 c b fffff8ab
FIXUPS: 5790a 41 10 b e e 15 20 9 22 9 26 3f 10 24 29 28 17 16 b b 9 8b
FIXUPS: 57be0 14 2f 56 17 24 37 17 1b4e 4c 1a 20 20 1a 34 16 23 17 2e 1a
FIXUPS: 599f3 1a 1a 2b 1a 27 2a 14 22 33 b 43 2e e8 ffffdbaa 21 17 1d 7
FIXUPS: 57897 1b76 2c 42 28 15 b 8 6e 22 19 e c 7 7 c 1c 38 3b 34 18 4a
FIXUPS: 596ec 48 1c 2b 6 c 3e f b 38 22 fffff661 15 8a 2f 30 10 1c 69 29
FIXUPS: 5907c 1c f 26 1a 1a 44 1d 1a 10 31 48 58 18 35 1c 23 54 38 6 17
FIXUPS: 593a2 3c fffff5a4 21 2e 2f 3d 1f 24 f 2d 1d 23 24 24 1f 37 78 1a
FIXUPS: 58c3c 2a 23 f 10 41 10 b 1a 10 9 5f a7 31 22 2bbe 5e 20 19 19 10
FIXUPS: 5bb5b 5b d 1e 70 e 5 2f f 5 ffffca4c b 52 10 b 27 21 2e 28 2a 3f
FIXUPS: 58881 5f 27 25 35 276e 17 1f 1c 58 8 1e 1e 96 2f 48 28 4d 1a 18
FIXUPS: 5b398 18 f9 23f 7a 23 2b d b2 11 75 22 52 2a 48 2b d ffffedaf 8
FIXUPS: 5a81d 3c 55 a 48 68 d 3f 5e 49 26 99 2a 65 c4 5b d 9b 11 2e 1c
FIXUPS: 5ade3 25 36 4c 74 49 78 d 79 ffffeea1 8 48 68 17 21 26 ca 38 56
FIXUPS: 5a177 bb 61 34 e7 5d aa 19 a 5b f 2c 45 51 8 39 15 12 76 29 64
FIXUPS: 5a789 2aa9 19 24 7 21 1a 17 21 1b 23 3f 17 22 12 2f 13 90 40 5d
FIXUPS: 5d540 10 30 20 10 41 63 9 17 14 ffffc6e8 f8 2c 30f5 44 10 13 19
FIXUPS: 5d01d 7 6 13 7 22 1f 10 10 10 17 21 1d 7 9 8 7 1f 8 9 8 9 4e 7
FIXUPS: 5d1e0 1a 17 fffff996 28 1f 10 26 49 10 1d 10 42 b 18 21 f 14 14
FIXUPS: 5cd85 2b 29 10 71 10 12 3c 7 17 10 7 15 7 42 1d fffff906 24 b d
FIXUPS: 5c8b6 c 8 7 f 25 11 9 d 14 44 1e 1e 2c 3e 81 8 8 12 18 21 e 1f
FIXUPS: 5cb4a 1e b c 18 fffff953 21 12 32 17 2a 1e b 10 11 10 11 10 18
FIXUPS: 5c644 44 10 13 32 17 10 10 36 28 7 10 7 66 7 6 2f 7 fffff77d 39
FIXUPS: 5c015 7 21 7 2d 24 51 2a 43 7 25 21 17 15 23 33 a8 3c 5c 3d 3b
FIXUPS: 5c3e1 25 21 15 20 8 40 20 10 1c3f 10 1c 48 10 7 41 41 41 3f 13
FIXUPS: 5e2e0 10 10 14 ffffda8d 8 2f 24 50 14 7 28 42 b 2a 7 21 7 2d 2f
FIXUPS: 5bf98 1ce9 1d 3e 9 7 35 9 7 1f 11 4a 7 10 40 22 12 1c 15 48 5b
FIXUPS: 5df27 5c 33 31 38 7 2b 2d 15 26 8 1d 728 1d 2d 36 ffffeeea 82 f
FIXUPS: 5d822 18 13 17 b 79 34 34 6d 48 34 9 23 73 13 45 7 2b 2d 1c 4f
FIXUPS: 5dc16 7 7 3e 2ace b0 6a 21 117 d0 29 9 57 21 5d 78 5a a5 30 ffffd6ac
FIXUPS: 5e3b9 1f 1b 85 14 6f 2f 13f 1f 29 19 42 1f 29 4e 1e 1639 88 29
FIXUPS: 5feb3 c6 9d 81 25 18 66 d5 29 29 29 29 29 29 42 22 2b 68 25 18
FIXUPS: 604a4 b8 39 18 5d 9c 29 9 37 ffffed17 4a 2b 1f 53 15f 36 4d 20
FIXUPS: 5f73b 2f 29 26 1f 27 20 84 222 29 29 29 29 29 29 29 29 29 5b 4a
FIXUPS: 5fd4a 25 18 ffffec0b 70 2b ea bf 38 21 94 36 d1 21 88 29 9 64 6d
FIXUPS: 5efb2 1a 30 61 23 1c 3b e fa 25 18 69 21 de 2a 36
