
 Start  Stop   Length Name                   Class
 00000H 00000H 00000H RESIDENTSTART          CODE
 00000H 008CEH 008CFH RESIDENTCODE           CODE
 008D0H 008D0H 00000H RESIDENTDATA           DATA
 008D0H 008D0H 00000H RESIDENTEND            DATA
 008D0H 00A3FH 00170H INITCODE               INIT
 00A40H 00AB3H 00074H INITDATA               INIT
 00AC0H 00CBFH 00200H INITSTACK              STACK
 00CC0H 00CC0H 00000H FAR_SEGMENT            

 Origin   Group
 0000:0   RESIDENTGROUP

  Address         Publics by Name

 0000:0777       CHAIN_PREVIOUS_INT21
 0000:0004       CONNECTIONIDTABLE
 0000:02F6       CREATEDJOB
 0000:02F8       DENOVELLBUFFER
 0000:03F8       DENOVELLBUFFER2
 008D:0019       DISPFUNC
 008D:0000       DLLNAME
 0000:02A4       DRIVEFLAGTABLE
 0000:02C4       DRIVEHANDLETABLE
 0000:0284       DRIVEIDTABLE
 0000:061B       FOR_DOS_PROPER
 0000:02F2       HVDD
 008D:000C       INITFUNC
 0000:02F7       JOBHANDLE
 0000:0500       NOT_EXCLUSIVE
 0000:02EA       NTHANDLEHI
 0000:02EC       NTHANDLELOW
 0000:02EE       NTHANDLESRCHI
 0000:02F0       NTHANDLESRCLOW
 0000:0501       NWINT21
 0000:0000       OLD21HANDLER
 0000:02F4       PMSELECTOR
 0000:02E4       PREFERREDSERVER
 0000:02E5       PRIMARYSERVER
 0000:0511       QUICK_JUMP_TO_DOS
 0000:02E8       SAVEDAX
 0000:0104       SERVERNAMETABLE
 008D:0025       START
 0000:02E6       TASKMODEBYTE

  Address         Publics by Value

 0000:0000       OLD21HANDLER
 0000:0004       CONNECTIONIDTABLE
 0000:0104       SERVERNAMETABLE
 0000:0284       DRIVEIDTABLE
 0000:02A4       DRIVEFLAGTABLE
 0000:02C4       DRIVEHANDLETABLE
 0000:02E4       PREFERREDSERVER
 0000:02E5       PRIMARYSERVER
 0000:02E6       TASKMODEBYTE
 0000:02E8       SAVEDAX
 0000:02EA       NTHANDLEHI
 0000:02EC       NTHANDLELOW
 0000:02EE       NTHANDLESRCHI
 0000:02F0       NTHANDLESRCLOW
 0000:02F2       HVDD
 0000:02F4       PMSELECTOR
 0000:02F6       CREATEDJOB
 0000:02F7       JOBHANDLE
 0000:02F8       DENOVELLBUFFER
 0000:03F8       DENOVELLBUFFER2
 0000:0500       NOT_EXCLUSIVE
 0000:0501       NWINT21
 0000:0511       QUICK_JUMP_TO_DOS
 0000:061B       FOR_DOS_PROPER
 0000:0777       CHAIN_PREVIOUS_INT21
 008D:0000       DLLNAME
 008D:000C       INITFUNC
 008D:0019       DISPFUNC
 008D:0025       START

Program entry point at 008D:0025
