 oleaut32

 Timestamp is 5da85ef3 (Thu Oct 17 20:30:43 2019)

 Preferred load address is 10000000

 Start         Length     Name                   Class
 0001:00000000 0002eeb2H .text                   CODE
 0002:00000000 00000004H .CRT$XCA                DATA
 0002:00000004 00000008H .CRT$XCU                DATA
 0002:0000000c 00000004H .CRT$XCZ                DATA
 0002:00000010 00000004H .CRT$XIA                DATA
 0002:00000014 00000004H .CRT$XIZ                DATA
 0002:00000020 00000eb8H .rdata                  DATA
 0002:00000ee0 00000e9dH .edata                  DATA
 0003:00000000 00003c50H .data                   DATA
 0003:00003c50 00000140H .bss                    DATA
 0004:00000000 00000078H .idata$2                DATA
 0004:00000078 00000014H .idata$3                DATA
 0004:0000008c 000001c0H .idata$4                DATA
 0004:0000024c 000001c0H .idata$5                DATA
 0004:0000040c 00000680H .idata$6                DATA
 0005:00000000 00000058H .rsrc$01                DATA
 0005:00000060 000004e8H .rsrc$02                DATA
 0007:00000000 00000110H .debug$E                DATA
 0007:00000110 000045d0H .debug$F                DATA
 0007:000046e0 00014d60H .debug$G                DATA
 0007:00019440 00000008H .debug$H                DATA
 0007:00019448 00034eacH .debug$P                DATA
 0007:0004e2f4 00099ee7H .debug$S                DATA
 0007:000e81db 000ce9bcH .debug$T                DATA

  Address         Publics by Value              Rva+Base   Lib:Object

 0001:00000000       _DllMain@12                10001000 f oledisp.obj
 0001:000000b0       ?Create@COleAutomationPSFactory@@SAPAUIPSFactoryBuffer@@XZ 100010b0 f psfactry.obj
 0001:000000f0       ?QueryInterface@COleAutomationPSFactory@@UAGJABU_GUID@@PAPAX@Z 100010f0 f psfactry.obj
 0001:00000160       ?AddRef@COleAutomationPSFactory@@UAGKXZ 10001160 f psfactry.obj
 0001:00000170       ?Release@COleAutomationPSFactory@@UAGKXZ 10001170 f psfactry.obj
 0001:00000190       ?CreateProxy@COleAutomationPSFactory@@UAGJPAUIUnknown@@ABU_GUID@@PAPAUIRpcProxyBuffer@@PAPAX@Z 10001190 f psfactry.obj
 0001:00000380       ?CreateStub@COleAutomationPSFactory@@UAGJABU_GUID@@PAUIUnknown@@PAPAUIRpcStubBuffer@@@Z 10001380 f psfactry.obj
 0001:000004e0       ?IsAutomationCLSID@@YAHABU_GUID@@@Z 100014e0 f psfactry.obj
 0001:00000590       _DllGetClassObject@12      10001590 f psfactry.obj
 0001:000005d0       ?ProxyStubCLSIDOfInterface@@YAJABU_GUID@@PAU1@@Z 100015d0 f psfactry.obj
 0001:00000720       ?BstrWrite@@YAJPAUIStream@@PAGW4tagSYSKIND@@@Z 10001720 f dispmrsh.obj
 0001:00000820       ?BstrRead@@YAJPAUIStream@@PAPAGW4tagSYSKIND@@@Z 10001820 f dispmrsh.obj
 0001:00000950       _DispMarshalHresult@8      10001950 f dispmrsh.obj
 0001:000009f0       _DispUnmarshalHresult@8    100019f0 f dispmrsh.obj
 0001:00000ab0       ?VariantWrite@@YAJPAUIStream@@PAUtagVARIANT@@W4tagSYSKIND@@@Z 10001ab0 f dispmrsh.obj
 0001:00000d30       ?VariantRead@@YAJPAUIStream@@PAUtagVARIANT@@1W4tagSYSKIND@@@Z 10001d30 f dispmrsh.obj
 0001:00000fd0       ?VariantReadType@@YAJPAUIStream@@PAUtagVARIANT@@W4tagSYSKIND@@@Z 10001fd0 f dispmrsh.obj
 0001:000013c0       ?ExcepinfoRead@@YAJPAUIStream@@PAUtagEXCEPINFO@@W4tagSYSKIND@@@Z 100023c0 f dispmrsh.obj
 0001:00001430       ?ExcepinfoWrite@@YAJPAUIStream@@PAUtagEXCEPINFO@@W4tagSYSKIND@@@Z 10002430 f dispmrsh.obj
 0001:000014b0       ?MarshalErrorInfo@@YAJPAUIStream@@W4tagSYSKIND@@@Z 100024b0 f dispmrsh.obj
 0001:00001650       ?UnmarshalErrorInfo@@YAJPAUIStream@@W4tagSYSKIND@@@Z 10002650 f dispmrsh.obj
 0001:00001fc0       ?StructWrite@@YAJPAUIStream@@PAUtagFIELDDESC@@PAXW4tagSYSKIND@@@Z 10002fc0 f dispmrsh.obj
 0001:00002140       ?StructRead@@YAJPAUIStream@@PAUtagFIELDDESC@@PAXW4tagSYSKIND@@@Z 10003140 f dispmrsh.obj
 0001:000022a0       ??0CHolder@@QAE@XZ         100032a0 f dispmrsh.obj
 0001:000022c0       ??1CHolder@@QAE@XZ         100032c0 f dispmrsh.obj
 0001:000022e0       ?QueryInterface@CHolder@@UAGJABU_GUID@@PAPAX@Z 100032e0 f dispmrsh.obj
 0001:00002320       ?AddRef@CHolder@@UAGKXZ    10003320 f dispmrsh.obj
 0001:00002330       ?Release@CHolder@@UAGKXZ   10003330 f dispmrsh.obj
 0001:00002360       _DispMarshalInterface@12   10003360 f dispmrsh.obj
 0001:00002450       _DispUnmarshalInterface@12 10003450 f dispmrsh.obj
 0001:00002500       ??0CProxDisp@@AAE@PAUIUnknown@@ABU_GUID@@@Z 10003500 f dispprox.obj
 0001:00002550       ??1CProxDisp@@AAE@XZ       10003550 f dispprox.obj
 0001:00002570       ?Create@CProxDisp@@SAPAUIUnknown@@PAU2@ABU_GUID@@@Z 10003570 f dispprox.obj
 0001:000025b0       ??0CPDUnkImpl@@QAE@PAVCProxDisp@@@Z 100035b0 f dispprox.obj
 0001:000025d0       ??1CPDUnkImpl@@QAE@XZ      100035d0 f dispprox.obj
 0001:000025e0       ?QueryInterface@CPDUnkImpl@@UAGJABU_GUID@@PAPAX@Z 100035e0 f dispprox.obj
 0001:000026a0       ?AddRef@CPDUnkImpl@@UAGKXZ 100036a0 f dispprox.obj
 0001:000026c0       ?Release@CPDUnkImpl@@UAGKXZ 100036c0 f dispprox.obj
 0001:000026f0       ??0CPDProxImpl@@QAE@PAVCProxDisp@@@Z 100036f0 f dispprox.obj
 0001:00002710       ??1CPDProxImpl@@QAE@XZ     10003710 f dispprox.obj
 0001:00002740       ?QueryInterface@CPDProxImpl@@UAGJABU_GUID@@PAPAX@Z 10003740 f dispprox.obj
 0001:00002760       ?AddRef@CPDProxImpl@@UAGKXZ 10003760 f dispprox.obj
 0001:00002770       ?Release@CPDProxImpl@@UAGKXZ 10003770 f dispprox.obj
 0001:00002780       ?Connect@CPDProxImpl@@UAGJPAUIRpcChannelBuffer@@@Z 10003780 f dispprox.obj
 0001:000027c0       ?Disconnect@CPDProxImpl@@UAGXXZ 100037c0 f dispprox.obj
 0001:000027f0       ??0CPDDispImpl@@QAE@PAVCProxDisp@@@Z 100037f0 f dispprox.obj
 0001:00002810       ??1CPDDispImpl@@QAE@XZ     10003810 f dispprox.obj
 0001:00002820       ?QueryInterface@CPDDispImpl@@UAGJABU_GUID@@PAPAX@Z 10003820 f dispprox.obj
 0001:00002840       ?AddRef@CPDDispImpl@@UAGKXZ 10003840 f dispprox.obj
 0001:00002860       ?Release@CPDDispImpl@@UAGKXZ 10003860 f dispprox.obj
 0001:00002880       ?SysKind@CPDDispImpl@@UAGJXZ 10003880 f dispprox.obj
 0001:00002930       ?ProxyGetTypeInfoCount@@YAJPAUIRpcChannelBuffer@@W4tagSYSKIND@@PAI@Z 10003930 f dispprox.obj
 0001:000029f0       ?GetTypeInfoCount@CPDDispImpl@@UAGJPAI@Z 100039f0 f dispprox.obj
 0001:00002a10       ?ProxyGetTypeInfo@@YAJPAUIRpcChannelBuffer@@W4tagSYSKIND@@IKPAPAUITypeInfo@@@Z 10003a10 f dispprox.obj
 0001:00002b00       ?GetTypeInfo@CPDDispImpl@@UAGJIKPAPAUITypeInfo@@@Z 10003b00 f dispprox.obj
 0001:00002b30       ?ProxyGetIDsOfNames@@YAJPAUIRpcChannelBuffer@@W4tagSYSKIND@@ABU_GUID@@PAPAGIKPAJ@Z 10003b30 f dispprox.obj
 0001:00002e30       ?GetIDsOfNames@CPDDispImpl@@UAGJABU_GUID@@PAPAGIKPAJ@Z 10003e30 f dispprox.obj
 0001:00002e70       ?ProxyInvoke@@YAJPAUIRpcChannelBuffer@@W4tagSYSKIND@@JABU_GUID@@KGPAUtagDISPPARAMS@@PAUtagVARIANT@@PAUtagEXCEPINFO@@PAI@Z 10003e70 f dispprox.obj
 0001:00003170       ?Invoke@CPDDispImpl@@UAGJJABU_GUID@@KGPAUtagDISPPARAMS@@PAUtagVARIANT@@PAUtagEXCEPINFO@@PAI@Z 10004170 f dispprox.obj
 0001:000031c0       ??0CStubDisp@@AAE@XZ       100041c0 f dispstub.obj
 0001:00003200       ??1CStubDisp@@AAE@XZ       10004200 f dispstub.obj
 0001:00003210       ?Create@CStubDisp@@SAJPAUIUnknown@@ABU_GUID@@PAPAUIRpcStubBuffer@@@Z 10004210 f dispstub.obj
 0001:00003280       ?QueryInterface@CStubDisp@@UAGJABU_GUID@@PAPAX@Z 10004280 f dispstub.obj
 0001:000032f0       ?AddRef@CStubDisp@@UAGKXZ  100042f0 f dispstub.obj
 0001:00003300       ?Release@CStubDisp@@UAGKXZ 10004300 f dispstub.obj
 0001:00003330       ?Connect@CStubDisp@@UAGJPAUIUnknown@@@Z 10004330 f dispstub.obj
 0001:00003360       ?Disconnect@CStubDisp@@UAGXXZ 10004360 f dispstub.obj
 0001:000033a0       ?StubGetTypeInfoCount@@YAJPAUIDispatch@@PAUIStream@@@Z 100043a0 f dispstub.obj
 0001:00003400       ?StubGetTypeInfo@@YAJPAUIDispatch@@PAUIStream@@@Z 10004400 f dispstub.obj
 0001:000034a0       ?StubGetIDsOfNames@@YAJPAUIDispatch@@PAUIStream@@@Z 100044a0 f dispstub.obj
 0001:00003760       ?StubInvoke@@YAJPAUIDispatch@@PAUIStream@@@Z 10004760 f dispstub.obj
 0001:00003b90       ?Invoke@CStubDisp@@UAGJPAUtagRPCOLEMESSAGE@@PAUIRpcChannelBuffer@@@Z 10004b90 f dispstub.obj
 0001:00003cc0       ?IsIIDSupported@CStubDisp@@UAGPAUIRpcStubBuffer@@ABU_GUID@@@Z 10004cc0 f dispstub.obj
 0001:00003cf0       ?CountRefs@CStubDisp@@UAGKXZ 10004cf0 f dispstub.obj
 0001:00003d10       ?DebugServerQueryInterface@CStubDisp@@UAGJPAPAX@Z 10004d10 f dispstub.obj
 0001:00003d30       ?DebugServerRelease@CStubDisp@@UAGXPAX@Z 10004d30 f dispstub.obj
 0001:00003d40       ??0CProxEnumVARIANT@@AAE@PAUIUnknown@@@Z 10004d40 f evprox.obj
 0001:00003d70       ?Create@CProxEnumVARIANT@@SAPAUIUnknown@@PAU2@@Z 10004d70 f evprox.obj
 0001:00003da0       ??0CPEVUnkImpl@@QAE@PAVCProxEnumVARIANT@@@Z 10004da0 f evprox.obj
 0001:00003dc0       ?QueryInterface@CPEVUnkImpl@@UAGJABU_GUID@@PAPAX@Z 10004dc0 f evprox.obj
 0001:00003e70       ?AddRef@CPEVUnkImpl@@UAGKXZ 10004e70 f evprox.obj
 0001:00003e90       ?Release@CPEVUnkImpl@@UAGKXZ 10004e90 f evprox.obj
 0001:00003ec0       ??0CPEVProxImpl@@QAE@PAVCProxEnumVARIANT@@@Z 10004ec0 f evprox.obj
 0001:00003ee0       ??1CPEVProxImpl@@QAE@XZ    10004ee0 f evprox.obj
 0001:00003f00       ?QueryInterface@CPEVProxImpl@@UAGJABU_GUID@@PAPAX@Z 10004f00 f evprox.obj
 0001:00003f20       ?AddRef@CPEVProxImpl@@UAGKXZ 10004f20 f evprox.obj
 0001:00003f30       ?Release@CPEVProxImpl@@UAGKXZ 10004f30 f evprox.obj
 0001:00003f40       ?Connect@CPEVProxImpl@@UAGJPAUIRpcChannelBuffer@@@Z 10004f40 f evprox.obj
 0001:00003f70       ?Disconnect@CPEVProxImpl@@UAGXXZ 10004f70 f evprox.obj
 0001:00003fa0       ??0CPEVEnumVARIANTImpl@@QAE@PAVCProxEnumVARIANT@@@Z 10004fa0 f evprox.obj
 0001:00003fc0       ?QueryInterface@CPEVEnumVARIANTImpl@@UAGJABU_GUID@@PAPAX@Z 10004fc0 f evprox.obj
 0001:00003fe0       ?AddRef@CPEVEnumVARIANTImpl@@UAGKXZ 10004fe0 f evprox.obj
 0001:00004000       ?Release@CPEVEnumVARIANTImpl@@UAGKXZ 10005000 f evprox.obj
 0001:00004020       ?Next@CPEVEnumVARIANTImpl@@UAGJKPAUtagVARIANT@@PAK@Z 10005020 f evprox.obj
 0001:00004190       ?Skip@CPEVEnumVARIANTImpl@@UAGJK@Z 10005190 f evprox.obj
 0001:00004250       ?Reset@CPEVEnumVARIANTImpl@@UAGJXZ 10005250 f evprox.obj
 0001:000042f0       ?Clone@CPEVEnumVARIANTImpl@@UAGJPAPAUIEnumVARIANT@@@Z 100052f0 f evprox.obj
 0001:000043b0       ??0CStubEnumVARIANT@@AAE@XZ 100053b0 f evstub.obj
 0001:000043d0       ??1CStubEnumVARIANT@@AAE@XZ 100053d0 f evstub.obj
 0001:000043e0       ?Create@CStubEnumVARIANT@@SAJPAUIUnknown@@PAPAUIRpcStubBuffer@@@Z 100053e0 f evstub.obj
 0001:00004430       ?QueryInterface@CStubEnumVARIANT@@UAGJABU_GUID@@PAPAX@Z 10005430 f evstub.obj
 0001:000044a0       ?AddRef@CStubEnumVARIANT@@UAGKXZ 100054a0 f evstub.obj
 0001:000044b0       ?Release@CStubEnumVARIANT@@UAGKXZ 100054b0 f evstub.obj
 0001:000044e0       ?Connect@CStubEnumVARIANT@@UAGJPAUIUnknown@@@Z 100054e0 f evstub.obj
 0001:00004510       ?Disconnect@CStubEnumVARIANT@@UAGXXZ 10005510 f evstub.obj
 0001:00004550       ?Invoke@CStubEnumVARIANT@@UAGJPAUtagRPCOLEMESSAGE@@PAUIRpcChannelBuffer@@@Z 10005550 f evstub.obj
 0001:00004870       ?IsIIDSupported@CStubEnumVARIANT@@UAGPAUIRpcStubBuffer@@ABU_GUID@@@Z 10005870 f evstub.obj
 0001:000048a0       ?CountRefs@CStubEnumVARIANT@@UAGKXZ 100058a0 f evstub.obj
 0001:000048c0       ?DebugServerQueryInterface@CStubEnumVARIANT@@UAGJPAPAX@Z 100058c0 f evstub.obj
 0001:000048e0       ?DebugServerRelease@CStubEnumVARIANT@@UAGXPAX@Z 100058e0 f evstub.obj
 0001:000048f0       ??0CProxTypeInfo@@AAE@PAUIUnknown@@@Z 100058f0 f tiprox.obj
 0001:00004920       ?Create@CProxTypeInfo@@SAPAUIUnknown@@PAU2@@Z 10005920 f tiprox.obj
 0001:00004950       ??0CPTIUnkImpl@@QAE@PAVCProxTypeInfo@@@Z 10005950 f tiprox.obj
 0001:00004970       ?QueryInterface@CPTIUnkImpl@@UAGJABU_GUID@@PAPAX@Z 10005970 f tiprox.obj
 0001:00004a20       ?AddRef@CPTIUnkImpl@@UAGKXZ 10005a20 f tiprox.obj
 0001:00004a40       ?Release@CPTIUnkImpl@@UAGKXZ 10005a40 f tiprox.obj
 0001:00004a70       ??0CPTIProxImpl@@QAE@PAVCProxTypeInfo@@@Z 10005a70 f tiprox.obj
 0001:00004a90       ??1CPTIProxImpl@@QAE@XZ    10005a90 f tiprox.obj
 0001:00004ab0       ?QueryInterface@CPTIProxImpl@@UAGJABU_GUID@@PAPAX@Z 10005ab0 f tiprox.obj
 0001:00004ad0       ?AddRef@CPTIProxImpl@@UAGKXZ 10005ad0 f tiprox.obj
 0001:00004ae0       ?Release@CPTIProxImpl@@UAGKXZ 10005ae0 f tiprox.obj
 0001:00004af0       ?Connect@CPTIProxImpl@@UAGJPAUIRpcChannelBuffer@@@Z 10005af0 f tiprox.obj
 0001:00004b20       ?Disconnect@CPTIProxImpl@@UAGXXZ 10005b20 f tiprox.obj
 0001:00004b50       ??0CPTITypeInfoImpl@@QAE@PAVCProxTypeInfo@@@Z 10005b50 f tiprox.obj
 0001:00004b70       ?QueryInterface@CPTITypeInfoImpl@@UAGJABU_GUID@@PAPAX@Z 10005b70 f tiprox.obj
 0001:00004b90       ?AddRef@CPTITypeInfoImpl@@UAGKXZ 10005b90 f tiprox.obj
 0001:00004bb0       ?Release@CPTITypeInfoImpl@@UAGKXZ 10005bb0 f tiprox.obj
 0001:00004bd0       ?GetTypeAttr@CPTITypeInfoImpl@@UAGJPAPAUtagTYPEATTR@@@Z 10005bd0 f tiprox.obj
 0001:00004cf0       ?GetTypeComp@CPTITypeInfoImpl@@UAGJPAPAUITypeComp@@@Z 10005cf0 f tiprox.obj
 0001:00004db0       ?GetFuncDesc@CPTITypeInfoImpl@@UAGJIPAPAUtagFUNCDESC@@@Z 10005db0 f tiprox.obj
 0001:00004ef0       ?GetVarDesc@CPTITypeInfoImpl@@UAGJIPAPAUtagVARDESC@@@Z 10005ef0 f tiprox.obj
 0001:00005030       ?GetNames@CPTITypeInfoImpl@@UAGJJPAPAGIPAI@Z 10006030 f tiprox.obj
 0001:00005210       ?GetRefTypeOfImplType@CPTITypeInfoImpl@@UAGJIPAK@Z 10006210 f tiprox.obj
 0001:00005300       ?GetImplTypeFlags@CPTITypeInfoImpl@@UAGJIPAH@Z 10006300 f tiprox.obj
 0001:000053f0       ?GetIDsOfNames@CPTITypeInfoImpl@@UAGJPAPAGIPAJ@Z 100063f0 f tiprox.obj
 0001:00005400       ?Invoke@CPTITypeInfoImpl@@UAGJPAXJGPAUtagDISPPARAMS@@PAUtagVARIANT@@PAUtagEXCEPINFO@@PAI@Z 10006400 f tiprox.obj
 0001:00005410       ?GetDocumentation@CPTITypeInfoImpl@@UAGJJPAPAG0PAK0@Z 10006410 f tiprox.obj
 0001:00005620       ?GetDllEntry@CPTITypeInfoImpl@@UAGJJW4tagINVOKEKIND@@PAPAG1PAG@Z 10006620 f tiprox.obj
 0001:00005800       ?GetRefTypeInfo@CPTITypeInfoImpl@@UAGJKPAPAUITypeInfo@@@Z 10006800 f tiprox.obj
 0001:000058e0       ?AddressOfMember@CPTITypeInfoImpl@@UAGJJW4tagINVOKEKIND@@PAPAX@Z 100068e0 f tiprox.obj
 0001:000058f0       ?CreateInstance@CPTITypeInfoImpl@@UAGJPAUIUnknown@@ABU_GUID@@PAPAX@Z 100068f0 f tiprox.obj
 0001:000059e0       ?GetMops@CPTITypeInfoImpl@@UAGJJPAPAG@Z 100069e0 f tiprox.obj
 0001:000059f0       ?GetContainingTypeLib@CPTITypeInfoImpl@@UAGJPAPAUITypeLib@@PAI@Z 100069f0 f tiprox.obj
 0001:00005ae0       ?ReleaseTypeAttr@CPTITypeInfoImpl@@UAGXPAUtagTYPEATTR@@@Z 10006ae0 f tiprox.obj
 0001:00005af0       ?DoReleaseDanglingTypeDesc@@YGXPAUtagTYPEDESC@@@Z 10006af0 f tiprox.obj
 0001:00005b60       ?DoReleaseFuncDesc@@YGXPAUtagFUNCDESC@@@Z 10006b60 f tiprox.obj
 0001:00005bc0       ?ReleaseFuncDesc@CPTITypeInfoImpl@@UAGXPAUtagFUNCDESC@@@Z 10006bc0 f tiprox.obj
 0001:00005bd0       ?DoReleaseVarDesc@@YGXPAUtagVARDESC@@@Z 10006bd0 f tiprox.obj
 0001:00005bf0       ?ReleaseVarDesc@CPTITypeInfoImpl@@UAGXPAUtagVARDESC@@@Z 10006bf0 f tiprox.obj
 0001:00005c00       _TypedescRead              10006c00 f tiprox.obj
 0001:00005d90       ?TypedescWrite@@YAJPAUIStream@@PAUtagTYPEDESC@@W4tagSYSKIND@@@Z 10006d90 f tiprox.obj
 0001:00005eb0       _TypedescReadOrWrite       10006eb0 f tiprox.obj
 0001:00005ee0       ?TypeattrWrite@@YGJPAUIStream@@PAUtagTYPEATTR@@W4tagSYSKIND@@@Z 10006ee0 f tiprox.obj
 0001:00005f30       ?TypeattrRead@@YGJPAUIStream@@PAUtagTYPEATTR@@W4tagSYSKIND@@@Z 10006f30 f tiprox.obj
 0001:00005f80       ?FuncdescWrite@@YGJPAUIStream@@PAUtagFUNCDESC@@W4tagSYSKIND@@@Z 10006f80 f tiprox.obj
 0001:00005ff0       ?FuncdescRead@@YGJPAUIStream@@PAUtagFUNCDESC@@W4tagSYSKIND@@@Z 10006ff0 f tiprox.obj
 0001:000060c0       ?VardescWrite@@YGJPAUIStream@@PAUtagVARDESC@@W4tagSYSKIND@@@Z 100070c0 f tiprox.obj
 0001:00006130       ?VardescRead@@YGJPAUIStream@@PAUtagVARDESC@@W4tagSYSKIND@@@Z 10007130 f tiprox.obj
 0001:000061e0       ??0CStubTypeInfo@@AAE@XZ   100071e0 f tistub.obj
 0001:00006200       ??1CStubTypeInfo@@AAE@XZ   10007200 f tistub.obj
 0001:00006210       ?Create@CStubTypeInfo@@SAJPAUIUnknown@@PAPAUIRpcStubBuffer@@@Z 10007210 f tistub.obj
 0001:00006260       ?QueryInterface@CStubTypeInfo@@UAGJABU_GUID@@PAPAX@Z 10007260 f tistub.obj
 0001:000062d0       ?AddRef@CStubTypeInfo@@UAGKXZ 100072d0 f tistub.obj
 0001:000062e0       ?Release@CStubTypeInfo@@UAGKXZ 100072e0 f tistub.obj
 0001:00006310       ?Connect@CStubTypeInfo@@UAGJPAUIUnknown@@@Z 10007310 f tistub.obj
 0001:00006340       ?Disconnect@CStubTypeInfo@@UAGXXZ 10007340 f tistub.obj
 0001:00006380       ?Invoke@CStubTypeInfo@@UAGJPAUtagRPCOLEMESSAGE@@PAUIRpcChannelBuffer@@@Z 10007380 f tistub.obj
 0001:000064e0       ?IsIIDSupported@CStubTypeInfo@@UAGPAUIRpcStubBuffer@@ABU_GUID@@@Z 100074e0 f tistub.obj
 0001:00006510       ?CountRefs@CStubTypeInfo@@UAGKXZ 10007510 f tistub.obj
 0001:00006530       ?GetTypeAttr@CStubTypeInfo@@QAEJXZ 10007530 f tistub.obj
 0001:000065e0       ?GetTypeComp@CStubTypeInfo@@QAEJXZ 100075e0 f tistub.obj
 0001:00006650       ?GetFuncDesc@CStubTypeInfo@@QAEJXZ 10007650 f tistub.obj
 0001:00006720       ?GetVarDesc@CStubTypeInfo@@QAEJXZ 10007720 f tistub.obj
 0001:000067f0       ?GetNames@CStubTypeInfo@@QAEJXZ 100077f0 f tistub.obj
 0001:00006970       ?GetRefTypeOfImplType@CStubTypeInfo@@QAEJXZ 10007970 f tistub.obj
 0001:000069e0       ?GetImplTypeFlags@CStubTypeInfo@@QAEJXZ 100079e0 f tistub.obj
 0001:00006a60       ?GetIDsOfNames@CStubTypeInfo@@QAEJXZ 10007a60 f tistub.obj
 0001:00006a70       ?GetDocumentation@CStubTypeInfo@@QAEJXZ 10007a70 f tistub.obj
 0001:00006be0       ?GetDllEntry@CStubTypeInfo@@QAEJXZ 10007be0 f tistub.obj
 0001:00006d30       ?GetRefTypeInfo@CStubTypeInfo@@QAEJXZ 10007d30 f tistub.obj
 0001:00006dc0       ?CreateInstance@CStubTypeInfo@@QAEJXZ 10007dc0 f tistub.obj
 0001:00006e40       ?GetContainingTypeLib@CStubTypeInfo@@QAEJXZ 10007e40 f tistub.obj
 0001:00006ed0       ?MarshalResult@CStubTypeInfo@@QAEJXZ 10007ed0 f tistub.obj
 0001:00006ee0       ?DebugServerQueryInterface@CStubTypeInfo@@UAGJPAPAX@Z 10007ee0 f tistub.obj
 0001:00006f00       ?DebugServerRelease@CStubTypeInfo@@UAGXPAX@Z 10007f00 f tistub.obj
 0001:00006f10       ??0CErrorInfo@@QAE@XZ      10007f10 f errinfo.obj
 0001:00006f60       ??1CErrorInfo@@QAE@XZ      10007f60 f errinfo.obj
 0001:00006f90       ?Create@CErrorInfo@@SAJPAPAV1@@Z 10007f90 f errinfo.obj
 0001:00006fd0       ?QueryInterface@CErrorInfo@@UAGJABU_GUID@@PAPAX@Z 10007fd0 f errinfo.obj
 0001:00007060       ?AddRef@CErrorInfo@@UAGKXZ 10008060 f errinfo.obj
 0001:00007070       ?Release@CErrorInfo@@UAGKXZ 10008070 f errinfo.obj
 0001:000070a0       ?GetGUID@CErrorInfo@@UAGJPAU_GUID@@@Z 100080a0 f errinfo.obj
 0001:000070d0       ?GetSource@CErrorInfo@@UAGJPAPAG@Z 100080d0 f errinfo.obj
 0001:00007150       ?GetDescription@CErrorInfo@@UAGJPAPAG@Z 10008150 f errinfo.obj
 0001:00007170       ?GetHelpFile@CErrorInfo@@UAGJPAPAG@Z 10008170 f errinfo.obj
 0001:00007190       ?GetHelpContext@CErrorInfo@@UAGJPAK@Z 10008190 f errinfo.obj
 0001:000071b0       ?SetGUID@CErrorInfo@@UAGJABU_GUID@@@Z 100081b0 f errinfo.obj
 0001:000071e0       ?SetSource@CErrorInfo@@UAGJPAG@Z 100081e0 f errinfo.obj
 0001:00007210       ?SetDescription@CErrorInfo@@UAGJPAG@Z 10008210 f errinfo.obj
 0001:00007240       ?SetHelpFile@CErrorInfo@@UAGJPAG@Z 10008240 f errinfo.obj
 0001:00007270       ?SetHelpContext@CErrorInfo@@UAGJK@Z 10008270 f errinfo.obj
 0001:00007280       _SetErrorInfo@8            10008280 f errinfo.obj
 0001:000072e0       _GetErrorInfo@8            100082e0 f errinfo.obj
 0001:00007340       _CreateErrorInfo@4         10008340 f errinfo.obj
 0001:00007390       ?QueryInterface@CErrorInfo@@W3AGJABU_GUID@@PAPAX@Z 10008390 f errinfo.obj
 0001:000073a0       ?AddRef@CErrorInfo@@W3AGKXZ 100083a0 f errinfo.obj
 0001:000073b0       ?Release@CErrorInfo@@W3AGKXZ 100083b0 f errinfo.obj
 0001:000073c0       ?GetPrimaryInterface@@YGJPAUITypeInfo@@PAPAU1@@Z 100083c0 f tiutil.obj
 0001:00007550       ??0CProxTypeLib@@AAE@PAUIUnknown@@@Z 10008550 f tlprox.obj
 0001:00007580       ?Create@CProxTypeLib@@SAPAUIUnknown@@PAU2@@Z 10008580 f tlprox.obj
 0001:000075b0       ??0CPTLibUnkImpl@@QAE@PAVCProxTypeLib@@@Z 100085b0 f tlprox.obj
 0001:000075d0       ?QueryInterface@CPTLibUnkImpl@@UAGJABU_GUID@@PAPAX@Z 100085d0 f tlprox.obj
 0001:00007650       ?AddRef@CPTLibUnkImpl@@UAGKXZ 10008650 f tlprox.obj
 0001:00007670       ?Release@CPTLibUnkImpl@@UAGKXZ 10008670 f tlprox.obj
 0001:000076a0       ??0CPTLibProxImpl@@QAE@PAVCProxTypeLib@@@Z 100086a0 f tlprox.obj
 0001:000076c0       ??1CPTLibProxImpl@@QAE@XZ  100086c0 f tlprox.obj
 0001:000076e0       ?QueryInterface@CPTLibProxImpl@@UAGJABU_GUID@@PAPAX@Z 100086e0 f tlprox.obj
 0001:00007700       ?AddRef@CPTLibProxImpl@@UAGKXZ 10008700 f tlprox.obj
 0001:00007710       ?Release@CPTLibProxImpl@@UAGKXZ 10008710 f tlprox.obj
 0001:00007720       ?Connect@CPTLibProxImpl@@UAGJPAUIRpcChannelBuffer@@@Z 10008720 f tlprox.obj
 0001:00007750       ?Disconnect@CPTLibProxImpl@@UAGXXZ 10008750 f tlprox.obj
 0001:00007780       ??0CPTLibTypeLibImpl@@QAE@PAVCProxTypeLib@@@Z 10008780 f tlprox.obj
 0001:000077a0       ?QueryInterface@CPTLibTypeLibImpl@@UAGJABU_GUID@@PAPAX@Z 100087a0 f tlprox.obj
 0001:000077c0       ?AddRef@CPTLibTypeLibImpl@@UAGKXZ 100087c0 f tlprox.obj
 0001:000077e0       ?Release@CPTLibTypeLibImpl@@UAGKXZ 100087e0 f tlprox.obj
 0001:00007800       ?DoGetTypeInfoCount@CPTLibTypeLibImpl@@QAEJPAI@Z 10008800 f tlprox.obj
 0001:000078b0       ?GetTypeInfoCount@CPTLibTypeLibImpl@@UAGIXZ 100088b0 f tlprox.obj
 0001:000078e0       ?GetTypeInfo@CPTLibTypeLibImpl@@UAGJIPAPAUITypeInfo@@@Z 100088e0 f tlprox.obj
 0001:000079c0       ?GetTypeInfoType@CPTLibTypeLibImpl@@UAGJIPAW4tagTYPEKIND@@@Z 100089c0 f tlprox.obj
 0001:00007ab0       ?GetTypeInfoOfGuid@CPTLibTypeLibImpl@@UAGJABU_GUID@@PAPAUITypeInfo@@@Z 10008ab0 f tlprox.obj
 0001:00007b90       ?GetLibAttr@CPTLibTypeLibImpl@@UAGJPAPAUtagTLIBATTR@@@Z 10008b90 f tlprox.obj
 0001:00007c80       ?GetTypeComp@CPTLibTypeLibImpl@@UAGJPAPAUITypeComp@@@Z 10008c80 f tlprox.obj
 0001:00007d40       ?GetDocumentation@CPTLibTypeLibImpl@@UAGJHPAPAG0PAK0@Z 10008d40 f tlprox.obj
 0001:00007fe0       ?IsName@CPTLibTypeLibImpl@@UAGJPAGKPAH@Z 10008fe0 f tlprox.obj
 0001:00008110       ?FindName@CPTLibTypeLibImpl@@UAGJPAGKPAPAUITypeInfo@@PAJ0@Z 10009110 f tlprox.obj
 0001:00008300       ?ReleaseTLibAttr@CPTLibTypeLibImpl@@UAGXPAUtagTLIBATTR@@@Z 10009300 f tlprox.obj
 0001:00008320       ?SysKind@CPTLibTypeLibImpl@@QAEJXZ 10009320 f tlprox.obj
 0001:000083e0       ?ReadLibAttr@@YGJPAUIStream@@PAUtagTLIBATTR@@@Z 100093e0 f tlprox.obj
 0001:00008480       ?WriteLibAttr@@YGJPAUIStream@@PAUtagTLIBATTR@@@Z 10009480 f tlprox.obj
 0001:00008520       ??0CStubTypeLib@@AAE@XZ    10009520 f tlstub.obj
 0001:00008540       ??1CStubTypeLib@@AAE@XZ    10009540 f tlstub.obj
 0001:00008550       ?Create@CStubTypeLib@@SAJPAUIUnknown@@PAPAUIRpcStubBuffer@@@Z 10009550 f tlstub.obj
 0001:000085a0       ?QueryInterface@CStubTypeLib@@UAGJABU_GUID@@PAPAX@Z 100095a0 f tlstub.obj
 0001:00008610       ?AddRef@CStubTypeLib@@UAGKXZ 10009610 f tlstub.obj
 0001:00008620       ?Release@CStubTypeLib@@UAGKXZ 10009620 f tlstub.obj
 0001:00008650       ?Connect@CStubTypeLib@@UAGJPAUIUnknown@@@Z 10009650 f tlstub.obj
 0001:00008680       ?Disconnect@CStubTypeLib@@UAGXXZ 10009680 f tlstub.obj
 0001:000086c0       ?Invoke@CStubTypeLib@@UAGJPAUtagRPCOLEMESSAGE@@PAUIRpcChannelBuffer@@@Z 100096c0 f tlstub.obj
 0001:000087f0       ?IsIIDSupported@CStubTypeLib@@UAGPAUIRpcStubBuffer@@ABU_GUID@@@Z 100097f0 f tlstub.obj
 0001:00008820       ?CountRefs@CStubTypeLib@@UAGKXZ 10009820 f tlstub.obj
 0001:00008840       ?GetTypeInfoCount@CStubTypeLib@@QAEJXZ 10009840 f tlstub.obj
 0001:00008870       ?GetTypeInfo@CStubTypeLib@@QAEJXZ 10009870 f tlstub.obj
 0001:00008900       ?GetTypeInfoType@CStubTypeLib@@QAEJXZ 10009900 f tlstub.obj
 0001:00008970       ?GetTypeInfoOfGuid@CStubTypeLib@@QAEJXZ 10009970 f tlstub.obj
 0001:00008a00       ?GetLibAttr@CStubTypeLib@@QAEJXZ 10009a00 f tlstub.obj
 0001:00008a70       ?GetTypeComp@CStubTypeLib@@QAEJXZ 10009a70 f tlstub.obj
 0001:00008ae0       ?GetDocumentation@CStubTypeLib@@QAEJXZ 10009ae0 f tlstub.obj
 0001:00008cb0       ?IsName@CStubTypeLib@@QAEJXZ 10009cb0 f tlstub.obj
 0001:00008d60       ?FindName@CStubTypeLib@@QAEJXZ 10009d60 f tlstub.obj
 0001:00008f40       ?SysKind@CStubTypeLib@@QAEJXZ 10009f40 f tlstub.obj
 0001:00008fa0       ?DebugServerQueryInterface@CStubTypeLib@@UAGJPAPAX@Z 10009fa0 f tlstub.obj
 0001:00008fc0       ?DebugServerRelease@CStubTypeLib@@UAGXPAX@Z 10009fc0 f tlstub.obj
 0001:00008fd0       ??0CProxTypeComp@@AAE@PAUIUnknown@@@Z 10009fd0 f tcprox.obj
 0001:00009000       ?Create@CProxTypeComp@@SAPAUIUnknown@@PAU2@@Z 1000a000 f tcprox.obj
 0001:00009030       ??0CPTCompUnkImpl@@QAE@PAVCProxTypeComp@@@Z 1000a030 f tcprox.obj
 0001:00009050       ?QueryInterface@CPTCompUnkImpl@@UAGJABU_GUID@@PAPAX@Z 1000a050 f tcprox.obj
 0001:000090d0       ?AddRef@CPTCompUnkImpl@@UAGKXZ 1000a0d0 f tcprox.obj
 0001:000090f0       ?Release@CPTCompUnkImpl@@UAGKXZ 1000a0f0 f tcprox.obj
 0001:00009120       ??0CPTCompProxImpl@@QAE@PAVCProxTypeComp@@@Z 1000a120 f tcprox.obj
 0001:00009140       ??1CPTCompProxImpl@@QAE@XZ 1000a140 f tcprox.obj
 0001:00009160       ?QueryInterface@CPTCompProxImpl@@UAGJABU_GUID@@PAPAX@Z 1000a160 f tcprox.obj
 0001:00009180       ?AddRef@CPTCompProxImpl@@UAGKXZ 1000a180 f tcprox.obj
 0001:00009190       ?Release@CPTCompProxImpl@@UAGKXZ 1000a190 f tcprox.obj
 0001:000091a0       ?Connect@CPTCompProxImpl@@UAGJPAUIRpcChannelBuffer@@@Z 1000a1a0 f tcprox.obj
 0001:000091d0       ?Disconnect@CPTCompProxImpl@@UAGXXZ 1000a1d0 f tcprox.obj
 0001:00009200       ??0CPTCompTypeCompImpl@@QAE@PAVCProxTypeComp@@@Z 1000a200 f tcprox.obj
 0001:00009220       ?QueryInterface@CPTCompTypeCompImpl@@UAGJABU_GUID@@PAPAX@Z 1000a220 f tcprox.obj
 0001:00009240       ?AddRef@CPTCompTypeCompImpl@@UAGKXZ 1000a240 f tcprox.obj
 0001:00009260       ?Release@CPTCompTypeCompImpl@@UAGKXZ 1000a260 f tcprox.obj
 0001:00009280       ?Bind@CPTCompTypeCompImpl@@UAGJPAGKGPAPAUITypeInfo@@PAW4tagDESCKIND@@PATtagBINDPTR@@@Z 1000a280 f tcprox.obj
 0001:000094f0       ?BindType@CPTCompTypeCompImpl@@UAGJPAGKPAPAUITypeInfo@@PAPAUITypeComp@@@Z 1000a4f0 f tcprox.obj
 0001:00009660       ?SysKind@CPTCompTypeCompImpl@@QAEJXZ 1000a660 f tcprox.obj
 0001:00009720       ??0CStubTypeComp@@AAE@XZ   1000a720 f tcstub.obj
 0001:00009740       ??1CStubTypeComp@@AAE@XZ   1000a740 f tcstub.obj
 0001:00009750       ?Create@CStubTypeComp@@SAJPAUIUnknown@@PAPAUIRpcStubBuffer@@@Z 1000a750 f tcstub.obj
 0001:000097a0       ?QueryInterface@CStubTypeComp@@UAGJABU_GUID@@PAPAX@Z 1000a7a0 f tcstub.obj
 0001:00009810       ?AddRef@CStubTypeComp@@UAGKXZ 1000a810 f tcstub.obj
 0001:00009820       ?Release@CStubTypeComp@@UAGKXZ 1000a820 f tcstub.obj
 0001:00009850       ?Connect@CStubTypeComp@@UAGJPAUIUnknown@@@Z 1000a850 f tcstub.obj
 0001:00009880       ?Disconnect@CStubTypeComp@@UAGXXZ 1000a880 f tcstub.obj
 0001:000098c0       ?Invoke@CStubTypeComp@@UAGJPAUtagRPCOLEMESSAGE@@PAUIRpcChannelBuffer@@@Z 1000a8c0 f tcstub.obj
 0001:00009980       ?IsIIDSupported@CStubTypeComp@@UAGPAUIRpcStubBuffer@@ABU_GUID@@@Z 1000a980 f tcstub.obj
 0001:000099b0       ?CountRefs@CStubTypeComp@@UAGKXZ 1000a9b0 f tcstub.obj
 0001:000099d0       ?Bind@CStubTypeComp@@QAEJXZ 1000a9d0 f tcstub.obj
 0001:00009bc0       ?BindType@CStubTypeComp@@QAEJXZ 1000abc0 f tcstub.obj
 0001:00009c90       ?SysKind@CStubTypeComp@@QAEJXZ 1000ac90 f tcstub.obj
 0001:00009cf0       ?DebugServerQueryInterface@CStubTypeComp@@UAGJPAPAX@Z 1000acf0 f tcstub.obj
 0001:00009d10       ?DebugServerRelease@CStubTypeComp@@UAGXPAX@Z 1000ad10 f tcstub.obj
 0001:00009d20       ??0CProxUniv@@QAE@PAUIUnknown@@@Z 1000ad20 f ups.obj
 0001:00009d80       ??1CProxUniv@@QAE@XZ       1000ad80 f ups.obj
 0001:00009dd0       ?CanWeRemoteIt@@YAJPAUITypeInfo@@PAGPAH@Z 1000add0 f ups.obj
 0001:00009e70       ?Create@CProxUniv@@SAJPAUIUnknown@@ABU_GUID@@PAPAU2@@Z 1000ae70 f ups.obj
 0001:0000a030       ?CacheFuncDescs@CProxUniv@@QAEJPAUITypeInfo@@@Z 1000b030 f ups.obj
 0001:0000a170       ?QueryInterface@CPriv@CProxUniv@@UAGJABU_GUID@@PAPAX@Z 1000b170 f ups.obj
 0001:0000a1e0       ?AddRef@CPriv@CProxUniv@@UAGKXZ 1000b1e0 f ups.obj
 0001:0000a200       ?Release@CPriv@CProxUniv@@UAGKXZ 1000b200 f ups.obj
 0001:0000a230       ?Connect@CPriv@CProxUniv@@UAGJPAUIRpcChannelBuffer@@@Z 1000b230 f ups.obj
 0001:0000a270       ?Disconnect@CPriv@CProxUniv@@UAGXXZ 1000b270 f ups.obj
 0001:0000a2a0       ?PSInit@CProxUniv@@QAEJXZ  1000b2a0 f ups.obj
 0001:0000a390       _ProxyMethod@16            1000b390 f ups.obj
 0001:0000a860       ??0CStubUniv@@AAE@XZ       1000b860 f ups.obj
 0001:0000a8b0       ??1CStubUniv@@AAE@XZ       1000b8b0 f ups.obj
 0001:0000a8c0       ?Create@CStubUniv@@SAJPAUIUnknown@@ABU_GUID@@PAPAUIRpcStubBuffer@@@Z 1000b8c0 f ups.obj
 0001:0000a930       ?QueryInterface@CStubUniv@@UAGJABU_GUID@@PAPAX@Z 1000b930 f ups.obj
 0001:0000a9a0       ?AddRef@CStubUniv@@UAGKXZ  1000b9a0 f ups.obj
 0001:0000a9b0       ?Release@CStubUniv@@UAGKXZ 1000b9b0 f ups.obj
 0001:0000a9e0       ?Connect@CStubUniv@@UAGJPAUIUnknown@@@Z 1000b9e0 f ups.obj
 0001:0000aa10       ?Disconnect@CStubUniv@@UAGXXZ 1000ba10 f ups.obj
 0001:0000aa50       ?Invoke@CStubUniv@@UAGJPAUtagRPCOLEMESSAGE@@PAUIRpcChannelBuffer@@@Z 1000ba50 f ups.obj
 0001:0000abb0       ?IsIIDSupported@CStubUniv@@UAGPAUIRpcStubBuffer@@ABU_GUID@@@Z 1000bbb0 f ups.obj
 0001:0000abe0       ?CountRefs@CStubUniv@@UAGKXZ 1000bbe0 f ups.obj
 0001:0000ac00       ?DebugServerQueryInterface@CStubUniv@@UAGJPAPAX@Z 1000bc00 f ups.obj
 0001:0000ac20       ?DebugServerRelease@CStubUniv@@UAGXPAX@Z 1000bc20 f ups.obj
 0001:0000ac30       ?PSInit@CStubUniv@@QAEJXZ  1000bc30 f ups.obj
 0001:0000acc0       ?DispatchMethod@CStubUniv@@QAEJH@Z 1000bcc0 f ups.obj
 0001:0000b040       ?VarVtOfIface@@YAJPAUITypeInfo@@PAUtagTYPEATTR@@PAGPAU_GUID@@@Z 1000c040 f ups.obj
 0001:0000b090       ?VarVtOfUDT@@YAJPAUITypeInfo@@PAUtagTYPEDESC@@PAGPAU_GUID@@@Z 1000c090 f ups.obj
 0001:0000b200       ?VarVtOfTypeDesc@@YAJPAUITypeInfo@@PAUtagTYPEDESC@@PAGPAU_GUID@@@Z 1000c200 f ups.obj
 0001:0000b410       ?SzLibIdOfIID@@YAJABU_GUID@@PADJ@Z 1000c410 f ups.obj
 0001:0000b4a0       ?FIsLCID@@YAHPAD@Z         1000c4a0 f ups.obj
 0001:0000b500       ?GetTypeInfoOfIID@@YAJABU_GUID@@PAPAUITypeInfo@@@Z 1000c500 f ups.obj
 0001:0000b840       ?GetCbStackCleanupOfFuncDesc@@YAJPAUtagFUNCDESC@@PAUITypeInfo@@PAH@Z 1000c840 f ups.obj
 0001:0000b8f0       ?UnivQueryInterface@@YGJPAVCProxUniv@@ABU_GUID@@PAPAX@Z 1000c8f0 f uvft.obj
 0001:0000b910       ?UnivAddRef@@YGKPAVCProxUniv@@@Z 1000c910 f uvft.obj
 0001:0000b920       ?UnivRelease@@YGKPAVCProxUniv@@@Z 1000c920 f uvft.obj
 0001:0000b930       ?UnivGetTypeInfoCount@@YGJPAVCProxUniv@@PAI@Z 1000c930 f uvft.obj
 0001:0000b950       ?UnivGetTypeInfo@@YGJPAVCProxUniv@@IKPAPAUITypeInfo@@@Z 1000c950 f uvft.obj
 0001:0000b980       ?UnivGetIDsOfNames@@YGJPAVCProxUniv@@ABU_GUID@@PAPAGIKPAJ@Z 1000c980 f uvft.obj
 0001:0000b9b0       ?UnivInvoke@@YGJPAVCProxUniv@@JABU_GUID@@KGPAUtagDISPPARAMS@@PAUtagVARIANT@@PAUtagEXCEPINFO@@PAI@Z 1000c9b0 f uvft.obj
 0001:0000b9f0       ??0CStreamOnBuffer@@QAE@PAUIRpcChannelBuffer@@PAUtagRPCOLEMESSAGE@@ABU_GUID@@K@Z 1000c9f0 f dispstrm.obj
 0001:0000ba80       ??1CStreamOnBuffer@@QAE@XZ 1000ca80 f dispstrm.obj
 0001:0000baa0       ?QueryInterface@CStreamOnBuffer@@UAGJABU_GUID@@PAPAX@Z 1000caa0 f dispstrm.obj
 0001:0000baf0       ?AddRef@CStreamOnBuffer@@UAGKXZ 1000caf0 f dispstrm.obj
 0001:0000bb00       ?Release@CStreamOnBuffer@@UAGKXZ 1000cb00 f dispstrm.obj
 0001:0000bb40       ?Read@CStreamOnBuffer@@UAGJPAXKPAK@Z 1000cb40 f dispstrm.obj
 0001:0000bba0       ?Write@CStreamOnBuffer@@UAGJPBXKPAK@Z 1000cba0 f dispstrm.obj
 0001:0000bc30       ?Seek@CStreamOnBuffer@@UAGJT_LARGE_INTEGER@@KPAT_ULARGE_INTEGER@@@Z 1000cc30 f dispstrm.obj
 0001:0000bcb0       ?SetSize@CStreamOnBuffer@@UAGJT_ULARGE_INTEGER@@@Z 1000ccb0 f dispstrm.obj
 0001:0000bcc0       ?CopyTo@CStreamOnBuffer@@UAGJPAUIStream@@T_ULARGE_INTEGER@@PAT3@2@Z 1000ccc0 f dispstrm.obj
 0001:0000bcd0       ?Commit@CStreamOnBuffer@@UAGJK@Z 1000ccd0 f dispstrm.obj
 0001:0000bce0       ?Revert@CStreamOnBuffer@@UAGJXZ 1000cce0 f dispstrm.obj
 0001:0000bcf0       ?LockRegion@CStreamOnBuffer@@UAGJT_ULARGE_INTEGER@@0K@Z 1000ccf0 f dispstrm.obj
 0001:0000bd00       ?UnlockRegion@CStreamOnBuffer@@UAGJT_ULARGE_INTEGER@@0K@Z 1000cd00 f dispstrm.obj
 0001:0000bd10       ?Stat@CStreamOnBuffer@@UAGJPAUtagSTATSTG@@K@Z 1000cd10 f dispstrm.obj
 0001:0000bd20       ?Clone@CStreamOnBuffer@@UAGJPAPAUIStream@@@Z 1000cd20 f dispstrm.obj
 0001:0000bd30       ?Call@CStreamOnBuffer@@UAGJXZ 1000cd30 f dispstrm.obj
 0001:0000bdc0       ?RewindBuffer@CStreamOnBuffer@@UAGJXZ 1000cdc0 f dispstrm.obj
 0001:0000bdf0       ?ResetBuffer@CStreamOnBuffer@@UAGJXZ 1000cdf0 f dispstrm.obj
 0001:0000be40       ?ResizeBuffer@CStreamOnBuffer@@UAGJK@Z 1000ce40 f dispstrm.obj
 0001:0000bed0       _IndexOfParam@12           1000ced0 f disphelp.obj
 0001:0000bf20       _DispGetParam@20           1000cf20 f disphelp.obj
 0001:0000bf80       _DispGetIDsOfNames@16      1000cf80 f disphelp.obj
 0001:0000bfa0       _DispInvoke@32             1000cfa0 f disphelp.obj
 0001:0000bfe0       _DoInvokeMethod@32         1000cfe0 f invhelp.obj
 0001:0000c050       _InvokeCdecl               1000d050 f invoke.obj
 0001:0000c1c9       _InvokeStdCall             1000d1c9 f invoke.obj
 0001:0000c33f       _UM3                       1000d33f   invoke.obj
 0001:0000c349       _UM4                       1000d349   invoke.obj
 0001:0000c353       _UM5                       1000d353   invoke.obj
 0001:0000c35d       _UM6                       1000d35d   invoke.obj
 0001:0000c367       _UM7                       1000d367   invoke.obj
 0001:0000c371       _UM8                       1000d371   invoke.obj
 0001:0000c37b       _UM9                       1000d37b   invoke.obj
 0001:0000c385       _UM10                      1000d385   invoke.obj
 0001:0000c38f       _UM11                      1000d38f   invoke.obj
 0001:0000c399       _UM12                      1000d399   invoke.obj
 0001:0000c3a3       _UM13                      1000d3a3   invoke.obj
 0001:0000c3ad       _UM14                      1000d3ad   invoke.obj
 0001:0000c3b7       _UM15                      1000d3b7   invoke.obj
 0001:0000c3c1       _UM16                      1000d3c1   invoke.obj
 0001:0000c3cb       _UM17                      1000d3cb   invoke.obj
 0001:0000c3d5       _UM18                      1000d3d5   invoke.obj
 0001:0000c3df       _UM19                      1000d3df   invoke.obj
 0001:0000c3e9       _UM20                      1000d3e9   invoke.obj
 0001:0000c3f3       _UM21                      1000d3f3   invoke.obj
 0001:0000c3fd       _UM22                      1000d3fd   invoke.obj
 0001:0000c407       _UM23                      1000d407   invoke.obj
 0001:0000c411       _UM24                      1000d411   invoke.obj
 0001:0000c41b       _UM25                      1000d41b   invoke.obj
 0001:0000c425       _UM26                      1000d425   invoke.obj
 0001:0000c42f       _UM27                      1000d42f   invoke.obj
 0001:0000c439       _UM28                      1000d439   invoke.obj
 0001:0000c443       _UM29                      1000d443   invoke.obj
 0001:0000c44d       _UM30                      1000d44d   invoke.obj
 0001:0000c457       _UM31                      1000d457   invoke.obj
 0001:0000c461       _UM32                      1000d461   invoke.obj
 0001:0000c46b       _UM33                      1000d46b   invoke.obj
 0001:0000c475       _UM34                      1000d475   invoke.obj
 0001:0000c47f       _UM35                      1000d47f   invoke.obj
 0001:0000c489       _UM36                      1000d489   invoke.obj
 0001:0000c493       _UM37                      1000d493   invoke.obj
 0001:0000c49d       _UM38                      1000d49d   invoke.obj
 0001:0000c4a7       _UM39                      1000d4a7   invoke.obj
 0001:0000c4b1       _UM40                      1000d4b1   invoke.obj
 0001:0000c4bb       _UM41                      1000d4bb   invoke.obj
 0001:0000c4c5       _UM42                      1000d4c5   invoke.obj
 0001:0000c4cf       _UM43                      1000d4cf   invoke.obj
 0001:0000c4d9       _UM44                      1000d4d9   invoke.obj
 0001:0000c4e3       _UM45                      1000d4e3   invoke.obj
 0001:0000c4ed       _UM46                      1000d4ed   invoke.obj
 0001:0000c4f7       _UM47                      1000d4f7   invoke.obj
 0001:0000c501       _UM48                      1000d501   invoke.obj
 0001:0000c50b       _UM49                      1000d50b   invoke.obj
 0001:0000c515       _UM50                      1000d515   invoke.obj
 0001:0000c51f       _UM51                      1000d51f   invoke.obj
 0001:0000c529       _UM52                      1000d529   invoke.obj
 0001:0000c533       _UM53                      1000d533   invoke.obj
 0001:0000c53d       _UM54                      1000d53d   invoke.obj
 0001:0000c547       _UM55                      1000d547   invoke.obj
 0001:0000c551       _UM56                      1000d551   invoke.obj
 0001:0000c55b       _UM57                      1000d55b   invoke.obj
 0001:0000c565       _UM58                      1000d565   invoke.obj
 0001:0000c56f       _UM59                      1000d56f   invoke.obj
 0001:0000c579       _UM60                      1000d579   invoke.obj
 0001:0000c583       _UM61                      1000d583   invoke.obj
 0001:0000c58d       _UM62                      1000d58d   invoke.obj
 0001:0000c597       _UM63                      1000d597   invoke.obj
 0001:0000c5a1       _UM64                      1000d5a1   invoke.obj
 0001:0000c5ab       _UM65                      1000d5ab   invoke.obj
 0001:0000c5b5       _UM66                      1000d5b5   invoke.obj
 0001:0000c5bf       _UM67                      1000d5bf   invoke.obj
 0001:0000c5c9       _UM68                      1000d5c9   invoke.obj
 0001:0000c5d3       _UM69                      1000d5d3   invoke.obj
 0001:0000c5dd       _UM70                      1000d5dd   invoke.obj
 0001:0000c5e7       _UM71                      1000d5e7   invoke.obj
 0001:0000c5f1       _UM72                      1000d5f1   invoke.obj
 0001:0000c5fb       _UM73                      1000d5fb   invoke.obj
 0001:0000c605       _UM74                      1000d605   invoke.obj
 0001:0000c60f       _UM75                      1000d60f   invoke.obj
 0001:0000c619       _UM76                      1000d619   invoke.obj
 0001:0000c623       _UM77                      1000d623   invoke.obj
 0001:0000c62d       _UM78                      1000d62d   invoke.obj
 0001:0000c637       _UM79                      1000d637   invoke.obj
 0001:0000c641       _UM80                      1000d641   invoke.obj
 0001:0000c64b       _UM81                      1000d64b   invoke.obj
 0001:0000c655       _UM82                      1000d655   invoke.obj
 0001:0000c65f       _UM83                      1000d65f   invoke.obj
 0001:0000c669       _UM84                      1000d669   invoke.obj
 0001:0000c673       _UM85                      1000d673   invoke.obj
 0001:0000c67d       _UM86                      1000d67d   invoke.obj
 0001:0000c687       _UM87                      1000d687   invoke.obj
 0001:0000c691       _UM88                      1000d691   invoke.obj
 0001:0000c69b       _UM89                      1000d69b   invoke.obj
 0001:0000c6a5       _UM90                      1000d6a5   invoke.obj
 0001:0000c6af       _UM91                      1000d6af   invoke.obj
 0001:0000c6b9       _UM92                      1000d6b9   invoke.obj
 0001:0000c6c3       _UM93                      1000d6c3   invoke.obj
 0001:0000c6cd       _UM94                      1000d6cd   invoke.obj
 0001:0000c6d7       _UM95                      1000d6d7   invoke.obj
 0001:0000c6e1       _UM96                      1000d6e1   invoke.obj
 0001:0000c6eb       _UM97                      1000d6eb   invoke.obj
 0001:0000c6f5       _UM98                      1000d6f5   invoke.obj
 0001:0000c6ff       _UM99                      1000d6ff   invoke.obj
 0001:0000c709       _UM100                     1000d709   invoke.obj
 0001:0000c713       _UM101                     1000d713   invoke.obj
 0001:0000c71d       _UM102                     1000d71d   invoke.obj
 0001:0000c727       _UM103                     1000d727   invoke.obj
 0001:0000c731       _UM104                     1000d731   invoke.obj
 0001:0000c73b       _UM105                     1000d73b   invoke.obj
 0001:0000c745       _UM106                     1000d745   invoke.obj
 0001:0000c74f       _UM107                     1000d74f   invoke.obj
 0001:0000c759       _UM108                     1000d759   invoke.obj
 0001:0000c763       _UM109                     1000d763   invoke.obj
 0001:0000c76d       _UM110                     1000d76d   invoke.obj
 0001:0000c777       _UM111                     1000d777   invoke.obj
 0001:0000c781       _UM112                     1000d781   invoke.obj
 0001:0000c78b       _UM113                     1000d78b   invoke.obj
 0001:0000c795       _UM114                     1000d795   invoke.obj
 0001:0000c79f       _UM115                     1000d79f   invoke.obj
 0001:0000c7a9       _UM116                     1000d7a9   invoke.obj
 0001:0000c7b3       _UM117                     1000d7b3   invoke.obj
 0001:0000c7bd       _UM118                     1000d7bd   invoke.obj
 0001:0000c7c7       _UM119                     1000d7c7   invoke.obj
 0001:0000c7d1       _UM120                     1000d7d1   invoke.obj
 0001:0000c7db       _UM121                     1000d7db   invoke.obj
 0001:0000c7e5       _UM122                     1000d7e5   invoke.obj
 0001:0000c7ef       _UM123                     1000d7ef   invoke.obj
 0001:0000c7f9       _UM124                     1000d7f9   invoke.obj
 0001:0000c803       _UM125                     1000d803   invoke.obj
 0001:0000c80d       _UM126                     1000d80d   invoke.obj
 0001:0000c817       _UM127                     1000d817   invoke.obj
 0001:0000c821       _UM128                     1000d821   invoke.obj
 0001:0000c82b       _UM129                     1000d82b   invoke.obj
 0001:0000c835       _UM130                     1000d835   invoke.obj
 0001:0000c83f       _UM131                     1000d83f   invoke.obj
 0001:0000c849       _UM132                     1000d849   invoke.obj
 0001:0000c853       _UM133                     1000d853   invoke.obj
 0001:0000c85d       _UM134                     1000d85d   invoke.obj
 0001:0000c867       _UM135                     1000d867   invoke.obj
 0001:0000c871       _UM136                     1000d871   invoke.obj
 0001:0000c87b       _UM137                     1000d87b   invoke.obj
 0001:0000c885       _UM138                     1000d885   invoke.obj
 0001:0000c88f       _UM139                     1000d88f   invoke.obj
 0001:0000c899       _UM140                     1000d899   invoke.obj
 0001:0000c8a3       _UM141                     1000d8a3   invoke.obj
 0001:0000c8ad       _UM142                     1000d8ad   invoke.obj
 0001:0000c8b7       _UM143                     1000d8b7   invoke.obj
 0001:0000c8c1       _UM144                     1000d8c1   invoke.obj
 0001:0000c8cb       _UM145                     1000d8cb   invoke.obj
 0001:0000c8d5       _UM146                     1000d8d5   invoke.obj
 0001:0000c8df       _UM147                     1000d8df   invoke.obj
 0001:0000c8e9       _UM148                     1000d8e9   invoke.obj
 0001:0000c8f3       _UM149                     1000d8f3   invoke.obj
 0001:0000c8fd       _UM150                     1000d8fd   invoke.obj
 0001:0000c907       _UM151                     1000d907   invoke.obj
 0001:0000c911       _UM152                     1000d911   invoke.obj
 0001:0000c91b       _UM153                     1000d91b   invoke.obj
 0001:0000c925       _UM154                     1000d925   invoke.obj
 0001:0000c92f       _UM155                     1000d92f   invoke.obj
 0001:0000c939       _UM156                     1000d939   invoke.obj
 0001:0000c943       _UM157                     1000d943   invoke.obj
 0001:0000c94d       _UM158                     1000d94d   invoke.obj
 0001:0000c957       _UM159                     1000d957   invoke.obj
 0001:0000c961       _UM160                     1000d961   invoke.obj
 0001:0000c96b       _UM161                     1000d96b   invoke.obj
 0001:0000c975       _UM162                     1000d975   invoke.obj
 0001:0000c97f       _UM163                     1000d97f   invoke.obj
 0001:0000c989       _UM164                     1000d989   invoke.obj
 0001:0000c993       _UM165                     1000d993   invoke.obj
 0001:0000c99d       _UM166                     1000d99d   invoke.obj
 0001:0000c9a7       _UM167                     1000d9a7   invoke.obj
 0001:0000c9b1       _UM168                     1000d9b1   invoke.obj
 0001:0000c9bb       _UM169                     1000d9bb   invoke.obj
 0001:0000c9c5       _UM170                     1000d9c5   invoke.obj
 0001:0000c9cf       _UM171                     1000d9cf   invoke.obj
 0001:0000c9d9       _UM172                     1000d9d9   invoke.obj
 0001:0000c9e3       _UM173                     1000d9e3   invoke.obj
 0001:0000c9ed       _UM174                     1000d9ed   invoke.obj
 0001:0000c9f7       _UM175                     1000d9f7   invoke.obj
 0001:0000ca01       _UM176                     1000da01   invoke.obj
 0001:0000ca0b       _UM177                     1000da0b   invoke.obj
 0001:0000ca15       _UM178                     1000da15   invoke.obj
 0001:0000ca1f       _UM179                     1000da1f   invoke.obj
 0001:0000ca29       _UM180                     1000da29   invoke.obj
 0001:0000ca33       _UM181                     1000da33   invoke.obj
 0001:0000ca3d       _UM182                     1000da3d   invoke.obj
 0001:0000ca47       _UM183                     1000da47   invoke.obj
 0001:0000ca51       _UM184                     1000da51   invoke.obj
 0001:0000ca5b       _UM185                     1000da5b   invoke.obj
 0001:0000ca65       _UM186                     1000da65   invoke.obj
 0001:0000ca6f       _UM187                     1000da6f   invoke.obj
 0001:0000ca79       _UM188                     1000da79   invoke.obj
 0001:0000ca83       _UM189                     1000da83   invoke.obj
 0001:0000ca8d       _UM190                     1000da8d   invoke.obj
 0001:0000ca97       _UM191                     1000da97   invoke.obj
 0001:0000caa1       _UM192                     1000daa1   invoke.obj
 0001:0000caab       _UM193                     1000daab   invoke.obj
 0001:0000cab5       _UM194                     1000dab5   invoke.obj
 0001:0000cabf       _UM195                     1000dabf   invoke.obj
 0001:0000cac9       _UM196                     1000dac9   invoke.obj
 0001:0000cad3       _UM197                     1000dad3   invoke.obj
 0001:0000cadd       _UM198                     1000dadd   invoke.obj
 0001:0000cae7       _UM199                     1000dae7   invoke.obj
 0001:0000caf1       _UM200                     1000daf1   invoke.obj
 0001:0000cafb       _UM201                     1000dafb   invoke.obj
 0001:0000cb05       _UM202                     1000db05   invoke.obj
 0001:0000cb0f       _UM203                     1000db0f   invoke.obj
 0001:0000cb19       _UM204                     1000db19   invoke.obj
 0001:0000cb23       _UM205                     1000db23   invoke.obj
 0001:0000cb2d       _UM206                     1000db2d   invoke.obj
 0001:0000cb37       _UM207                     1000db37   invoke.obj
 0001:0000cb41       _UM208                     1000db41   invoke.obj
 0001:0000cb4b       _UM209                     1000db4b   invoke.obj
 0001:0000cb55       _UM210                     1000db55   invoke.obj
 0001:0000cb5f       _UM211                     1000db5f   invoke.obj
 0001:0000cb69       _UM212                     1000db69   invoke.obj
 0001:0000cb73       _UM213                     1000db73   invoke.obj
 0001:0000cb7d       _UM214                     1000db7d   invoke.obj
 0001:0000cb87       _UM215                     1000db87   invoke.obj
 0001:0000cb91       _UM216                     1000db91   invoke.obj
 0001:0000cb9b       _UM217                     1000db9b   invoke.obj
 0001:0000cba5       _UM218                     1000dba5   invoke.obj
 0001:0000cbaf       _UM219                     1000dbaf   invoke.obj
 0001:0000cbb9       _UM220                     1000dbb9   invoke.obj
 0001:0000cbc3       _UM221                     1000dbc3   invoke.obj
 0001:0000cbcd       _UM222                     1000dbcd   invoke.obj
 0001:0000cbd7       _UM223                     1000dbd7   invoke.obj
 0001:0000cbe1       _UM224                     1000dbe1   invoke.obj
 0001:0000cbeb       _UM225                     1000dbeb   invoke.obj
 0001:0000cbf5       _UM226                     1000dbf5   invoke.obj
 0001:0000cbff       _UM227                     1000dbff   invoke.obj
 0001:0000cc09       _UM228                     1000dc09   invoke.obj
 0001:0000cc13       _UM229                     1000dc13   invoke.obj
 0001:0000cc1d       _UM230                     1000dc1d   invoke.obj
 0001:0000cc27       _UM231                     1000dc27   invoke.obj
 0001:0000cc31       _UM232                     1000dc31   invoke.obj
 0001:0000cc3b       _UM233                     1000dc3b   invoke.obj
 0001:0000cc45       _UM234                     1000dc45   invoke.obj
 0001:0000cc4f       _UM235                     1000dc4f   invoke.obj
 0001:0000cc59       _UM236                     1000dc59   invoke.obj
 0001:0000cc63       _UM237                     1000dc63   invoke.obj
 0001:0000cc6d       _UM238                     1000dc6d   invoke.obj
 0001:0000cc77       _UM239                     1000dc77   invoke.obj
 0001:0000cc81       _UM240                     1000dc81   invoke.obj
 0001:0000cc8b       _UM241                     1000dc8b   invoke.obj
 0001:0000cc95       _UM242                     1000dc95   invoke.obj
 0001:0000cc9f       _UM243                     1000dc9f   invoke.obj
 0001:0000cca9       _UM244                     1000dca9   invoke.obj
 0001:0000ccb3       _UM245                     1000dcb3   invoke.obj
 0001:0000ccbd       _UM246                     1000dcbd   invoke.obj
 0001:0000ccc7       _UM247                     1000dcc7   invoke.obj
 0001:0000ccd1       _UM248                     1000dcd1   invoke.obj
 0001:0000ccdb       _UM249                     1000dcdb   invoke.obj
 0001:0000cce5       _UM250                     1000dce5   invoke.obj
 0001:0000ccef       _UM251                     1000dcef   invoke.obj
 0001:0000ccf9       _UM252                     1000dcf9   invoke.obj
 0001:0000cd03       _UM253                     1000dd03   invoke.obj
 0001:0000cd0d       _UM254                     1000dd0d   invoke.obj
 0001:0000cd17       _UM255                     1000dd17   invoke.obj
 0001:0000cd21       _UM256                     1000dd21   invoke.obj
 0001:0000cd2b       _UM257                     1000dd2b   invoke.obj
 0001:0000cd35       _UM258                     1000dd35   invoke.obj
 0001:0000cd3f       _UM259                     1000dd3f   invoke.obj
 0001:0000cd49       _UM260                     1000dd49   invoke.obj
 0001:0000cd53       _UM261                     1000dd53   invoke.obj
 0001:0000cd5d       _UM262                     1000dd5d   invoke.obj
 0001:0000cd67       _UM263                     1000dd67   invoke.obj
 0001:0000cd71       _UM264                     1000dd71   invoke.obj
 0001:0000cd7b       _UM265                     1000dd7b   invoke.obj
 0001:0000cd85       _UM266                     1000dd85   invoke.obj
 0001:0000cd8f       _UM267                     1000dd8f   invoke.obj
 0001:0000cd99       _UM268                     1000dd99   invoke.obj
 0001:0000cda3       _UM269                     1000dda3   invoke.obj
 0001:0000cdad       _UM270                     1000ddad   invoke.obj
 0001:0000cdb7       _UM271                     1000ddb7   invoke.obj
 0001:0000cdc1       _UM272                     1000ddc1   invoke.obj
 0001:0000cdcb       _UM273                     1000ddcb   invoke.obj
 0001:0000cdd5       _UM274                     1000ddd5   invoke.obj
 0001:0000cddf       _UM275                     1000dddf   invoke.obj
 0001:0000cde9       _UM276                     1000dde9   invoke.obj
 0001:0000cdf3       _UM277                     1000ddf3   invoke.obj
 0001:0000cdfd       _UM278                     1000ddfd   invoke.obj
 0001:0000ce07       _UM279                     1000de07   invoke.obj
 0001:0000ce11       _UM280                     1000de11   invoke.obj
 0001:0000ce1b       _UM281                     1000de1b   invoke.obj
 0001:0000ce25       _UM282                     1000de25   invoke.obj
 0001:0000ce2f       _UM283                     1000de2f   invoke.obj
 0001:0000ce39       _UM284                     1000de39   invoke.obj
 0001:0000ce43       _UM285                     1000de43   invoke.obj
 0001:0000ce4d       _UM286                     1000de4d   invoke.obj
 0001:0000ce57       _UM287                     1000de57   invoke.obj
 0001:0000ce61       _UM288                     1000de61   invoke.obj
 0001:0000ce6b       _UM289                     1000de6b   invoke.obj
 0001:0000ce75       _UM290                     1000de75   invoke.obj
 0001:0000ce7f       _UM291                     1000de7f   invoke.obj
 0001:0000ce89       _UM292                     1000de89   invoke.obj
 0001:0000ce93       _UM293                     1000de93   invoke.obj
 0001:0000ce9d       _UM294                     1000de9d   invoke.obj
 0001:0000cea7       _UM295                     1000dea7   invoke.obj
 0001:0000ceb1       _UM296                     1000deb1   invoke.obj
 0001:0000cebb       _UM297                     1000debb   invoke.obj
 0001:0000cec5       _UM298                     1000dec5   invoke.obj
 0001:0000cecf       _UM299                     1000decf   invoke.obj
 0001:0000ced9       _UM300                     1000ded9   invoke.obj
 0001:0000cee3       _UM301                     1000dee3   invoke.obj
 0001:0000ceed       _UM302                     1000deed   invoke.obj
 0001:0000cef7       _UM303                     1000def7   invoke.obj
 0001:0000cf01       _UM304                     1000df01   invoke.obj
 0001:0000cf0b       _UM305                     1000df0b   invoke.obj
 0001:0000cf15       _UM306                     1000df15   invoke.obj
 0001:0000cf1f       _UM307                     1000df1f   invoke.obj
 0001:0000cf29       _UM308                     1000df29   invoke.obj
 0001:0000cf33       _UM309                     1000df33   invoke.obj
 0001:0000cf3d       _UM310                     1000df3d   invoke.obj
 0001:0000cf47       _UM311                     1000df47   invoke.obj
 0001:0000cf51       _UM312                     1000df51   invoke.obj
 0001:0000cf5b       _UM313                     1000df5b   invoke.obj
 0001:0000cf65       _UM314                     1000df65   invoke.obj
 0001:0000cf6f       _UM315                     1000df6f   invoke.obj
 0001:0000cf79       _UM316                     1000df79   invoke.obj
 0001:0000cf83       _UM317                     1000df83   invoke.obj
 0001:0000cf8d       _UM318                     1000df8d   invoke.obj
 0001:0000cf97       _UM319                     1000df97   invoke.obj
 0001:0000cfa1       _UM320                     1000dfa1   invoke.obj
 0001:0000cfab       _UM321                     1000dfab   invoke.obj
 0001:0000cfb5       _UM322                     1000dfb5   invoke.obj
 0001:0000cfbf       _UM323                     1000dfbf   invoke.obj
 0001:0000cfc9       _UM324                     1000dfc9   invoke.obj
 0001:0000cfd3       _UM325                     1000dfd3   invoke.obj
 0001:0000cfdd       _UM326                     1000dfdd   invoke.obj
 0001:0000cfe7       _UM327                     1000dfe7   invoke.obj
 0001:0000cff1       _UM328                     1000dff1   invoke.obj
 0001:0000cffb       _UM329                     1000dffb   invoke.obj
 0001:0000d005       _UM330                     1000e005   invoke.obj
 0001:0000d00f       _UM331                     1000e00f   invoke.obj
 0001:0000d019       _UM332                     1000e019   invoke.obj
 0001:0000d023       _UM333                     1000e023   invoke.obj
 0001:0000d02d       _UM334                     1000e02d   invoke.obj
 0001:0000d037       _UM335                     1000e037   invoke.obj
 0001:0000d041       _UM336                     1000e041   invoke.obj
 0001:0000d04b       _UM337                     1000e04b   invoke.obj
 0001:0000d055       _UM338                     1000e055   invoke.obj
 0001:0000d05f       _UM339                     1000e05f   invoke.obj
 0001:0000d069       _UM340                     1000e069   invoke.obj
 0001:0000d073       _UM341                     1000e073   invoke.obj
 0001:0000d07d       _UM342                     1000e07d   invoke.obj
 0001:0000d087       _UM343                     1000e087   invoke.obj
 0001:0000d091       _UM344                     1000e091   invoke.obj
 0001:0000d09b       _UM345                     1000e09b   invoke.obj
 0001:0000d0a5       _UM346                     1000e0a5   invoke.obj
 0001:0000d0af       _UM347                     1000e0af   invoke.obj
 0001:0000d0b9       _UM348                     1000e0b9   invoke.obj
 0001:0000d0c3       _UM349                     1000e0c3   invoke.obj
 0001:0000d0cd       _UM350                     1000e0cd   invoke.obj
 0001:0000d0d7       _UM351                     1000e0d7   invoke.obj
 0001:0000d0e1       _UM352                     1000e0e1   invoke.obj
 0001:0000d0eb       _UM353                     1000e0eb   invoke.obj
 0001:0000d0f5       _UM354                     1000e0f5   invoke.obj
 0001:0000d0ff       _UM355                     1000e0ff   invoke.obj
 0001:0000d109       _UM356                     1000e109   invoke.obj
 0001:0000d113       _UM357                     1000e113   invoke.obj
 0001:0000d11d       _UM358                     1000e11d   invoke.obj
 0001:0000d127       _UM359                     1000e127   invoke.obj
 0001:0000d131       _UM360                     1000e131   invoke.obj
 0001:0000d13b       _UM361                     1000e13b   invoke.obj
 0001:0000d145       _UM362                     1000e145   invoke.obj
 0001:0000d14f       _UM363                     1000e14f   invoke.obj
 0001:0000d159       _UM364                     1000e159   invoke.obj
 0001:0000d163       _UM365                     1000e163   invoke.obj
 0001:0000d16d       _UM366                     1000e16d   invoke.obj
 0001:0000d177       _UM367                     1000e177   invoke.obj
 0001:0000d181       _UM368                     1000e181   invoke.obj
 0001:0000d18b       _UM369                     1000e18b   invoke.obj
 0001:0000d195       _UM370                     1000e195   invoke.obj
 0001:0000d19f       _UM371                     1000e19f   invoke.obj
 0001:0000d1a9       _UM372                     1000e1a9   invoke.obj
 0001:0000d1b3       _UM373                     1000e1b3   invoke.obj
 0001:0000d1bd       _UM374                     1000e1bd   invoke.obj
 0001:0000d1c7       _UM375                     1000e1c7   invoke.obj
 0001:0000d1d1       _UM376                     1000e1d1   invoke.obj
 0001:0000d1db       _UM377                     1000e1db   invoke.obj
 0001:0000d1e5       _UM378                     1000e1e5   invoke.obj
 0001:0000d1ef       _UM379                     1000e1ef   invoke.obj
 0001:0000d1f9       _UM380                     1000e1f9   invoke.obj
 0001:0000d203       _UM381                     1000e203   invoke.obj
 0001:0000d20d       _UM382                     1000e20d   invoke.obj
 0001:0000d217       _UM383                     1000e217   invoke.obj
 0001:0000d221       _UM384                     1000e221   invoke.obj
 0001:0000d22b       _UM385                     1000e22b   invoke.obj
 0001:0000d235       _UM386                     1000e235   invoke.obj
 0001:0000d23f       _UM387                     1000e23f   invoke.obj
 0001:0000d249       _UM388                     1000e249   invoke.obj
 0001:0000d253       _UM389                     1000e253   invoke.obj
 0001:0000d25d       _UM390                     1000e25d   invoke.obj
 0001:0000d267       _UM391                     1000e267   invoke.obj
 0001:0000d271       _UM392                     1000e271   invoke.obj
 0001:0000d27b       _UM393                     1000e27b   invoke.obj
 0001:0000d285       _UM394                     1000e285   invoke.obj
 0001:0000d28f       _UM395                     1000e28f   invoke.obj
 0001:0000d299       _UM396                     1000e299   invoke.obj
 0001:0000d2a3       _UM397                     1000e2a3   invoke.obj
 0001:0000d2ad       _UM398                     1000e2ad   invoke.obj
 0001:0000d2b7       _UM399                     1000e2b7   invoke.obj
 0001:0000d2c1       _UM400                     1000e2c1   invoke.obj
 0001:0000d2cb       _UM401                     1000e2cb   invoke.obj
 0001:0000d2d5       _UM402                     1000e2d5   invoke.obj
 0001:0000d2df       _UM403                     1000e2df   invoke.obj
 0001:0000d2e9       _UM404                     1000e2e9   invoke.obj
 0001:0000d2f3       _UM405                     1000e2f3   invoke.obj
 0001:0000d2fd       _UM406                     1000e2fd   invoke.obj
 0001:0000d307       _UM407                     1000e307   invoke.obj
 0001:0000d311       _UM408                     1000e311   invoke.obj
 0001:0000d31b       _UM409                     1000e31b   invoke.obj
 0001:0000d325       _UM410                     1000e325   invoke.obj
 0001:0000d32f       _UM411                     1000e32f   invoke.obj
 0001:0000d339       _UM412                     1000e339   invoke.obj
 0001:0000d343       _UM413                     1000e343   invoke.obj
 0001:0000d34d       _UM414                     1000e34d   invoke.obj
 0001:0000d357       _UM415                     1000e357   invoke.obj
 0001:0000d361       _UM416                     1000e361   invoke.obj
 0001:0000d36b       _UM417                     1000e36b   invoke.obj
 0001:0000d375       _UM418                     1000e375   invoke.obj
 0001:0000d37f       _UM419                     1000e37f   invoke.obj
 0001:0000d389       _UM420                     1000e389   invoke.obj
 0001:0000d393       _UM421                     1000e393   invoke.obj
 0001:0000d39d       _UM422                     1000e39d   invoke.obj
 0001:0000d3a7       _UM423                     1000e3a7   invoke.obj
 0001:0000d3b1       _UM424                     1000e3b1   invoke.obj
 0001:0000d3bb       _UM425                     1000e3bb   invoke.obj
 0001:0000d3c5       _UM426                     1000e3c5   invoke.obj
 0001:0000d3cf       _UM427                     1000e3cf   invoke.obj
 0001:0000d3d9       _UM428                     1000e3d9   invoke.obj
 0001:0000d3e3       _UM429                     1000e3e3   invoke.obj
 0001:0000d3ed       _UM430                     1000e3ed   invoke.obj
 0001:0000d3f7       _UM431                     1000e3f7   invoke.obj
 0001:0000d401       _UM432                     1000e401   invoke.obj
 0001:0000d40b       _UM433                     1000e40b   invoke.obj
 0001:0000d415       _UM434                     1000e415   invoke.obj
 0001:0000d41f       _UM435                     1000e41f   invoke.obj
 0001:0000d429       _UM436                     1000e429   invoke.obj
 0001:0000d433       _UM437                     1000e433   invoke.obj
 0001:0000d43d       _UM438                     1000e43d   invoke.obj
 0001:0000d447       _UM439                     1000e447   invoke.obj
 0001:0000d451       _UM440                     1000e451   invoke.obj
 0001:0000d45b       _UM441                     1000e45b   invoke.obj
 0001:0000d465       _UM442                     1000e465   invoke.obj
 0001:0000d46f       _UM443                     1000e46f   invoke.obj
 0001:0000d479       _UM444                     1000e479   invoke.obj
 0001:0000d483       _UM445                     1000e483   invoke.obj
 0001:0000d48d       _UM446                     1000e48d   invoke.obj
 0001:0000d497       _UM447                     1000e497   invoke.obj
 0001:0000d4a1       _UM448                     1000e4a1   invoke.obj
 0001:0000d4ab       _UM449                     1000e4ab   invoke.obj
 0001:0000d4b5       _UM450                     1000e4b5   invoke.obj
 0001:0000d4bf       _UM451                     1000e4bf   invoke.obj
 0001:0000d4c9       _UM452                     1000e4c9   invoke.obj
 0001:0000d4d3       _UM453                     1000e4d3   invoke.obj
 0001:0000d4dd       _UM454                     1000e4dd   invoke.obj
 0001:0000d4e7       _UM455                     1000e4e7   invoke.obj
 0001:0000d4f1       _UM456                     1000e4f1   invoke.obj
 0001:0000d4fb       _UM457                     1000e4fb   invoke.obj
 0001:0000d505       _UM458                     1000e505   invoke.obj
 0001:0000d50f       _UM459                     1000e50f   invoke.obj
 0001:0000d519       _UM460                     1000e519   invoke.obj
 0001:0000d523       _UM461                     1000e523   invoke.obj
 0001:0000d52d       _UM462                     1000e52d   invoke.obj
 0001:0000d537       _UM463                     1000e537   invoke.obj
 0001:0000d541       _UM464                     1000e541   invoke.obj
 0001:0000d54b       _UM465                     1000e54b   invoke.obj
 0001:0000d555       _UM466                     1000e555   invoke.obj
 0001:0000d55f       _UM467                     1000e55f   invoke.obj
 0001:0000d569       _UM468                     1000e569   invoke.obj
 0001:0000d573       _UM469                     1000e573   invoke.obj
 0001:0000d57d       _UM470                     1000e57d   invoke.obj
 0001:0000d587       _UM471                     1000e587   invoke.obj
 0001:0000d591       _UM472                     1000e591   invoke.obj
 0001:0000d59b       _UM473                     1000e59b   invoke.obj
 0001:0000d5a5       _UM474                     1000e5a5   invoke.obj
 0001:0000d5af       _UM475                     1000e5af   invoke.obj
 0001:0000d5b9       _UM476                     1000e5b9   invoke.obj
 0001:0000d5c3       _UM477                     1000e5c3   invoke.obj
 0001:0000d5cd       _UM478                     1000e5cd   invoke.obj
 0001:0000d5d7       _UM479                     1000e5d7   invoke.obj
 0001:0000d5e1       _UM480                     1000e5e1   invoke.obj
 0001:0000d5eb       _UM481                     1000e5eb   invoke.obj
 0001:0000d5f5       _UM482                     1000e5f5   invoke.obj
 0001:0000d5ff       _UM483                     1000e5ff   invoke.obj
 0001:0000d609       _UM484                     1000e609   invoke.obj
 0001:0000d613       _UM485                     1000e613   invoke.obj
 0001:0000d61d       _UM486                     1000e61d   invoke.obj
 0001:0000d627       _UM487                     1000e627   invoke.obj
 0001:0000d631       _UM488                     1000e631   invoke.obj
 0001:0000d63b       _UM489                     1000e63b   invoke.obj
 0001:0000d645       _UM490                     1000e645   invoke.obj
 0001:0000d64f       _UM491                     1000e64f   invoke.obj
 0001:0000d659       _UM492                     1000e659   invoke.obj
 0001:0000d663       _UM493                     1000e663   invoke.obj
 0001:0000d66d       _UM494                     1000e66d   invoke.obj
 0001:0000d674       _UM495                     1000e674   invoke.obj
 0001:0000d67b       _UM496                     1000e67b   invoke.obj
 0001:0000d682       _UM497                     1000e682   invoke.obj
 0001:0000d689       _UM498                     1000e689   invoke.obj
 0001:0000d690       _UM499                     1000e690   invoke.obj
 0001:0000d697       _UM500                     1000e697   invoke.obj
 0001:0000d69e       _UM501                     1000e69e   invoke.obj
 0001:0000d6a5       _UM502                     1000e6a5   invoke.obj
 0001:0000d6ac       _UM503                     1000e6ac   invoke.obj
 0001:0000d6b3       _UM504                     1000e6b3   invoke.obj
 0001:0000d6ba       _UM505                     1000e6ba   invoke.obj
 0001:0000d6c1       _UM506                     1000e6c1   invoke.obj
 0001:0000d6c8       _UM507                     1000e6c8   invoke.obj
 0001:0000d6cf       _UM508                     1000e6cf   invoke.obj
 0001:0000d6d6       _UM509                     1000e6d6   invoke.obj
 0001:0000d6dd       _UM510                     1000e6dd   invoke.obj
 0001:0000d6e4       _UM511                     1000e6e4   invoke.obj
 0001:0000d6eb       _UM512                     1000e6eb   invoke.obj
 0001:0000d6f2       _lblUmCommon               1000e6f2   invoke.obj
 0001:0000d710       ?Create@CDispTypeInfo@@SAJW4tagTYPEKIND@@PAUtagINTERFACEDATA@@KPAPAUITypeInfo@@@Z 1000e710 f cdispti.obj
 0001:0000d760       _CreateDispTypeInfo@12     1000e760 f cdispti.obj
 0001:0000d7a0       ??0CDispTypeInfo@@QAE@XZ   1000e7a0 f cdispti.obj
 0001:0000d7c0       ?QueryInterface@CDispTypeInfo@@UAGJABU_GUID@@PAPAX@Z 1000e7c0 f cdispti.obj
 0001:0000d830       ?AddRef@CDispTypeInfo@@UAGKXZ 1000e830 f cdispti.obj
 0001:0000d840       ?Release@CDispTypeInfo@@UAGKXZ 1000e840 f cdispti.obj
 0001:0000d860       ?GetTypeAttr@CDispTypeInfo@@UAGJPAPAUtagTYPEATTR@@@Z 1000e860 f cdispti.obj
 0001:0000d920       ?GetTypeComp@CDispTypeInfo@@UAGJPAPAUITypeComp@@@Z 1000e920 f cdispti.obj
 0001:0000d930       ?GetFuncDesc@CDispTypeInfo@@UAGJIPAPAUtagFUNCDESC@@@Z 1000e930 f cdispti.obj
 0001:0000daf0       ?GetVarDesc@CDispTypeInfo@@UAGJIPAPAUtagVARDESC@@@Z 1000eaf0 f cdispti.obj
 0001:0000db00       ?GetNames@CDispTypeInfo@@UAGJJPAPAGIPAI@Z 1000eb00 f cdispti.obj
 0001:0000dc30       ?GetRefTypeOfImplType@CDispTypeInfo@@UAGJIPAK@Z 1000ec30 f cdispti.obj
 0001:0000dc60       ?GetImplTypeFlags@CDispTypeInfo@@UAGJIPAH@Z 1000ec60 f cdispti.obj
 0001:0000dc70       ?GetIDsOfNames@CDispTypeInfo@@UAGJPAPAGIPAJ@Z 1000ec70 f cdispti.obj
 0001:0000de30       ?Invoke@CDispTypeInfo@@UAGJPAXJGPAUtagDISPPARAMS@@PAUtagVARIANT@@PAUtagEXCEPINFO@@PAI@Z 1000ee30 f cdispti.obj
 0001:0000e0a0       ?AllocInvokeArgs@CDispTypeInfo@@AAEJIPAPAUtagINVOKEARGS@@@Z 1000f0a0 f cdispti.obj
 0001:0000e170       ?GetInvokeArgs@CDispTypeInfo@@AAEJPAUtagMETHODDATA@@GPAUtagDISPPARAMS@@PAPAUtagINVOKEARGS@@PAI@Z 1000f170 f cdispti.obj
 0001:0000e370       ?ReleaseInvokeArgs@CDispTypeInfo@@AAEXPAUtagINVOKEARGS@@@Z 1000f370 f cdispti.obj
 0001:0000e3d0       ?GetDocumentation@CDispTypeInfo@@UAGJJPAPAG0PAK0@Z 1000f3d0 f cdispti.obj
 0001:0000e440       ?GetDllEntry@CDispTypeInfo@@UAGJJW4tagINVOKEKIND@@PAPAG1PAG@Z 1000f440 f cdispti.obj
 0001:0000e450       ?GetRefTypeInfo@CDispTypeInfo@@UAGJKPAPAUITypeInfo@@@Z 1000f450 f cdispti.obj
 0001:0000e4b0       ?AddressOfMember@CDispTypeInfo@@UAGJJW4tagINVOKEKIND@@PAPAX@Z 1000f4b0 f cdispti.obj
 0001:0000e4c0       ?CreateInstance@CDispTypeInfo@@UAGJPAUIUnknown@@ABU_GUID@@PAPAX@Z 1000f4c0 f cdispti.obj
 0001:0000e4d0       ?GetMops@CDispTypeInfo@@UAGJJPAPAG@Z 1000f4d0 f cdispti.obj
 0001:0000e4e0       ?GetContainingTypeLib@CDispTypeInfo@@UAGJPAPAUITypeLib@@PAI@Z 1000f4e0 f cdispti.obj
 0001:0000e4f0       ?ReleaseTypeAttr@CDispTypeInfo@@UAGXPAUtagTYPEATTR@@@Z 1000f4f0 f cdispti.obj
 0001:0000e500       ?ReleaseFuncDesc@CDispTypeInfo@@UAGXPAUtagFUNCDESC@@@Z 1000f500 f cdispti.obj
 0001:0000e520       ?ReleaseVarDesc@CDispTypeInfo@@UAGXPAUtagVARDESC@@@Z 1000f520 f cdispti.obj
 0001:0000e530       ?PmdataOfDispid@CDispTypeInfo@@AAEJJGPAPAUtagMETHODDATA@@@Z 1000f530 f cdispti.obj
 0001:0000e580       _CreateStdDispatch@16      1000f580 f stddisp.obj
 0001:0000e5a0       ??0CStdDisp@@QAE@XZ        1000f5a0 f stddisp.obj
 0001:0000e5d0       ?Create@CStdDisp@@SAJPAUIUnknown@@PAXPAUITypeInfo@@PAPAU2@@Z 1000f5d0 f stddisp.obj
 0001:0000e640       ??0CStdDispUnkImpl@@QAE@PAVCStdDisp@@@Z 1000f640 f stddisp.obj
 0001:0000e660       ?QueryInterface@CStdDispUnkImpl@@UAGJABU_GUID@@PAPAX@Z 1000f660 f stddisp.obj
 0001:0000e6d0       ?AddRef@CStdDispUnkImpl@@UAGKXZ 1000f6d0 f stddisp.obj
 0001:0000e6f0       ?Release@CStdDispUnkImpl@@UAGKXZ 1000f6f0 f stddisp.obj
 0001:0000e720       ?QueryInterface@CStdDisp@@UAGJABU_GUID@@PAPAX@Z 1000f720 f stddisp.obj
 0001:0000e740       ?AddRef@CStdDisp@@UAGKXZ   1000f740 f stddisp.obj
 0001:0000e750       ?Release@CStdDisp@@UAGKXZ  1000f750 f stddisp.obj
 0001:0000e760       ?GetTypeInfoCount@CStdDisp@@UAGJPAI@Z 1000f760 f stddisp.obj
 0001:0000e780       ?GetTypeInfo@CStdDisp@@UAGJIKPAPAUITypeInfo@@@Z 1000f780 f stddisp.obj
 0001:0000e7b0       ?GetIDsOfNames@CStdDisp@@UAGJABU_GUID@@PAPAGIKPAJ@Z 1000f7b0 f stddisp.obj
 0001:0000e7f0       ?Invoke@CStdDisp@@UAGJJABU_GUID@@KGPAUtagDISPPARAMS@@PAUtagVARIANT@@PAUtagEXCEPINFO@@PAI@Z 1000f7f0 f stddisp.obj
 0001:0000e850       _DosDateTimeToVariantTime@12 1000f850 f time-api.obj
 0001:0000e980       _VariantTimeToDosDateTime@16 1000f980 f time-api.obj
 0001:0000ea30       _SysAllocString@4          1000fa30 f bstr.obj
 0001:0000ea60       _SysAllocStringLen@8       1000fa60 f bstr.obj
 0001:0000eb00       _SysReAllocString@8        1000fb00 f bstr.obj
 0001:0000eb40       _SysReAllocStringLen@12    1000fb40 f bstr.obj
 0001:0000ec00       _SysFreeString@4           1000fc00 f bstr.obj
 0001:0000ecb0       _SysStringLen@4            1000fcb0 f bstr.obj
 0001:0000ecd0       _ErrSysAllocString@8       1000fcd0 f bstr.obj
 0001:0000ed10       _ErrSysAllocStringLen@12   1000fd10 f bstr.obj
 0001:0000ed40       _ErrStringCopy@8           1000fd40 f bstr.obj
 0001:0000ed70       _SysStringByteLen@4        1000fd70 f bstr.obj
 0001:0000ed90       _SysAllocStringByteLen@8   1000fd90 f bstr.obj
 0001:0000ee20       _ReleaseBstrCache@4        1000fe20 f bstr.obj
 0001:0000ee50       _SafeArrayAllocDescriptor@8 1000fe50 f sarray.obj
 0001:0000eea0       _SafeArrayAllocData@4      1000fea0 f sarray.obj
 0001:0000ef50       _SafeArrayCreate@12        1000ff50 f sarray.obj
 0001:0000f0d0       ?ReleaseResources@@YGXPAXKGK@Z 100100d0 f sarray.obj
 0001:0000f180       _SafeArrayDestroyData@4    10010180 f sarray.obj
 0001:0000f270       _SafeArrayDestroyDescriptor@4 10010270 f sarray.obj
 0001:0000f2a0       _SafeArrayDestroy@4        100102a0 f sarray.obj
 0001:0000f2f0       _SafeArrayRedim@8          100102f0 f sarray.obj
 0001:0000f4c0       _SafeArrayCopy@8           100104c0 f sarray.obj
 0001:0000f730       _SafeArrayGetDim@4         10010730 f sarray.obj
 0001:0000f740       _SafeArrayGetElemsize@4    10010740 f sarray.obj
 0001:0000f750       _SafeArrayGetUBound@12     10010750 f sarray.obj
 0001:0000f7a0       _SafeArrayGetLBound@12     100107a0 f sarray.obj
 0001:0000f7e0       _SafeArrayLock@4           100107e0 f sarray.obj
 0001:0000f810       _SafeArrayUnlock@4         10010810 f sarray.obj
 0001:0000f840       _SafeArrayAccessData@8     10010840 f sarray.obj
 0001:0000f860       _SafeArrayUnaccessData@4   10010860 f sarray.obj
 0001:0000f870       _SafeArrayPtrOfIndex@12    10010870 f sarray.obj
 0001:0000f8f0       _SafeArrayGetElement@12    100108f0 f sarray.obj
 0001:0000f9f0       _SafeArrayPutElement@12    100109f0 f sarray.obj
 0001:0000fb10       ?SafeArraySize@@YGKPAUtagSAFEARRAY@@@Z 10010b10 f sarray.obj
 0001:0000fbe0       _ErrPackDate@16            10010be0 f oledate.obj
 0001:0000feb0       _ErrUnpackDate@8           10010eb0 f oledate.obj
 0001:00010130       _GetCurrentYear@0          10011130 f oledate.obj
 0001:00010150       _xtoa@16                   10011150 f crtstuff.obj
 0001:000101d0       _disp_itoa@12              100111d0 f crtstuff.obj
 0001:00010210       _disp_ltoa@12              10011210 f crtstuff.obj
 0001:00010240       _disp_floor@8              10011240 f crtstuff.obj
 0001:00010260       _disp_strtod@8             10011260 f crtstuff.obj
 0001:00010280       _IsCharType                10011280 f bstrdate.obj
 0001:000102c0       _SafeGetLocaleInfo@16      100112c0 f bstrdate.obj
 0001:00010360       _VarDateFromStr@16         10011360 f bstrdate.obj
 0001:00012330       _SetUDSfromYMD             10013330 f bstrdate.obj
 0001:00012aa0       _VarBstrFromDate@20        10013aa0 f bstrdate.obj
 0001:000130f0       _IntOfString@12            100140f0 f bstrdate.obj
 0001:000131e4       _ErrCyFromI2@8             100141e4 f oleconva.obj
 0001:00013200       _ErrCyFromI4@8             10014200 f oleconva.obj
 0001:0001321b       _CkOvflCy@0                1001421b f oleconva.obj
 0001:00013240       _ErrCyFromR4@8             10014240 f oleconva.obj
 0001:0001326d       _ErrCyFromR8@8             1001426d f oleconva.obj
 0001:0001329a       _ErrI2FromCy@12            1001429a f oleconva.obj
 0001:000132d0       _ErrI4FromCy@12            100142d0 f oleconva.obj
 0001:000132ff       _ErrR4FromCy@12            100142ff f oleconva.obj
 0001:00013316       _ErrR8FromCy@12            10014316 f oleconva.obj
 0001:0001332d       _ErrMultCyI4@16            1001432d f oleconva.obj
 0001:00013378       _DoFbstp@8                 10014378 f oleconva.obj
 0001:000133d7       _ConvFloatToAscii@12       100143d7 f oleconva.obj
 0001:000136c0       _VariantInit@4             100146c0 f variant.obj
 0001:000136d0       _VariantClear@4            100146d0 f variant.obj
 0001:000137d0       _VariantCopy@8             100147d0 f variant.obj
 0001:000138b0       _VariantCopyInd@8          100148b0 f variant.obj
 0001:00013a80       _VariantChangeType@16      10014a80 f variant.obj
 0001:00013ab0       _VariantChangeTypeEx@20    10014ab0 f variant.obj
 0001:00013c50       ?IsLegalVartype@@YGJG@Z    10014c50 f variant.obj
 0001:00013cf0       ?VariantChangeTypeInternal@@YGJPAUtagVARIANT@@KG@Z 10014cf0 f variant.obj
 0001:000146b0       _DispAlloc@8               100156b0 f convertt.obj
 0001:00014720       _DispFree@4                10015720 f convertt.obj
 0001:00014780       _VarBoolFromUI1@8          10015780 f convertt.obj
 0001:000147a0       _VarBoolFromI2@8           100157a0 f convertt.obj
 0001:000147c0       _VarBoolFromI4@8           100157c0 f convertt.obj
 0001:000147e0       _VarBoolFromR4@8           100157e0 f convertt.obj
 0001:00014800       _VarBoolFromR8@12          10015800 f convertt.obj
 0001:00014830       _VarBoolFromDate@12        10015830 f convertt.obj
 0001:00014850       _VarBoolFromCy@12          10015850 f convertt.obj
 0001:00014870       _VarBoolFromStr@16         10015870 f convertt.obj
 0001:000149b0       _VarBoolFromDisp@12        100159b0 f convertt.obj
 0001:000149e0       _VarUI1FromI2@8            100159e0 f convertt.obj
 0001:00014a00       _VarUI1FromI4@8            10015a00 f convertt.obj
 0001:00014a20       _VarUI1FromR4@8            10015a20 f convertt.obj
 0001:00014a50       _VarUI1FromR8@12           10015a50 f convertt.obj
 0001:00014a90       _VarUI1FromCy@12           10015a90 f convertt.obj
 0001:00014ac0       _VarUI1FromDate@12         10015ac0 f convertt.obj
 0001:00014ae0       _VarUI1FromBool@8          10015ae0 f convertt.obj
 0001:00014af0       _VarUI1FromStr@16          10015af0 f convertt.obj
 0001:00014b30       _VarUI1FromDisp@12         10015b30 f convertt.obj
 0001:00014b60       _VarI2FromUI1@8            10015b60 f convertt.obj
 0001:00014b80       _VarI2FromI4@8             10015b80 f convertt.obj
 0001:00014bb0       _VarI2FromR4@8             10015bb0 f convertt.obj
 0001:00014be0       _VarI2FromR8@12            10015be0 f convertt.obj
 0001:00014c20       _VarI2FromCy@12            10015c20 f convertt.obj
 0001:00014c40       _VarI2FromDate@12          10015c40 f convertt.obj
 0001:00014c60       _VarI2FromBool@8           10015c60 f convertt.obj
 0001:00014c80       _VarI2FromStr@16           10015c80 f convertt.obj
 0001:00014d80       _VarI2FromDisp@12          10015d80 f convertt.obj
 0001:00014db0       _VarI4FromUI1@8            10015db0 f convertt.obj
 0001:00014dd0       _VarI4FromI2@8             10015dd0 f convertt.obj
 0001:00014de0       _VarI4FromBool@8           10015de0 f convertt.obj
 0001:00014e00       _VarI4FromR4@8             10015e00 f convertt.obj
 0001:00014e20       _VarI4FromR8@12            10015e20 f convertt.obj
 0001:00014e60       _VarI4FromCy@12            10015e60 f convertt.obj
 0001:00014e80       _VarI4FromDate@12          10015e80 f convertt.obj
 0001:00014ea0       _VarI4FromStr@16           10015ea0 f convertt.obj
 0001:00015050       _VarI4FromDisp@12          10016050 f convertt.obj
 0001:00015110       _VarR4FromUI1@8            10016110 f convertt.obj
 0001:00015140       _VarR4FromI2@8             10016140 f convertt.obj
 0001:00015160       _VarR4FromBool@8           10016160 f convertt.obj
 0001:00015180       _VarR4FromI4@8             10016180 f convertt.obj
 0001:000151a0       _VarR4FromR8@12            100161a0 f convertt.obj
 0001:000151e0       _VarR4FromCy@12            100161e0 f convertt.obj
 0001:00015200       _VarR4FromDate@12          10016200 f convertt.obj
 0001:00015220       _VarR4FromStr@16           10016220 f convertt.obj
 0001:00015260       _VarR4FromDisp@12          10016260 f convertt.obj
 0001:00015290       _VarR8FromUI1@8            10016290 f convertt.obj
 0001:000152c0       _VarR8FromI2@8             100162c0 f convertt.obj
 0001:000152e0       _VarR8FromBool@8           100162e0 f convertt.obj
 0001:00015300       _VarR8FromI4@8             10016300 f convertt.obj
 0001:00015320       _VarR8FromR4@8             10016320 f convertt.obj
 0001:00015330       _VarR8FromCy@12            10016330 f convertt.obj
 0001:00015350       _VarR8FromDate@12          10016350 f convertt.obj
 0001:00015370       _VarR8FromStr@16           10016370 f convertt.obj
 0001:000155f0       _VarR8FromDisp@12          100165f0 f convertt.obj
 0001:00015630       _VarDateFromUI1@8          10016630 f convertt.obj
 0001:00015650       _VarDateFromI2@8           10016650 f convertt.obj
 0001:00015690       _VarDateFromBool@8         10016690 f convertt.obj
 0001:000156b0       _VarDateFromI4@8           100166b0 f convertt.obj
 0001:000156f0       _VarDateFromR4@8           100166f0 f convertt.obj
 0001:00015730       _VarDateFromR8@12          10016730 f convertt.obj
 0001:00015760       _VarDateFromCy@12          10016760 f convertt.obj
 0001:000157b0       ?IsValidDate@@YGJN@Z       100167b0 f convertt.obj
 0001:000157e0       _VarDateFromDisp@12        100167e0 f convertt.obj
 0001:00015820       _VarCyFromUI1@8            10016820 f convertt.obj
 0001:00015840       _VarCyFromI2@8             10016840 f convertt.obj
 0001:00015860       _VarCyFromI4@8             10016860 f convertt.obj
 0001:00015880       _VarCyFromR4@8             10016880 f convertt.obj
 0001:000158a0       _VarCyFromR8@12            100168a0 f convertt.obj
 0001:000158c0       _VarCyFromDate@12          100168c0 f convertt.obj
 0001:000158e0       _VarCyFromBool@8           100168e0 f convertt.obj
 0001:00015900       _VarCyFromStr@16           10016900 f convertt.obj
 0001:00015bd0       _VarCyFromDisp@12          10016bd0 f convertt.obj
 0001:00015c10       ?DecimalFromLcid@@YAGKK@Z  10016c10 f convertt.obj
 0001:00015c50       _MapHalfWidth@12           10016c50 f convertt.obj
 0001:00015cc0       ?ThousandFromLcid@@YAGKK@Z 10016cc0 f convertt.obj
 0001:00015d00       ?StripThousandSeparator@@YGJPAG0KJ@Z 10016d00 f convertt.obj
 0001:00015d90       ?LeadingZeroForDecimalFromLcid@@YAHKK@Z 10016d90 f convertt.obj
 0001:00015e00       _VarBstrFromUI1@16         10016e00 f convertt.obj
 0001:00015e20       _VarBstrFromI2@16          10016e20 f convertt.obj
 0001:00015e50       _VarBstrFromBool@16        10016e50 f convertt.obj
 0001:00015e90       _VarBstrFromI4@16          10016e90 f convertt.obj
 0001:00015ec0       ?BstrFromFloat@@YAJNKKPAPAGH@Z 10016ec0 f convertt.obj
 0001:00016230       _VarBstrFromR4@16          10017230 f convertt.obj
 0001:00016260       _VarBstrFromR8@20          10017260 f convertt.obj
 0001:00016290       _VarBstrFromCy@20          10017290 f convertt.obj
 0001:00016420       _VarBstrFromDisp@16        10017420 f convertt.obj
 0001:00016e80       _IsDBCS@4                  10017e80 f convertt.obj
 0001:00016ec0       _IsJapan@4                 10017ec0 f convertt.obj
 0001:00016ef0       _IsKorea@4                 10017ef0 f convertt.obj
 0001:00016f20       _IsTaiwan@4                10017f20 f convertt.obj
 0001:00016f50       _IsChina@4                 10017f50 f convertt.obj
 0001:00016f80       _CompareString@24          10017f80 f nlshelp.obj
 0001:00017110       _LCMapString@24            10018110 f nlshelp.obj
 0001:00017270       _GetStringTypeEx@20        10018270 f nlshelp.obj
 0001:00017330       _GetLocaleInfo@16          10018330 f nlshelp.obj
 0001:000173d0       _RegisterActiveObject@16   100183d0 f getobj.obj
 0001:000174a0       _RevokeActiveObject@8      100184a0 f getobj.obj
 0001:000174f0       _GetActiveObject@12        100184f0 f getobj.obj
 0001:00017553       ??2@YAPAXI@Z               10018553 f debug2.obj
 0001:00017560       ??3@YAXPAX@Z               10018560 f debug2.obj
 0001:0001756d       ?CreateStandalone@BLK_MGR@@SAJPAPAV1@H@Z 1001856d f blkmgr.obj
 0001:000175e1       ?FreeStandalone@BLK_MGR@@SAXPAV1@@Z 100185e1 f blkmgr.obj
 0001:00017608       ??0BLK_MGR@@QAE@XZ         10018608 f blkmgr.obj
 0001:0001762c       ?ConsChunkToFreeList@BLK_MGR@@AAEXII@Z 1001862c f blkmgr.obj
 0001:0001764c       ?Init@BLK_MGR@@QAEJPAVSHEAP_MGR@@HH@Z 1001864c f blkmgr.obj
 0001:0001769c       ?AddChunkToFreeList@BLK_MGR@@AAEXII@Z 1001869c f blkmgr.obj
 0001:000177de       ?HfreechunkOfCbSize@BLK_MGR@@AAEII@Z 100187de f blkmgr.obj
 0001:0001789d       ?AllocChunk2@BLK_MGR@@AAEJPAIII@Z 1001889d f blkmgr.obj
 0001:00017965       ?FreeChunk@BLK_MGR@@QAEXII@Z 10018965 f blkmgr.obj
 0001:00017997       ?Trim@BLK_MGR@@QAEJXZ      10018997 f blkmgr.obj
 0001:000179c3       ?Trim@BLK_MGR@@AAEJPAI@Z   100189c3 f blkmgr.obj
 0001:00017aa3       ?Free@BLK_MGR@@QAEXXZ      10018aa3 f blkmgr.obj
 0001:00017ad4       ?Read@BLK_MGR@@QAEJPAVSTREAM@@@Z 10018ad4 f blkmgr.obj
 0001:00017b26       ?Write@BLK_MGR@@QAEJPAVSTREAM@@@Z 10018b26 f blkmgr.obj
 0001:00017b66       ?GetSize@BLK_MGR@@QBEIXZ   10018b66 f blkmgr.obj
 0001:00017b75       ?ReadSz@STREAM@@QAEJPAPAG@Z 10018b75 f fstream.obj
 0001:00017be0       ?ReadByte@STREAM@@QAEJPAE@Z 10018be0 f fstream.obj
 0001:00017bed       ?ReadUShort@STREAM@@QAEJPAG@Z 10018bed f fstream.obj
 0001:00017bfa       ?ReadULong@STREAM@@QAEJPAK@Z 10018bfa f fstream.obj
 0001:00017c07       ?WriteByte@STREAM@@QAEJE@Z 10018c07 f fstream.obj
 0001:00017c16       ?WriteUShort@STREAM@@QAEJG@Z 10018c16 f fstream.obj
 0001:00017c25       ?WriteULong@STREAM@@QAEJK@Z 10018c25 f fstream.obj
 0001:00017c34       _MemAlloc                  10018c34 f mem.obj
 0001:00017c71       _MemZalloc                 10018c71 f mem.obj
 0001:00017ca5       _MemRealloc                10018ca5 f mem.obj
 0001:00017ce6       _MemFree                   10018ce6 f mem.obj
 0001:00017d3c       ?Create@SHEAP_MGR@@SAJPAPAV1@I@Z 10018d3c f sheapmgr.obj
 0001:00017d92       ??2SHEAP_MGR@@KAPAXI@Z     10018d92 f sheapmgr.obj
 0001:00017d95       ??3SHEAP_MGR@@SAXPAX@Z     10018d95 f sheapmgr.obj
 0001:00017da2       ??0SHEAP_MGR@@QAE@XZ       10018da2 f sheapmgr.obj
 0001:00017daf       ??1SHEAP_MGR@@QAE@XZ       10018daf f sheapmgr.obj
 0001:00017dc8       ?Init@SHEAP_MGR@@IAEJI@Z   10018dc8 f sheapmgr.obj
 0001:00017dda       ?PtrOfBlkDescPrev@SHEAP_MGR@@IBEPAVBLK_DESC@@PAV2@@Z 10018dda f sheapmgr.obj
 0001:00017df2       ?PtrOfBlkDescLast@SHEAP_MGR@@IBEPAVBLK_DESC@@XZ 10018df2 f sheapmgr.obj
 0001:00017e08       ?RemoveBlkdesc@SHEAP_MGR@@IAEXPAVBLK_DESC@@@Z 10018e08 f sheapmgr.obj
 0001:00017e2c       ?AddBlkdesc@SHEAP_MGR@@IAEXPAVBLK_DESC@@K@Z 10018e2c f sheapmgr.obj
 0001:00017e58       ??0BLK_DESC@@QAE@XZ        10018e58 f sheapmgr.obj
 0001:00017e6d       ??1BLK_DESC@@QAE@XZ        10018e6d f sheapmgr.obj
 0001:00017e95       ?Init@BLK_DESC@@QAEJPAVSHEAP_MGR@@I@Z 10018e95 f sheapmgr.obj
 0001:00017ecf       ?Realloc@BLK_DESC@@QAEJK@Z 10018ecf f sheapmgr.obj
 0001:00017f25       ?Read@BLK_DESC@@QAEJPAVSTREAM@@@Z 10018f25 f sheapmgr.obj
 0001:00017f68       ?Write@BLK_DESC@@QAEJPAVSTREAM@@@Z 10018f68 f sheapmgr.obj
 0001:00017fa0       _LHashValOfNameSys@12      10018fa0 f tlibutil.obj
 0001:00018000       _LHashValOfNameSysA@12     10019000 f tlibutil.obj
 0001:00018180       ?LHashValOfDBCSName@@YAKW4tagSYSKIND@@KPBD@Z 10019180 f tlibutil.obj
 0001:000182b0       ?MapDBChar@@YAGGK@Z        100192b0 f tlibutil.obj
 0001:00018330       ?GetInsensitiveCompTbl@@YAXKW4tagSYSKIND@@PAD@Z 10019330 f tlibutil.obj
 0001:00018480       _oRegSetValue@20           10019480 f ntstring.obj
 0001:0001851e       _oWNetGetConnection@12     1001951e f ntstring.obj
 0001:0001861e       _oRegOpenKey@12            1001961e f ntstring.obj
 0001:00018675       _oRegEnumKey@16            10019675 f ntstring.obj
 0001:000186f3       _ostat                     100196f3 f ntstring.obj
 0001:00018746       _oOpenFile@12              10019746 f ntstring.obj
 0001:0001878f       _oRegQueryValue@16         1001978f f ntstring.obj
 0001:0001886c       _oRegCreateKey@12          1001986c f ntstring.obj
 0001:000188c5       __ultow                    100198c5 f ntstring.obj
 0001:000188f9       __wtoi                     100198f9 f ntstring.obj
 0001:00018923       _InitMbString              10019923 f mbstring.obj
 0001:00018968       __mbschr                   10019968 f mbstring.obj
 0001:00018a36       __mbsrchr                  10019a36 f mbstring.obj
 0001:00018aea       __mbslen                   10019aea f mbstring.obj
 0001:00018b2e       __mbscmp                   10019b2e f mbstring.obj
 0001:00018bd5       ?IsFunkyDispinterface@@YAJPAVGEN_DTINFO@@PAH@Z 10019bd5 f gdtinfo.obj
 0001:00018c1c       ?InterfaceFuncdescToDispatch@@YAXPAUtagFUNCDESC@@@Z 10019c1c f gdtinfo.obj
 0001:00018cb1       ?GetTypeInfoOfImplType@@YAJPAVGEN_DTINFO@@IPAPAUITypeInfo@@@Z 10019cb1 f gdtinfo.obj
 0001:00018d97       ?IsInterfaceSupported@@YAJPAUITypeInfo@@PAH@Z 10019d97 f gdtinfo.obj
 0001:00018e32       ??0GEN_DTINFO@@IAE@XZ      10019e32 f gdtinfo.obj
 0001:00018e82       ??1GEN_DTINFO@@MAE@XZ      10019e82 f gdtinfo.obj
 0001:00018eb4       ?ReleasePublicResources@GEN_DTINFO@@UAEXXZ 10019eb4 f gdtinfo.obj
 0001:00018f00       ?Create@GEN_DTINFO@@SAJPAPAV1@W4tagTYPEKIND@@HW4ACCESS@@W4tagSYSKIND@@@Z 10019f00 f gdtinfo.obj
 0001:00018fb2       ?RemoveInternalRefs@GEN_DTINFO@@UAEXXZ 10019fb2 f gdtinfo.obj
 0001:00018fd3       ?QueryInterface@GEN_DTINFO@@UAGJABU_GUID@@PAPAX@Z 10019fd3 f gdtinfo.obj
 0001:0001900f       ?GetDynTypeMembers@GEN_DTINFO@@UAEJPAPAVDYN_TYPEMEMBERS@@@Z 1001a00f f gdtinfo.obj
 0001:0001902f       ?GetDefnTypeBind@GEN_DTINFO@@UAEJPAPAVDEFN_TYPEBIND@@@Z 1001a02f f gdtinfo.obj
 0001:00019065       ?CreateInstance@GEN_DTINFO@@UAGJPAUIUnknown@@ABU_GUID@@PAPAX@Z 1001a065 f gdtinfo.obj
 0001:00019129       ?GetMemberName@GEN_DTINFO@@UAEJKPAPAD@Z 1001a129 f gdtinfo.obj
 0001:0001912e       ?CommitChanges@GEN_DTINFO@@UAEJXZ 1001a12e f gdtinfo.obj
 0001:00019131       ?SzTypeIdofTypeInfo@GEN_DTINFO@@UAEPAGXZ 1001a131 f gdtinfo.obj
 0001:00019137       ?ResetPrePass@GEN_DTINFO@@UAEJXZ 1001a137 f gdtinfo.obj
 0001:0001913a       ?Reset@GEN_DTINFO@@UAEJXZ  1001a13a f gdtinfo.obj
 0001:0001913d       ?MakeDual@GEN_DTINFO@@QAEJXZ 1001a13d f gdtinfo.obj
 0001:00019284       ?MakeHimptypeLevels@DYN_TYPEROOT@@QAEJXZ 1001a284 f gdtinfo.obj
 0001:00019370       ?GetTypeAttr@GEN_DTINFO@@UAGJPAPAUtagTYPEATTR@@@Z 1001a370 f gdtinfo.obj
 0001:000195f5       ?ReleaseFuncDesc@GEN_DTINFO@@UAGXPAUtagFUNCDESC@@@Z 1001a5f5 f gdtinfo.obj
 0001:00019604       ?ReleaseVarDesc@GEN_DTINFO@@UAGXPAUtagVARDESC@@@Z 1001a604 f gdtinfo.obj
 0001:00019613       ?ReleaseTypeAttr@GEN_DTINFO@@UAGXPAUtagTYPEATTR@@@Z 1001a613 f gdtinfo.obj
 0001:0001964a       ?GetTypeComp@GEN_DTINFO@@UAGJPAPAUITypeComp@@@Z 1001a64a f gdtinfo.obj
 0001:000196a1       ?GetNames@GEN_DTINFO@@UAGJJPAPAGIPAI@Z 1001a6a1 f gdtinfo.obj
 0001:00019851       ?GetRefTypeOfImplType@GEN_DTINFO@@UAGJIPAK@Z 1001a851 f gdtinfo.obj
 0001:000198fe       ?GetImplTypeFlags@GEN_DTINFO@@UAGJIPAH@Z 1001a8fe f gdtinfo.obj
 0001:0001993b       ?GetDocumentation@GEN_DTINFO@@UAGJJPAPAG0PAK0@Z 1001a93b f gdtinfo.obj
 0001:00019ac4       ?OGtRfTI@GEN_DTINFO@@UAGJKPAPAUITypeInfo@@@Z 1001aac4 f gdtinfo.obj
 0001:00019cdc       ?GetDllEntry@GEN_DTINFO@@UAGJJW4tagINVOKEKIND@@PAPAG1PAG@Z 1001acdc f gdtinfo.obj
 0001:00019ec4       ?AddressOfMember@GEN_DTINFO@@UAGJJW4tagINVOKEKIND@@PAPAX@Z 1001aec4 f gdtinfo.obj
 0001:0001a01a       ?GetMops@GEN_DTINFO@@UAGJJPAPAG@Z 1001b01a f gdtinfo.obj
 0001:0001a046       ?SetGuid@GEN_DTINFO@@UAGJABU_GUID@@@Z 1001b046 f gdtinfo.obj
 0001:0001a07c       ?SetDocString@GEN_DTINFO@@UAGJPAG@Z 1001b07c f gdtinfo.obj
 0001:0001a0a2       ?SetHelpContext@GEN_DTINFO@@UAGJK@Z 1001b0a2 f gdtinfo.obj
 0001:0001a0c8       ?SetVersion@GEN_DTINFO@@UAGJGG@Z 1001b0c8 f gdtinfo.obj
 0001:0001a109       ?SetTypeFlags@GEN_DTINFO@@UAGJI@Z 1001b109 f gdtinfo.obj
 0001:0001a28f       ?AddRefTypeInfo@GEN_DTINFO@@UAGJPAUITypeInfo@@PAK@Z 1001b28f f gdtinfo.obj
 0001:0001a302       ?AddImplType@GEN_DTINFO@@UAGJIK@Z 1001b302 f gdtinfo.obj
 0001:0001a466       ?SetFuncAndParamNames@GEN_DTINFO@@UAGJIPAPAGI@Z 1001b466 f gdtinfo.obj
 0001:0001a4a6       ?SetVarName@GEN_DTINFO@@UAGJIPAG@Z 1001b4a6 f gdtinfo.obj
 0001:0001a500       ?SetTypeDescAlias@GEN_DTINFO@@UAGJPAUtagTYPEDESC@@@Z 1001b500 f gdtinfo.obj
 0001:0001a547       ?SetFuncDocString@GEN_DTINFO@@UAGJIPAG@Z 1001b547 f gdtinfo.obj
 0001:0001a5b5       ?DefineFuncAsDllEntry@GEN_DTINFO@@UAGJIPAG0@Z 1001b5b5 f gdtinfo.obj
 0001:0001a716       ?SetVarDocString@GEN_DTINFO@@UAGJIPAG@Z 1001b716 f gdtinfo.obj
 0001:0001a770       ?SetFuncHelpContext@GEN_DTINFO@@UAGJIK@Z 1001b770 f gdtinfo.obj
 0001:0001a7ad       ?SetVarHelpContext@GEN_DTINFO@@UAGJIK@Z 1001b7ad f gdtinfo.obj
 0001:0001a7ea       ?SetMops@GEN_DTINFO@@UAGJIPAG@Z 1001b7ea f gdtinfo.obj
 0001:0001a7f2       ?SetTypeIdldesc@GEN_DTINFO@@UAGJPAUtagIDLDESC@@@Z 1001b7f2 f gdtinfo.obj
 0001:0001a7fa       ?LayOut@GEN_DTINFO@@UAGJXZ 1001b7fa f gdtinfo.obj
 0001:0001a9f8       ??0DYN_TYPEROOT@@IAE@XZ    1001b9f8 f gdtinfo.obj
 0001:0001aa42       ??3DYN_TYPEROOT@@SAXPAX@Z  1001ba42 f gdtinfo.obj
 0001:0001aa5e       ?Init@DYN_TYPEROOT@@QAEJPAVGEN_DTINFO@@IIHW4ACCESS@@W4tagTYPEKIND@@W4tagSYSKIND@@@Z 1001ba5e f gdtinfo.obj
 0001:0001ab87       ??1DYN_TYPEROOT@@IAE@XZ    1001bb87 f gdtinfo.obj
 0001:0001ac1e       ?GetNamMgr@DYN_TYPEROOT@@QAEJPAPAVNAMMGR@@@Z 1001bc1e f gdtinfo.obj
 0001:0001ac30       ?GetImpMgr@DYN_TYPEROOT@@QAEJPAPAVIMPMGR@@@Z 1001bc30 f gdtinfo.obj
 0001:0001ad42       ?GetEntMgr@DYN_TYPEROOT@@QAEJPAPAVENTRYMGR@@@Z 1001bd42 f gdtinfo.obj
 0001:0001ae4e       ?GetDtmbrs@DYN_TYPEROOT@@UAEJPAPAVDYN_TYPEMEMBERS@@@Z 1001be4e f gdtinfo.obj
 0001:0001af45       ?EnsurePartsRead@GEN_DTINFO@@UAEJXZ 1001bf45 f gdtinfo.obj
 0001:0001af4d       ?ReleaseDtmbrs@DYN_TYPEROOT@@QAEXXZ 1001bf4d f gdtinfo.obj
 0001:0001af5e       ?AddRefDtmbrs@DYN_TYPEROOT@@QAEXXZ 1001bf5e f gdtinfo.obj
 0001:0001af6f       ?Read@DYN_TYPEROOT@@MAEJXZ 1001bf6f f gdtinfo.obj
 0001:0001b03c       ?ReadFixed@DYN_TYPEROOT@@MAEJPAVSTREAM@@@Z 1001c03c f gdtinfo.obj
 0001:0001b0b4       ?EnsurePartsRead@DYN_TYPEROOT@@MAEJXZ 1001c0b4 f gdtinfo.obj
 0001:0001b113       ?EnsureInDeclaredState@DYN_TYPEROOT@@QAEJXZ 1001c113 f gdtinfo.obj
 0001:0001b178       ?EnsureInSemiDeclaredState@DYN_TYPEROOT@@QAEJXZ 1001c178 f gdtinfo.obj
 0001:0001b1ba       ?Write@DYN_TYPEROOT@@MAEJXZ 1001c1ba f gdtinfo.obj
 0001:0001b244       ?WriteToStream@DYN_TYPEROOT@@MAEJPAVSTREAM@@@Z 1001c244 f gdtinfo.obj
 0001:0001b2c7       ?WriteFixed@DYN_TYPEROOT@@MAEJPAVSTREAM@@@Z 1001c2c7 f gdtinfo.obj
 0001:0001b326       ?WriteParts@DYN_TYPEROOT@@MAEJPAVSTREAM@@@Z 1001c326 f gdtinfo.obj
 0001:0001b3d8       ?GetEmbeddedTypeInfo@GEN_DTINFO@@UAEJPAGPAPAVTYPEINFO@@@Z 1001c3d8 f gdtinfo.obj
 0001:0001b3e0       ?InitializeIteration@GEN_DTINFO@@UAEJXZ 1001c3e0 f gdtinfo.obj
 0001:0001b3f1       ?BeginDepIteration@GEN_DTINFO@@UAEJPAPAUTINODE@@PAPAPAU2@@Z 1001c3f1 f gdtinfo.obj
 0001:0001b3f6       ?GetNextDepTypeInfo@GEN_DTINFO@@UAEJPAPAVDYNTYPEINFO@@@Z 1001c3f6 f gdtinfo.obj
 0001:0001b467       ?GetTypeFixups@GEN_DTINFO@@UAEJPAPAVTYPEFIXUPS@@@Z 1001c467 f gdtinfo.obj
 0001:0001b46c       ?AllDepReady@GEN_DTINFO@@UAEJXZ 1001c46c f gdtinfo.obj
 0001:0001b46f       ?NotReady@GEN_DTINFO@@UAEJXZ 1001c46f f gdtinfo.obj
 0001:0001b486       ?PdfntbindSemiDeclared@DYN_TYPEROOT@@QAEJPAPAVDEFN_TYPEBIND@@@Z 1001c486 f gdtinfo.obj
 0001:0001b4c0       ?IsIdMungable@DYN_TYPEROOT@@QAEHKPAG@Z 1001c4c0 f gdtinfo.obj
 0001:0001b5a6       ?GetVarDesc@GEN_DTINFO@@UAGJIPAPAUtagVARDESC@@@Z 1001c5a6 f gdtinfo.obj
 0001:0001b5f0       ?AddVarDesc@GEN_DTINFO@@UAGJIPAUtagVARDESC@@@Z 1001c5f0 f gdtinfo.obj
 0001:0001b6ac       ?GetFuncDesc@GEN_DTINFO@@UAGJIPAPAUtagFUNCDESC@@@Z 1001c6ac f gdtinfo.obj
 0001:0001b820       ?AddFuncDesc@GEN_DTINFO@@UAGJIPAUtagFUNCDESC@@@Z 1001c820 f gdtinfo.obj
 0001:0001b8bb       ?PrepareForDestruction@GEN_DTINFO@@UAEXXZ 1001c8bb f gdtinfo.obj
 0001:0001b8bc       ?SetImplTypeFlags@GEN_DTINFO@@UAGJIH@Z 1001c8bc f gdtinfo.obj
 0001:0001b8f9       ?SetAlignment@GEN_DTINFO@@UAGJG@Z 1001c8f9 f gdtinfo.obj
 0001:0001b911       ?SetSchema@GEN_DTINFO@@UAGJPAG@Z 1001c911 f gdtinfo.obj
 0001:0001b919       ??_GGEN_DTINFO@@MAEPAXI@Z  1001c919 f gdtinfo.obj
 0001:0001b919       ??_EGEN_DTINFO@@MAEPAXI@Z  1001c919 f gdtinfo.obj
 0001:0001b937       ?QueryInterface@GEN_DTINFO@@W3AGJABU_GUID@@PAPAX@Z 1001c937 f gdtinfo.obj
 0001:0001b941       ?GetTypeAttr@OSTL_TI@@UAGJPAPAUtagTYPEATTR@@@Z 1001c941 f gdtinfo.obj
 0001:0001b946       ?GetTypeComp@OSTL_TI@@UAGJPAPAUITypeComp@@@Z 1001c946 f gdtinfo.obj
 0001:0001b94b       ?GetFuncDesc@OSTL_TI@@UAGJIPAPAUtagFUNCDESC@@@Z 1001c94b f gdtinfo.obj
 0001:0001b950       ?GetVarDesc@OSTL_TI@@UAGJIPAPAUtagVARDESC@@@Z 1001c950 f gdtinfo.obj
 0001:0001b955       ?GetNames@OSTL_TI@@UAGJJPAPAGIPAI@Z 1001c955 f gdtinfo.obj
 0001:0001b95a       ?GetRefTypeOfImplType@OSTL_TI@@UAGJIPAK@Z 1001c95a f gdtinfo.obj
 0001:0001b95f       ?GetImplTypeFlags@OSTL_TI@@UAGJIPAH@Z 1001c95f f gdtinfo.obj
 0001:0001b964       ?GetIDsOfNames@OSTL_TI@@UAGJPAPAGIPAJ@Z 1001c964 f gdtinfo.obj
 0001:0001b969       ?GetDocumentation@OSTL_TI@@UAGJJPAPAG0PAK0@Z 1001c969 f gdtinfo.obj
 0001:0001b96e       ?GetDllEntry@OSTL_TI@@UAGJJW4tagINVOKEKIND@@PAPAG1PAG@Z 1001c96e f gdtinfo.obj
 0001:0001b973       ?OGtRfTI@OSTL_TI@@UAGJKPAPAUITypeInfo@@@Z 1001c973 f gdtinfo.obj
 0001:0001b978       ?AddressOfMember@OSTL_TI@@UAGJJW4tagINVOKEKIND@@PAPAX@Z 1001c978 f gdtinfo.obj
 0001:0001b97d       ?CreateInstance@OSTL_TI@@UAGJPAUIUnknown@@ABU_GUID@@PAPAX@Z 1001c97d f gdtinfo.obj
 0001:0001b982       ?GetMops@OSTL_TI@@UAGJJPAPAG@Z 1001c982 f gdtinfo.obj
 0001:0001b987       ?ReleaseTypeAttr@OSTL_TI@@UAGXPAUtagTYPEATTR@@@Z 1001c987 f gdtinfo.obj
 0001:0001b98a       ?ReleaseFuncDesc@OSTL_TI@@UAGXPAUtagFUNCDESC@@@Z 1001c98a f gdtinfo.obj
 0001:0001b98d       ?ReleaseVarDesc@OSTL_TI@@UAGXPAUtagVARDESC@@@Z 1001c98d f gdtinfo.obj
 0001:0001b990       ?SetGuid@OSTL_TI@@UAGJABU_GUID@@@Z 1001c990 f gdtinfo.obj
 0001:0001b995       ?SetTypeFlags@OSTL_TI@@UAGJI@Z 1001c995 f gdtinfo.obj
 0001:0001b99a       ?SetDocString@OSTL_TI@@UAGJPAG@Z 1001c99a f gdtinfo.obj
 0001:0001b99f       ?SetHelpContext@OSTL_TI@@UAGJK@Z 1001c99f f gdtinfo.obj
 0001:0001b9a4       ?SetVersion@OSTL_TI@@UAGJGG@Z 1001c9a4 f gdtinfo.obj
 0001:0001b9a9       ?AddRefTypeInfo@OSTL_TI@@UAGJPAUITypeInfo@@PAK@Z 1001c9a9 f gdtinfo.obj
 0001:0001b9ae       ?AddFuncDesc@OSTL_TI@@UAGJIPAUtagFUNCDESC@@@Z 1001c9ae f gdtinfo.obj
 0001:0001b9b3       ?AddImplType@OSTL_TI@@UAGJIK@Z 1001c9b3 f gdtinfo.obj
 0001:0001b9b8       ?SetImplTypeFlags@OSTL_TI@@UAGJIH@Z 1001c9b8 f gdtinfo.obj
 0001:0001b9bd       ?SetAlignment@OSTL_TI@@UAGJG@Z 1001c9bd f gdtinfo.obj
 0001:0001b9c2       ?SetSchema@OSTL_TI@@UAGJPAG@Z 1001c9c2 f gdtinfo.obj
 0001:0001b9c7       ?AddVarDesc@OSTL_TI@@UAGJIPAUtagVARDESC@@@Z 1001c9c7 f gdtinfo.obj
 0001:0001b9cc       ?SetFuncAndParamNames@OSTL_TI@@UAGJIPAPADI@Z 1001c9cc f gdtinfo.obj
 0001:0001b9d1       ?SetVarName@OSTL_TI@@UAGJIPAD@Z 1001c9d1 f gdtinfo.obj
 0001:0001b9d6       ?SetTypeDescAlias@OSTL_TI@@UAGJPAUtagTYPEDESC@@@Z 1001c9d6 f gdtinfo.obj
 0001:0001b9db       ?DefineFuncAsDllEntry@OSTL_TI@@UAGJIPAG0@Z 1001c9db f gdtinfo.obj
 0001:0001b9e0       ?SetFuncDocString@OSTL_TI@@UAGJIPAG@Z 1001c9e0 f gdtinfo.obj
 0001:0001b9e5       ?SetVarDocString@OSTL_TI@@UAGJIPAG@Z 1001c9e5 f gdtinfo.obj
 0001:0001b9ea       ?SetFuncHelpContext@OSTL_TI@@UAGJIK@Z 1001c9ea f gdtinfo.obj
 0001:0001b9ef       ?SetVarHelpContext@OSTL_TI@@UAGJIK@Z 1001c9ef f gdtinfo.obj
 0001:0001b9f4       ?SetMops@OSTL_TI@@UAGJIPAG@Z 1001c9f4 f gdtinfo.obj
 0001:0001b9f9       ?SetTypeIdldesc@OSTL_TI@@UAGJPAUtagIDLDESC@@@Z 1001c9f9 f gdtinfo.obj
 0001:0001b9fe       ?LayOut@OSTL_TI@@UAGJXZ    1001c9fe f gdtinfo.obj
 0001:0001ba03       ??_EOSTL_TI@@MAEPAXI@Z     1001ca03 f gdtinfo.obj
 0001:0001ba03       ??_GOSTL_TI@@MAEPAXI@Z     1001ca03 f gdtinfo.obj
 0001:0001ba21       ?IterationNotInProgress@GEN_DTINFO@@UAEHXZ 1001ca21 f gdtinfo.obj
 0001:0001ba2a       ?Read@GEN_DTINFO@@UAEJXZ   1001ca2a f gdtinfo.obj
 0001:0001ba32       ?Write@GEN_DTINFO@@UAEJXZ  1001ca32 f gdtinfo.obj
 0001:0001ba3a       ?WriteToStream@GEN_DTINFO@@UAEJPAVSTREAM@@@Z 1001ca3a f gdtinfo.obj
 0001:0001ba49       ?EndDepIteration@GEN_DTINFO@@UAEXXZ 1001ca49 f gdtinfo.obj
 0001:0001ba58       ?IsReady@GEN_DTINFO@@UAEHXZ 1001ca58 f gdtinfo.obj
 0001:0001ba69       ?QueryInterface@OSTL_TI@@W3AGJABU_GUID@@PAPAX@Z 1001ca69 f gdtinfo.obj
 0001:0001ba73       ?AddRef@OSTL_TI@@W3AGKXZ   1001ca73 f gdtinfo.obj
 0001:0001ba7d       ?Release@OSTL_TI@@W3AGKXZ  1001ca7d f gdtinfo.obj
 0001:0001ba87       ?GetIDsOfNames@GEN_DTINFO@@UAGJPAPAGIPAJ@Z 1001ca87 f gdtrt.obj
 0001:0001beb7       ?IndexOfParam@GEN_DTINFO@@QAEJPAUtagDISPPARAMS@@IPAI@Z 1001ceb7 f gdtrt.obj
 0001:0001bef8       ?VariantVtOfTypedesc@GEN_DTINFO@@QAEJPAUtagTYPEDESC@@PAGPAU_GUID@@1@Z 1001cef8 f gdtrt.obj
 0001:0001c19e       ?VariantVtOfHtdefn@GEN_DTINFO@@QAEJIPAVTYPE_DATA@@HPAGPAU_GUID@@1@Z 1001d19e f gdtrt.obj
 0001:0001c1e8       ?Invoke@GEN_DTINFO@@UAGJPAXJGPAUtagDISPPARAMS@@PAUtagVARIANT@@PAUtagEXCEPINFO@@PAI@Z 1001d1e8 f gdtrt.obj
 0001:0001c8c5       ?CoerceArg@GEN_DTINFO@@QAEJPAUtagVARIANT@@GGPAU_GUID@@PAUINVOKEARGS@1@I@Z 1001d8c5 f gdtrt.obj
 0001:0001cbd5       ?GetInvokeArgs@GEN_DTINFO@@QAEJIPAVTYPE_DATA@@GPAUtagDISPPARAMS@@PAPAUtagVARIANT@@PAXPAPAUINVOKEARGS@1@PAIH@Z 1001dbd5 f gdtrt.obj
 0001:0001d068       ?AllocInvokeArgs@GEN_DTINFO@@QAEJIIPAPAUINVOKEARGS@1@@Z 1001e068 f gdtrt.obj
 0001:0001d1a7       ?ReleaseInvokeArgs@GEN_DTINFO@@QAEXPAUINVOKEARGS@1@@Z 1001e1a7 f gdtrt.obj
 0001:0001d1f7       ?CopyBackByrefArgs@GEN_DTINFO@@QAEJPAUINVOKEARGS@1@@Z 1001e1f7 f gdtrt.obj
 0001:0001d3b6       ?GetLcid@OSTL_TI@@IAEJPAK@Z 1001e3b6 f stltinfo.obj
 0001:0001d3ca       ?RelInternalRef@OSTL_TI@@QAEXXZ 1001e3ca f stltinfo.obj
 0001:0001d42d       ?QueryInterface@DYNTYPEINFO@@UAGJABU_GUID@@PAPAX@Z 1001e42d f stltinfo.obj
 0001:0001d4d1       ?QueryInterface@OSTL_TI@@UAGJABU_GUID@@PAPAX@Z 1001e4d1 f stltinfo.obj
 0001:0001d565       ?AddRef@OSTL_TI@@UAGKXZ    1001e565 f stltinfo.obj
 0001:0001d58b       ?Release@OSTL_TI@@UAGKXZ   1001e58b f stltinfo.obj
 0001:0001d609       ?SetModified@OSTL_TI@@QAEJH@Z 1001e609 f stltinfo.obj
 0001:0001d652       ?SetContainingTypeLib@OSTL_TI@@IAEXPAVOGTOLE@@@Z 1001e652 f stltinfo.obj
 0001:0001d6a3       ??1OSTL_TI@@MAE@XZ         1001e6a3 f stltinfo.obj
 0001:0001d6b1       ?GetContainingTypeLib@OSTL_TI@@UAGJPAPAUITypeLib@@PAI@Z 1001e6b1 f stltinfo.obj
 0001:0001d6ed       ?PrepareForDestruction@OSTL_TI@@UAEXXZ 1001e6ed f stltinfo.obj
 0001:0001d6ee       ?Invoke@OSTL_TI@@UAGJPAXJGPAUtagDISPPARAMS@@PAUtagVARIANT@@PAUtagEXCEPINFO@@PAI@Z 1001e6ee f stltinfo.obj
 0001:0001d6f3       ??0NAMMGR@@QAE@XZ          1001e6f3 f nammgr.obj
 0001:0001d717       ??1NAMMGR@@QAE@XZ          1001e717 f nammgr.obj
 0001:0001d72e       ?Init@NAMMGR@@QAEJPAVSHEAP_MGR@@PAVDYN_TYPEROOT@@@Z 1001e72e f nammgr.obj
 0001:0001d7b4       ?SetGtlibole@NAMMGR@@QAEJPAVOGTOLE@@@Z 1001e7b4 f nammgr.obj
 0001:0001d7c0       ?GetBucketOfHash@NAMMGR@@ABEII@Z 1001e7c0 f nammgr.obj
 0001:0001d7d9       ?SetBucketOfHash@NAMMGR@@AAEXII@Z 1001e7d9 f nammgr.obj
 0001:0001d7f6       ?Read@NAMMGR@@QAEJPAVSTREAM@@@Z 1001e7f6 f nammgr.obj
 0001:0001d82b       ?Write@NAMMGR@@QAEJPAVSTREAM@@@Z 1001e82b f nammgr.obj
 0001:0001d85b       ?ForEachDescendant@NAMMGR@@AAEXIP81@AEXI@ZH@Z 1001e85b f nammgr.obj
 0001:0001d8e7       ?AddEntry@NAMMGR@@AAEXI@Z  1001e8e7 f nammgr.obj
 0001:0001d960       ?FindHash@NAMMGR@@ABEIII@Z 1001e960 f nammgr.obj
 0001:0001d9a4       ?FindTextNam@NAMMGR@@AAEIPBDIHPAHH@Z 1001e9a4 f nammgr.obj
 0001:0001daad       ?HlnamOfStrIfExist@NAMMGR@@QAEIPBD@Z 1001eaad f nammgr.obj
 0001:0001dae2       ?HlnamOfStrW@NAMMGR@@QAEJPBGPAIHPAHHH@Z 1001eae2 f nammgr.obj
 0001:0001db26       ?HlnamOfStr@NAMMGR@@QAEJPBDPAIHPAHHH@Z 1001eb26 f nammgr.obj
 0001:0001dc5d       ?StrOfHlnam@NAMMGR@@QBEJIPADI@Z 1001ec5d f nammgr.obj
 0001:0001dcae       ?GetHgnamOfStrLhash@NAMMGR@@QAEJPADKPAK@Z 1001ecae f nammgr.obj
 0001:0001dd46       ?IsName@NAMMGR@@QAEJPADKPAH@Z 1001ed46 f nammgr.obj
 0001:0001ddd0       ?BstrOfHlnam@NAMMGR@@QBEJIPAPAD@Z 1001edd0 f nammgr.obj
 0001:0001ddf8       ?BstrWOfHlnam@NAMMGR@@QBEJIPAPAG@Z 1001edf8 f nammgr.obj
 0001:0001de68       ?HgnamOfHlnam@NAMMGR@@QAEJIPAK@Z 1001ee68 f nammgr.obj
 0001:0001de89       ?LpstrOfHgnam@NAMMGR@@QBEPADK@Z 1001ee89 f nammgr.obj
 0001:0001de9f       ?HgnamOfStr@NAMMGR@@QAEJPADPAK@Z 1001ee9f f nammgr.obj
 0001:0001deda       ?StriEq@NAMMGR@@QAEHPBD0@Z 1001eeda f nammgr.obj
 0001:0001df81       ?GenerateSortKey@NAMMGR@@QAEJXZ 1001ef81 f nammgr.obj
 0001:0001dfc9       ?HashOfHlnam@NAMMGR@@QAEKI@Z 1001efc9 f nammgr.obj
 0001:0001e011       ?GetRegisteredPath@@YAJPAUHKEY__@@PAG1PAJH@Z 1001f011 f gtlibole.obj
 0001:0001e058       _CreateTypeLib@12          1001f058 f gtlibole.obj
 0001:0001e0ed       ?ErrOpenFile@@YAJPAGPAHPAPAG@Z 1001f0ed f gtlibole.obj
 0001:0001e18a       ?ErrOpen@@YAJPAGPAH@Z      1001f18a f gtlibole.obj
 0001:0001e1fd       ?HrSeek@@YAJHJH@Z          1001f1fd f gtlibole.obj
 0001:0001e21b       ?HrRead@@YAJHPAXI@Z        1001f21b f gtlibole.obj
 0001:0001e239       ?HrCurPos@@YAJHPAK@Z       1001f239 f gtlibole.obj
 0001:0001e259       ?GetRsrcDirEntry@@YAJHKPAGKPAU_IMAGE_RESOURCE_DIRECTORY_ENTRY@@@Z 1001f259 f gtlibole.obj
 0001:0001e49c       ?GetOffsetOfResource@@YAJHPADHPAU_IMAGE_DOS_HEADER@@PAJ2@Z 1001f49c f gtlibole.obj
 0001:0001e823       ?GetOffsetOfTypeLibResource@@YAJHHPAU_IMAGE_DOS_HEADER@@PAJ1@Z 1001f823 f gtlibole.obj
 0001:0001e844       ?InitLoadInfo@@YAXPAULoadInfo@@@Z 1001f844 f gtlibole.obj
 0001:0001e868       ?UninitLoadInfo@@YAXPAULoadInfo@@@Z 1001f868 f gtlibole.obj
 0001:0001e895       ?VerifyIsExeOrTlb@@YAJPAULoadInfo@@@Z 1001f895 f gtlibole.obj
 0001:0001e92a       ?SplitResID@@YAJPAGPAPAG@Z 1001f92a f gtlibole.obj
 0001:0001e97a       ?FindTypeLibUnqual@@YAJPAGPAULoadInfo@@@Z 1001f97a f gtlibole.obj
 0001:0001ead5       ?FindTypeLib@@YAJPAGPAULoadInfo@@@Z 1001fad5 f gtlibole.obj
 0001:0001ebeb       _LoadTypeLib@8             1001fbeb f gtlibole.obj
 0001:0001eeb2       ?RegCreateSubKey@@YAJPAUHKEY__@@PAG1H@Z 1001feb2 f gtlibole.obj
 0001:0001eef9       _RegisterTypeLib@12        1001fef9 f gtlibole.obj
 0001:0001f47a       ??2OGTOLE@@KAPAXI@Z        1002047a f gtlibole.obj
 0001:0001f4a6       ?Init@OGTOLE@@UAEJXZ       100204a6 f gtlibole.obj
 0001:0001f5a4       ?Create@OGTOLE@@SAJPAUIStorage@@PAPAV1@@Z 100205a4 f gtlibole.obj
 0001:0001f5fd       ?QueryInterface@OGTOLE@@UAGJABU_GUID@@PAPAX@Z 100205fd f gtlibole.obj
 0001:0001f685       ?AddRef@OGTOLE@@UAGKXZ     10020685 f gtlibole.obj
 0001:0001f69b       ??0OGTOLE@@IAE@XZ          1002069b f gtlibole.obj
 0001:0001f7b9       ?Release@OGTOLE@@UAGKXZ    100207b9 f gtlibole.obj
 0001:0001f81a       ??1OGTOLE@@MAE@XZ          1002081a f gtlibole.obj
 0001:0001f952       ?Deleting@OGTOLE@@IAEXG@Z  10020952 f gtlibole.obj
 0001:0001f968       ?GetTypeInfoCount@OGTOLE@@UAGIXZ 10020968 f gtlibole.obj
 0001:0001f976       ?GetDocumentation@OGTOLE@@UAGJHPAPAG0PAK0@Z 10020976 f gtlibole.obj
 0001:0001fc5a       ?IsName@OGTOLE@@UAGJPAGKPAH@Z 10020c5a f gtlibole.obj
 0001:0001fd3c       ?FindName@OGTOLE@@UAGJPAGKPAPAUITypeInfo@@PAJ0@Z 10020d3c f gtlibole.obj
 0001:0001fe39       ?GetLibAttr@OGTOLE@@UAGJPAPAUtagTLIBATTR@@@Z 10020e39 f gtlibole.obj
 0001:0001feb2       ?ReleaseTLibAttr@OGTOLE@@UAGXPAUtagTLIBATTR@@@Z 10020eb2 f gtlibole.obj
 0001:0001fec6       ?OCreateTI@OGTOLE@@UAGJPAGW4tagTYPEKIND@@PAPAUICreateTypeInfo@@@Z 10020ec6 f gtlibole.obj
 0001:0001ff39       ?SetDocString@OGTOLE@@UAGJPAG@Z 10020f39 f gtlibole.obj
 0001:0001ff53       ?SetHelpFileName@OGTOLE@@UAGJPAG@Z 10020f53 f gtlibole.obj
 0001:0001ff6d       ?SetHelpContext@OGTOLE@@UAGJK@Z 10020f6d f gtlibole.obj
 0001:0001ff80       ?SetLibFlags@OGTOLE@@UAGJI@Z 10020f80 f gtlibole.obj
 0001:0001ff94       ?SetLcid@OGTOLE@@UAGJK@Z   10020f94 f gtlibole.obj
 0001:00020030       ?GetTypeComp@OGTOLE@@UAGJPAPAUITypeComp@@@Z 10021030 f gtlibole.obj
 0001:00020078       ?SetDirectory@OGTOLE@@IAEJPAG@Z 10021078 f gtlibole.obj
 0001:000200b1       ?SetLibId@OGTOLE@@QAEJPAG@Z 100210b1 f gtlibole.obj
 0001:000200d0       ?GetTypeInfoOfGuid@OGTOLE@@UAGJABU_GUID@@PAPAUITypeInfo@@@Z 100210d0 f gtlibole.obj
 0001:0002012d       ?GetTypeInfo@OGTOLE@@UAGJIPAPAUITypeInfo@@@Z 1002112d f gtlibole.obj
 0001:00020208       ?GetGdtiOfItyp@OGTOLE@@QAEJIPAPAVGEN_DTINFO@@@Z 10021208 f gtlibole.obj
 0001:0002022f       ?GetTypeInfoType@OGTOLE@@UAGJIPAW4tagTYPEKIND@@@Z 1002122f f gtlibole.obj
 0001:00020268       ?GetCompressedTypeId@OGTOLE@@QAEJPAUITypeInfo@@PAPAG@Z 10021268 f gtlibole.obj
 0001:0002043f       ?FindMembers@OGTOLE@@QAEJPADKPAPAUITypeInfo@@PAJPAG@Z 1002143f f gtlibole.obj
 0001:0002077c       ?WriteTypeId@OGTOLE@@QAEJPAVSTREAM@@PAUITypeInfo@@@Z 1002177c f gtlibole.obj
 0001:000207e7       ?TypeInfoFromCompressedTypeId@OGTOLE@@QAEJPAGPAPAUITypeInfo@@@Z 100217e7 f gtlibole.obj
 0001:000208e6       ?AddTypeEntry@OGTOLE@@IAEJPADPAG1@Z 100218e6 f gtlibole.obj
 0001:00020ad8       ?UnAddTypeEntry@OGTOLE@@IAEXI@Z 10021ad8 f gtlibole.obj
 0001:00020b7c       ?CreateInstance@OGTOLE@@IAEJPAGPAPAX@Z 10021b7c f gtlibole.obj
 0001:00020baf       ?IhteHash@OGTOLE@@IAEIPAG@Z 10021baf f gtlibole.obj
 0001:00020bc3       ?GetTypeBind@OGTOLE@@QAEJXZ 10021bc3 f gtlibole.obj
 0001:00020c77       ?GetBinddescOfSzName@OGTOLE@@QAEJPADPAUGENPROJ_BIND_DESC@@@Z 10021c77 f gtlibole.obj
 0001:00020cf3       ?GetIndexOfName@OGTOLE@@QAEJPADPAG@Z 10021cf3 f gtlibole.obj
 0001:00020d3e       ?GetStorage@OGTOLE@@QAEJKPAPAUIStorage@@@Z 10021d3e f gtlibole.obj
 0001:00020e97       ?Read@OGTOLE@@IAEJXZ       10021e97 f gtlibole.obj
 0001:00020ee6       ?ReadNameCacheArray@OGTOLE@@IAEJXZ 10021ee6 f gtlibole.obj
 0001:00020fb9       ?AddNameToCache@OGTOLE@@QAEJIK@Z 10021fb9 f gtlibole.obj
 0001:00020ff2       ?LoadNameCache@OGTOLE@@QAEJXZ 10021ff2 f gtlibole.obj
 0001:000210af       ?ReadString@OGTOLE@@IAEJPAVSTREAM@@PAI@Z 100220af f gtlibole.obj
 0001:000211a2       ?WriteString@OGTOLE@@IAEJPAVSTREAM@@I@Z 100221a2 f gtlibole.obj
 0001:0002126d       ?Read@OGTOLE@@IAEJPAVSTREAM@@@Z 1002226d f gtlibole.obj
 0001:00021650       ?InvalidateNameCache@OGTOLE@@QAEXI@Z 10022650 f gtlibole.obj
 0001:00021675       ?QtrOfHChunk@OGTOLE@@IAEPAXI@Z 10022675 f gtlibole.obj
 0001:0002168e       ?QszLibIdOrFile@OGTOLE@@IAEPAGXZ 1002268e f gtlibole.obj
 0001:000216a0       ?QszOfHsz@OGTOLE@@IAEPAGI@Z 100226a0 f gtlibole.obj
 0001:000216b9       ?GetQszTypeInfoTypeId@OGTOLE@@IAEPAGG@Z 100226b9 f gtlibole.obj
 0001:000216f4       ?ReleaseResources@OGTOLE@@QAEXXZ 100226f4 f gtlibole.obj
 0001:000216ff       ?Add@OGTOLE@@QAEJPAVGEN_DTINFO@@PAG@Z 100226ff f gtlibole.obj
 0001:000217ca       ?UpdateTypeId@OGTOLE@@QAEJI@Z 100227ca f gtlibole.obj
 0001:00021827       ?CreateHsz@OGTOLE@@IAEJPAGPAI@Z 10022827 f gtlibole.obj
 0001:00021879       ?MakeLocalTypeId@OGTOLE@@IAEJPAI@Z 10022879 f gtlibole.obj
 0001:000218b0       ?QHteRef@OGTOLE@@IAEPAGG@Z 100228b0 f gtlibole.obj
 0001:000218f9       ?Write@OGTOLE@@IAEJXZ      100228f9 f gtlibole.obj
 0001:00021947       ?Write@OGTOLE@@IAEJPAVSTREAM@@@Z 10022947 f gtlibole.obj
 0001:00021cdc       ?SaveOrCopyChanges@OGTOLE@@QAEJPAUIStorage@@H@Z 10022cdc f gtlibole.obj
 0001:00021d96       ?SaveAllChanges@OGTOLE@@UAGJXZ 10022d96 f gtlibole.obj
 0001:00021f3a       ?SaveAllChanges@OGTOLE@@UAGJPAUIStorage@@@Z 10022f3a f gtlibole.obj
 0001:00021f4c       ?ResetHsz@OGTOLE@@IAEJPAGPAI@Z 10022f4c f gtlibole.obj
 0001:00021fa3       ?SetTypeDocString@OGTOLE@@QAEJIPAG@Z 10022fa3 f gtlibole.obj
 0001:00021ffa       ?SetTypeHelpContext@OGTOLE@@QAEJIK@Z 10022ffa f gtlibole.obj
 0001:00022012       ?SetVersion@OGTOLE@@UAGJGG@Z 10023012 f gtlibole.obj
 0001:00022033       ?SetName@OGTOLE@@UAGJPAG@Z 10023033 f gtlibole.obj
 0001:000220a2       ?SetGuid@OGTOLE@@UAGJABU_GUID@@@Z 100230a2 f gtlibole.obj
 0001:000220bd       ?SetModified@OGTOLE@@QAEJH@Z 100230bd f gtlibole.obj
 0001:000220d7       ?GetNamMgr@OGTOLE@@QAEJPAPAVNAMMGR@@@Z 100230d7 f gtlibole.obj
 0001:00022176       ?GetDstrMgr@OGTOLE@@QAEJPAPAVDOCSTR_MGR@@@Z 10023176 f gtlibole.obj
 0001:00022204       ?OpenTypeStream@OGTOLE@@QAEJIW4STREAM_OPEN_MODE@@PAPAVSTREAM@@@Z 10023204 f gtlibole.obj
 0001:00022309       ??_GOGTOLE@@MAEPAXI@Z      10023309 f gtlibole.obj
 0001:00022309       ??_EOGTOLE@@MAEPAXI@Z      10023309 f gtlibole.obj
 0001:00022337       ?QueryInterface@OGTOLE@@W3AGJABU_GUID@@PAPAX@Z 10023337 f gtlibole.obj
 0001:00022341       ?AddRef@OGTOLE@@W3AGKXZ    10023341 f gtlibole.obj
 0001:0002234b       ?Release@OGTOLE@@W3AGKXZ   1002334b f gtlibole.obj
 0001:00022355       ?Open@DOCFILE_STREAM@@SAJPAPAUIStorage@@0PAVOGTOLE@@IHPAGW4STREAM_OPEN_MODE@@PAPAVSTREAM@@@Z 10023355 f dfstream.obj
 0001:0002239c       ?Open@DOCFILE_STREAM@@SAJPAPAUIStorage@@0HPAGW4STREAM_OPEN_MODE@@PAPAVSTREAM@@@Z 1002339c f dfstream.obj
 0001:00022478       ??0DOCFILE_STREAM@@IAE@XZ  10023478 f dfstream.obj
 0001:000224a9       ??1DOCFILE_STREAM@@IAE@XZ  100234a9 f dfstream.obj
 0001:000224b0       ?Read@DOCFILE_STREAM@@UAEJPAXK@Z 100234b0 f dfstream.obj
 0001:00022523       ?Write@DOCFILE_STREAM@@UAEJPBXK@Z 10023523 f dfstream.obj
 0001:000225a0       ?ReadTextLine@DOCFILE_STREAM@@UAEJPADI@Z 100235a0 f dfstream.obj
 0001:000225a8       ?FillBuffer@DOCFILE_STREAM@@IAEJXZ 100235a8 f dfstream.obj
 0001:000225ff       ?FlushBuffer@DOCFILE_STREAM@@IAEJXZ 100235ff f dfstream.obj
 0001:00022659       ?GetPos@DOCFILE_STREAM@@UAEJPAJ@Z 10023659 f dfstream.obj
 0001:00022698       ?SetPos@DOCFILE_STREAM@@UAEJJ@Z 10023698 f dfstream.obj
 0001:000226f0       ?AddRef@DOCFILE_STREAM@@QAEXXZ 100236f0 f dfstream.obj
 0001:000226f4       ?Release@DOCFILE_STREAM@@UAEJXZ 100236f4 f dfstream.obj
 0001:00022795       ??0OLE_TYPEMGR@@AAE@XZ     10023795 f oletmgr.obj
 0001:000227b7       ??1OLE_TYPEMGR@@AAE@XZ     100237b7 f oletmgr.obj
 0001:000227c2       ?Create@OLE_TYPEMGR@@SAJPAPAV1@@Z 100237c2 f oletmgr.obj
 0001:00022833       ?Release@OLE_TYPEMGR@@QAEXXZ 10023833 f oletmgr.obj
 0001:0002284d       ?TypeLibLoaded@OLE_TYPEMGR@@QAEJPAGPAUITypeLib@@@Z 1002384d f oletmgr.obj
 0001:00022886       ?TypeLibUnloaded@OLE_TYPEMGR@@QAEXPAUITypeLib@@@Z 10023886 f oletmgr.obj
 0001:000228fd       ?LookupTypeLib@OLE_TYPEMGR@@QAEPAUITypeLib@@PAG@Z 100238fd f oletmgr.obj
 0001:00022921       ?LookupLibEntry@OLE_TYPEMGR@@AAEPAIPAG@Z 10023921 f oletmgr.obj
 0001:00022980       ?GetHlibentryOfFileName@OLE_TYPEMGR@@AAEJPAGPAI@Z 10023980 f oletmgr.obj
 0001:00022a42       ??0IMPMGR@@QAE@XZ          10023a42 f impmgr.obj
 0001:00022a76       ?Init@IMPMGR@@QAEJPAVSHEAP_MGR@@PAVBLK_DESC@@1PAVDYN_TYPEROOT@@@Z 10023a76 f impmgr.obj
 0001:00022ad4       ?ReleasePtinfo@IMPMGR@@AAEXI@Z 10023ad4 f impmgr.obj
 0001:00022b2a       ?SetPtinfo@IMPMGR@@AAEJIPAUITypeInfo@@H@Z 10023b2a f impmgr.obj
 0001:00022bb6       ?HimptypeAlloc@IMPMGR@@AAEJPAG@Z 10023bb6 f impmgr.obj
 0001:00022cbd       ?NewEntry@IMPMGR@@AAEJPAPAVUB_IMPTYPE@@PAG@Z 10023cbd f impmgr.obj
 0001:00022d07       ?GetHimptype@IMPMGR@@QAEJPAUITypeInfo@@W4DEPEND_KIND@@PAG@Z 10023d07 f impmgr.obj
 0001:00022dce       ?GetHimptypeIfExists@IMPMGR@@QAEIPAUITypeInfo@@@Z 10023dce f impmgr.obj
 0001:00022e05       ?GetTypeInfo@IMPMGR@@QAEJIW4DEPEND_KIND@@PAPAUITypeInfo@@@Z 10023e05 f impmgr.obj
 0001:00022e34       ?Unref@IMPMGR@@QAEXI@Z     10023e34 f impmgr.obj
 0001:00022e4f       ?HimptypeFirst@IMPMGR@@QBEIXZ 10023e4f f impmgr.obj
 0001:00022e5f       ?HimptypeNext@IMPMGR@@QBEII@Z 10023e5f f impmgr.obj
 0001:00022e79       ?RegisterDeclRefDep@IMPMGR@@QAEJPAUITypeInfo@@@Z 10023e79 f impmgr.obj
 0001:00022ed0       ?CheckRemainingDep@IMPMGR@@QAEJPAW4DEPEND_KIND@@@Z 10023ed0 f impmgr.obj
 0001:00023014       ?Read@IMPMGR@@QAEJPAVSTREAM@@@Z 10024014 f impmgr.obj
 0001:00023108       ?Write@IMPMGR@@QAEJPAVSTREAM@@@Z 10024108 f impmgr.obj
 0001:00023193       ?WriteLayoutEntries@IMPMGR@@QAEJPAVSTREAM@@H@Z 10024193 f impmgr.obj
 0001:000231ee       ??1IMPMGR@@QAE@XZ          100241ee f impmgr.obj
 0001:00023245       ?RemoveInternalRefs@IMPMGR@@QAEXXZ 10024245 f impmgr.obj
 0001:00023280       ?GetErrorInfo@@YAJPAUtagEXCEPINFO@@@Z 10024280 f errmap.obj
 0001:000232f8       ?TiperrOfOFErr@@YAJI@Z     100242f8 f errmap.obj
 0001:0002341a       ?IsUnqualifiable@@YAHPAVGEN_DTINFO@@@Z 1002441a f clutil.obj
 0001:00023440       ?GetTimeStamp@@YAXPAG@Z    10024440 f clutil.obj
 0001:000234c7       ?SzLibIdLocalTypeIdOfTypeId@@YAJPAGPAPAG1@Z 100244c7 f clutil.obj
 0001:00023530       ?IsSimpleType@@YAHW4TYPEDESCKIND@@@Z 10024530 f clutil.obj
 0001:00023586       ?HashSz@@YAIPAG@Z          10024586 f clutil.obj
 0001:000235cd       ?HashSzTerm@@YAIPAGD@Z     100245cd f clutil.obj
 0001:00023620       ?SwapElementIndex@@YAXPAKPAIII@Z 10024620 f clutil.obj
 0001:00023652       ?QuickSortIndex@@YAXPAKPAII@Z 10024652 f clutil.obj
 0001:00023754       ?GetBStrOfHsz@@YAJPAVBLK_MGR@@IPAPAG@Z 10024754 f clutil.obj
 0001:0002378e       ?CompareHimptypes@@YAJQAVTYPE_DATA@@I0IPAH@Z 1002478e f clutil.obj
 0001:00023807       _VerifyLcid                10024807 f clutil.obj
 0001:00023848       ?SplitGuidLibId@@YAJPAGPAPAG100PAK11@Z 10024848 f clutil.obj
 0001:0002394f       ?GetLibIdKind@@YA?AW4LIBIDKIND@@PAG@Z 1002494f f clutil.obj
 0001:0002398b       ?GetPathOfLibId@@YAJPAGPAPAG@Z 1002498b f clutil.obj
 0001:00023a27       ?GetRegLibOfLibId@@YAJPAGPAPAUITypeLib@@@Z 10024a27 f clutil.obj
 0001:00023aae       ?GetRegInfoForTypeLibOfSzGuid@@YAJPAGGGK0H@Z 10024aae f clutil.obj
 0001:00023b74       _LoadRegTypeLibOfSzGuid@20 10024b74 f clutil.obj
 0001:00023c47       _LoadRegTypeLib@20         10024c47 f clutil.obj
 0001:00023d19       _QueryPathOfRegTypeLib@20  10024d19 f clutil.obj
 0001:00023d97       ?InitTypeDesc@@YAXPAUtagTYPEDESC@@@Z 10024d97 f clutil.obj
 0001:00023da2       ?InitIdlDesc@@YAXPAUtagIDLDESC@@@Z 10024da2 f clutil.obj
 0001:00023dad       ?InitElemDesc@@YAXPAUtagELEMDESC@@@Z 10024dad f clutil.obj
 0001:00023dc9       ?InitVarDesc@@YAXPAUtagVARDESC@@@Z 10024dc9 f clutil.obj
 0001:00023de1       ?InitFuncDesc@@YAXPAUtagFUNCDESC@@@Z 10024de1 f clutil.obj
 0001:00023e03       ?ClearTypeDesc@@YAXPAUtagTYPEDESC@@@Z 10024e03 f clutil.obj
 0001:00023e30       ?ClearIdlDesc@@YAXPAUtagIDLDESC@@@Z 10024e30 f clutil.obj
 0001:00023e31       ?ClearArrayDesc@@YAXPAUtagARRAYDESC@@@Z 10024e31 f clutil.obj
 0001:00023e3e       ?ClearElemDesc@@YAXPAUtagELEMDESC@@@Z 10024e3e f clutil.obj
 0001:00023e5a       ?FreeVarDesc@@YAXPAUtagVARDESC@@@Z 10024e5a f clutil.obj
 0001:00023e93       ?FreeFuncDesc@@YAXPAUtagFUNCDESC@@@Z 10024e93 f clutil.obj
 0001:00023ee0       ?FreeTypeDesc@@YAXPAUtagTYPEDESC@@@Z 10024ee0 f clutil.obj
 0001:00023efd       ?FreeArrayDesc@@YAXPAUtagARRAYDESC@@@Z 10024efd f clutil.obj
 0001:00023f1a       ?CopyArrayDesc@@YAJPAPAUtagARRAYDESC@@PAU1@@Z 10024f1a f clutil.obj
 0001:00023f5c       ?CopyTypeDesc@@YAJPAUtagTYPEDESC@@0@Z 10024f5c f clutil.obj
 0001:00023fe0       ?GetLibIdOfRegLib@@YAJPAGGGK00PAPAG@Z 10024fe0 f clutil.obj
 0001:00024127       ?GetLibIdOfTypeLib@@YAJPAUITypeLib@@PAGPAPAG@Z 10025127 f clutil.obj
 0001:000241be       ?GetTypeInfoOfTypeId@@YAJPAGPAPAUITypeInfo@@@Z 100251be f clutil.obj
 0001:00024234       ?OpenTypeLibKey@@YAJPAGGGPAUTLIBKEY@@@Z 10025234 f clutil.obj
 0001:000243bc       ?CloseTypeLibKey@@YAXPAUTLIBKEY@@@Z 100253bc f clutil.obj
 0001:000243d9       ?MakeAbsolutePath@@YAJPAG0PAPAG@Z 100253d9 f clutil.obj
 0001:00024571       ?FExistsRegisteredTypelib@@YAHPAUHKEY__@@PADPAPAG@Z 10025571 f clutil.obj
 0001:000245e9       ?OGetBestLcidMatch@@YAJPAUHKEY__@@KPAKPAPAG@Z 100255e9 f clutil.obj
 0001:00024676       ?ConvertPathToUNC@@YAJPAGPAPAG@Z 10025676 f clutil.obj
 0001:000247fd       ?GetPathEnd@@YAPAGPAG@Z    100257fd f clutil.obj
 0001:00024828       ?IsolateFilename@@YAPAGPAG@Z 10025828 f clutil.obj
 0001:00024842       _OaBuildVersion@0          10025842 f clutil.obj
 0001:00024865       ?InitProcessData@@YAJXZ    10025865 f oautil.obj
 0001:00024886       ?ReleaseProcessData@@YAXXZ 10025886 f oautil.obj
 0001:00024893       ?QueryInterface@CReleaseAppData@@EAGJABU_GUID@@PAPAX@Z 10025893 f oautil.obj
 0001:0002489b       ?AddRef@CReleaseAppData@@EAGKXZ 1002589b f oautil.obj
 0001:000248a3       ?Release@CReleaseAppData@@EAGKXZ 100258a3 f oautil.obj
 0001:000248bd       ?InitAppData@@YAJXZ        100258bd f oautil.obj
 0001:000249a1       ?ReleaseAppData@@YAXXZ     100259a1 f oautil.obj
 0001:00024a07       ?Release@AppObjectTable@@QAEXXZ 10025a07 f oautil.obj
 0001:00024a6c       ?AddTypeInfo@AppObjectTable@@QAEJPAU_GUID@@PAK@Z 10025a6c f oautil.obj
 0001:00024b33       ?RemoveTypeInfo@AppObjectTable@@QAEXK@Z 10025b33 f oautil.obj
 0001:00024b87       ?AddressOfAppObject@AppObjectTable@@QAEXKPAPAX@Z 10025b87 f oautil.obj
 0001:00024bb5       _CbSizeArrayDesc@4         10025bb5 f tdata1.obj
 0001:00024bcc       ?rtArrayInit@@YGXPAUtagSAFEARRAY@@I@Z 10025bcc f tdata1.obj
 0001:00024bfb       ?Init@TYPE_DATA@@QAEJPAVSHEAP_MGR@@PAVDYN_TYPEROOT@@@Z 10025bfb f tdata1.obj
 0001:00024c88       ??1TYPE_DATA@@QAE@XZ       10025c88 f tdata1.obj
 0001:00024c9e       ?AppendDefn@TYPE_DATA@@AAEXIPAG0@Z 10025c9e f tdata1.obj
 0001:00024cd4       ?AppendMbrVarDefn@TYPE_DATA@@AAEXI@Z 10025cd4 f tdata1.obj
 0001:00024d2a       ?ReleaseDllentrydefn@TYPE_DATA@@QAEXI@Z 10025d2a f tdata1.obj
 0001:00024d4d       ?FreeArrayDescriptor@TYPE_DATA@@QAEXI@Z 10025d4d f tdata1.obj
 0001:00024d77       ?FreeTypeDefnResources@TYPE_DATA@@QAEXI@Z 10025d77 f tdata1.obj
 0001:00024e0c       ?FreeTypeDefn@TYPE_DATA@@QAEXI@Z 10025e0c f tdata1.obj
 0001:00024e38       ?FreeMbrVarDefn@TYPE_DATA@@QAEXI@Z 10025e38 f tdata1.obj
 0001:00024edd       ?SizeofConstVal@TYPE_DATA@@QAEIPAVVAR_DEFN@@I@Z 10025edd f tdata1.obj
 0001:00024f45       ?FreeFuncDefn@TYPE_DATA@@QAEXI@Z 10025f45 f tdata1.obj
 0001:00025077       ?FreeParamDefn@TYPE_DATA@@QAEXI@Z 10026077 f tdata1.obj
 0001:0002508f       ?Write@TYPE_DATA@@QAEJPAVSTREAM@@@Z 1002608f f tdata1.obj
 0001:000251a6       ?Read@TYPE_DATA@@QAEJPAVSTREAM@@@Z 100261a6 f tdata1.obj
 0001:000252cf       ?AllocMbrVarDefn@TYPE_DATA@@AAEJPAGH@Z 100262cf f tdata1.obj
 0001:000253a9       ?AllocFuncDefn@TYPE_DATA@@AAEJPAGH@Z 100263a9 f tdata1.obj
 0001:000254b5       ?AllocVirtualFuncDefn@TYPE_DATA@@AAEJPAGH@Z 100264b5 f tdata1.obj
 0001:000255cd       ?AllocTypeDefn@TYPE_DATA@@AAEJIQAW4TYPEDESCKIND@@PAG@Z 100265cd f tdata1.obj
 0001:0002564a       ?AllocArrayDescriptor@TYPE_DATA@@AAEJIPAG@Z 1002664a f tdata1.obj
 0001:0002568e       ?HdefnOfHmember@TYPE_DATA@@QAEIKPAI@Z 1002668e f tdata1.obj
 0001:000256cf       ?HfdefnOfHmember@TYPE_DATA@@QBEIKI@Z 100266cf f tdata1.obj
 0001:00025751       ?HvdefnPredeclared@TYPE_DATA@@QBEIXZ 10026751 f tdata1.obj
 0001:00025756       ?SetHvdefnPredeclared@TYPE_DATA@@QAEXI@Z 10026756 f tdata1.obj
 0001:00025761       ?HmvdefnOfHmember@TYPE_DATA@@QBEIK@Z 10026761 f tdata1.obj
 0001:00025797       ?SizeTypeDefnOfTDescKind@TYPE_DATA@@ABEIIPAW4TYPEDESCKIND@@@Z 10026797 f tdata1.obj
 0001:000257ea       ?SizeOfTypeDefn@TYPE_DATA@@QBEII@Z 100267ea f tdata1.obj
 0001:000257f8       ?DefnSize@TYPE_DEFN@@QAEIXZ 100267f8 f tdata1.obj
 0001:00025852       ?AllocVardefnPredeclared@TYPE_DATA@@QAEJXZ 10026852 f tdata1.obj
 0001:000259cf       ?PbConstVal@@YAPAEPAVTYPE_DATA@@PAVVAR_DEFN@@@Z 100269cf f tdata2.obj
 0001:00025a22       ?SetHchunkConstVal@@YAXPAVVAR_DEFN@@I@Z 10026a22 f tdata2.obj
 0001:00025a38       ?ValidateMemid@@YAJJ@Z     10026a38 f tdata2.obj
 0001:00025a77       ?HvdefnOfHlnam@TYPE_DATA@@QAEII@Z 10026a77 f tdata2.obj
 0001:00025aa2       ?HfdefnFirstOfHlnam@TYPE_DATA@@QAEIIPAW4tagINVOKEKIND@@@Z 10026aa2 f tdata2.obj
 0001:00025abe       ?HfdefnNextOfHlnam@TYPE_DATA@@QAEIIIPAW4tagINVOKEKIND@@@Z 10026abe f tdata2.obj
 0001:00025afb       ?HfdefnFirstAvailMeth@TYPE_DATA@@QAEIXZ 10026afb f tdata2.obj
 0001:00025b00       ?GetFuncDescOfHfdefn@TYPE_DATA@@QAEJIPAPAUtagFUNCDESC@@@Z 10026b00 f tdata2.obj
 0001:00025db5       ?GetFuncDesc@TYPE_DATA@@QAEJIPAPAUtagFUNCDESC@@@Z 10026db5 f tdata2.obj
 0001:00025e07       ?AddFuncDesc@TYPE_DATA@@QAEJIPAUtagFUNCDESC@@PAI@Z 10026e07 f tdata2.obj
 0001:00026287       ?GetVarDescOfHvdefn@TYPE_DATA@@QAEJIPAPAUtagVARDESC@@@Z 10027287 f tdata2.obj
 0001:0002666c       ?GetVarDesc@TYPE_DATA@@QAEJIPAPAUtagVARDESC@@@Z 1002766c f tdata2.obj
 0001:000266da       ?AllocTypeDescOfTypeDefn@TYPE_DATA@@QAEJIHPAUtagTYPEDESC@@@Z 100276da f tdata2.obj
 0001:00026929       ?AllocConstValOfVariant@TYPE_DATA@@AAEJPAUtagVARIANT@@I@Z 10027929 f tdata2.obj
 0001:00026b2c       ?SetTypeDefnAlias@TYPE_DATA@@QAEJPAUtagTYPEDESC@@@Z 10027b2c f tdata2.obj
 0001:00026b62       ?AddImplType@TYPE_DATA@@QAEJIK@Z 10027b62 f tdata2.obj
 0001:00026c85       ?HmvdefnOfIndex@TYPE_DATA@@AAEII@Z 10027c85 f tdata2.obj
 0001:00026c9e       ?SetImplTypeFlags@TYPE_DATA@@QAEJIH@Z 10027c9e f tdata2.obj
 0001:00026ccf       ?GetImplTypeFlags@TYPE_DATA@@QAEJIPAH@Z 10027ccf f tdata2.obj
 0001:00026d1e       ?GetRefTypeOfImplType@TYPE_DATA@@QAEJIPAK@Z 10027d1e f tdata2.obj
 0001:00026d82       ?AllocTypeDefnOfTypeDesc@TYPE_DATA@@QAEJPAUtagTYPEDESC@@IPAGHPAH@Z 10027d82 f tdata2.obj
 0001:0002725e       ?AddVarDesc@TYPE_DATA@@QAEJIPAUtagVARDESC@@PAI@Z 1002825e f tdata2.obj
 0001:0002749a       ?SetVarName@TYPE_DATA@@QAEJIPAD@Z 1002849a f tdata2.obj
 0001:0002752f       ?SetFuncAndParamNames@TYPE_DATA@@QAEJIPAPAGI@Z 1002852f f tdata2.obj
 0001:00027570       ?SetFuncAndParamNamesOfHfdefn@TYPE_DATA@@QAEJIPAPAGI@Z 10028570 f tdata2.obj
 0001:00027701       ?GetNames@TYPE_DATA@@QAEJJPAPAGIPAI@Z 10028701 f tdata2.obj
 0001:000278ca       ?GetFuncDefnForDoc@TYPE_DATA@@QAEII@Z 100288ca f tdata2.obj
 0001:000279a0       ?SetFuncDocString@TYPE_DATA@@QAEJIPAD@Z 100289a0 f tdata2.obj
 0001:000279fa       ?SetVarDocString@TYPE_DATA@@QAEJIPAD@Z 100289fa f tdata2.obj
 0001:00027a54       ?SetFuncHelpContext@TYPE_DATA@@QAEJIK@Z 10028a54 f tdata2.obj
 0001:00027aaf       ?SetVarHelpContext@TYPE_DATA@@QAEJIK@Z 10028aaf f tdata2.obj
 0001:00027b06       ?GetDocumentation@TYPE_DATA@@QAEJJPAPAG0PAK@Z 10028b06 f tdata2.obj
 0001:00027bd7       ?UHelpContextOfEncoding@TYPE_DATA@@QAEKG@Z 10028bd7 f tdata2.obj
 0001:00027c13       ?GetEncodedHelpContext@TYPE_DATA@@QAEJKPAG@Z 10028c13 f tdata2.obj
 0001:00027c99       ?HchunkOfString@TYPE_DATA@@AAEJPADPAI@Z 10028c99 f tdata2.obj
 0001:00027cd8       ?StringOfHchunk@TYPE_DATA@@QAEJIPAPAD@Z 10028cd8 f tdata2.obj
 0001:00027d29       ?GetDynTypeBindOfHvdefn@TYPE_DATA@@QAEJIPAPAVDYN_TYPEBIND@@PAI@Z 10028d29 f tdata2.obj
 0001:00027dad       ?GetTypeInfoOfHvdefn@TYPE_DATA@@QAEJIPAPAUITypeInfo@@PAI@Z 10028dad f tdata2.obj
 0001:00027e7f       ?EquivTypeDefnsIgnoreByRef@@YAJPAVTYPE_DATA@@HG0HGGPAHH@Z 10028e7f f tdata2.obj
 0001:00027fc1       ?EquivTypeDefns@@YAJPAVTYPE_DATA@@HG0HGGPAH@Z 10028fc1 f tdata2.obj
 0001:00027fe7       ?SetDllEntryDefn@TYPE_DATA@@QAEJII@Z 10028fe7 f tdata2.obj
 0001:00028016       ?HfdefnOfIndex@TYPE_DATA@@QAEJIPAI@Z 10029016 f tdata2.obj
 0001:0002804f       ?UpdateDocStrings@TYPE_DATA@@QAEJXZ 1002904f f tdata2.obj
 0001:000281b1       ?HtdefnAlias@TYPE_DATA@@QBEIXZ 100291b1 f tdata2.obj
 0001:000281b6       ?SetIsSimpleTypeAlias@TYPE_DATA@@QAEXH@Z 100291b6 f tdata2.obj
 0001:000281cf       ?IsSimpleTypeAlias@TYPE_DATA@@QBEHXZ 100291cf f tdata2.obj
 0001:000281d9       ?VerifyTwoProperties@@YAJPAVDYN_TYPEROOT@@PAVTYPE_DATA@@IW4PROPKIND@@I2@Z 100291d9 f dtmbrs.obj
 0001:00028541       ?VerifyProperties@@YAJPAVDYN_TYPEROOT@@PAUPROPERTY_NODE@@@Z 10029541 f dtmbrs.obj
 0001:000287d0       ??1DYN_TYPEMEMBERS@@IAE@XZ 100297d0 f dtmbrs.obj
 0001:000287eb       ?AddRef@DYN_TYPEMEMBERS@@UAEXXZ 100297eb f dtmbrs.obj
 0001:000287f6       ?Release@DYN_TYPEMEMBERS@@UAEXXZ 100297f6 f dtmbrs.obj
 0001:00028801       ?AddInternalRef@DYN_TYPEMEMBERS@@QAEXXZ 10029801 f dtmbrs.obj
 0001:00028818       ?RelInternalRef@DYN_TYPEMEMBERS@@QAEXXZ 10029818 f dtmbrs.obj
 0001:00028826       ??0DYN_TYPEMEMBERS@@QAE@XZ 10029826 f dtmbrs.obj
 0001:000288b3       ?Init@DYN_TYPEMEMBERS@@QAEJPAVSHEAP_MGR@@PAVDYN_TYPEROOT@@@Z 100298b3 f dtmbrs.obj
 0001:00028931       ?GetDefnTypeBind@DYN_TYPEMEMBERS@@QAEJPAPAVDEFN_TYPEBIND@@@Z 10029931 f dtmbrs.obj
 0001:00028948       ?MakeLaidOut@DYN_TYPEMEMBERS@@UAEJXZ 10029948 f dtmbrs.obj
 0001:000289a8       ?GetTypeKind@DYN_TYPEMEMBERS@@UAE?AW4tagTYPEKIND@@XZ 100299a8 f dtmbrs.obj
 0001:000289b8       ?IsLaidOut@DYN_TYPEMEMBERS@@UAEHXZ 100299b8 f dtmbrs.obj
 0001:000289c5       ?AllocHmembers@DYN_TYPEMEMBERS@@IAEJXZ 100299c5 f dtmbrs.obj
 0001:00028c87       ?LayoutBases@DYN_TYPEMEMBERS@@IAEJW4tagTYPEKIND@@PAI1@Z 10029c87 f dtmbrs.obj
 0001:00028d6e       ?GetSizeAlignmentOfHtdefnUdt@DYN_TYPEMEMBERS@@QAEJIPAI0@Z 10029d6e f dtmbrs.obj
 0001:00028e0e       ?GetSizeAlignmentOfArray@DYN_TYPEMEMBERS@@QAEJW4tagTYPEKIND@@IPAI1@Z 10029e0e f dtmbrs.obj
 0001:00028f78       ?GetSizeAlignmentOfHtdefn@DYN_TYPEMEMBERS@@QAEJW4tagTYPEKIND@@HIPAI1@Z 10029f78 f dtmbrs.obj
 0001:000290be       ?GetSizeAlignmentOfHtdefnNonUdt@DYN_TYPEMEMBERS@@QAEJW4tagTYPEKIND@@HIPAI1@Z 1002a0be f dtmbrs.obj
 0001:00029169       ?LayoutVarOfHvdefn@DYN_TYPEMEMBERS@@QAEJW4tagTYPEKIND@@IPAGPAIHIH@Z 1002a169 f dtmbrs.obj
 0001:0002926b       ?LayoutDataMembers@DYN_TYPEMEMBERS@@IAEJW4tagTYPEKIND@@PAI1I@Z 1002a26b f dtmbrs.obj
 0001:000292c7       ?LayoutMembers@DYN_TYPEMEMBERS@@IAEJXZ 1002a2c7 f dtmbrs.obj
 0001:000293f9       ?GenerateOverrides@DYN_TYPEMEMBERS@@IAEJXZ 1002a3f9 f dtmbrs.obj
 0001:00029441       ?Layout@DYN_TYPEMEMBERS@@IAEJXZ 1002a441 f dtmbrs.obj
 0001:00029514       ?Read@DYN_TYPEMEMBERS@@QAEJPAVSTREAM@@@Z 1002a514 f dtmbrs.obj
 0001:0002954f       ?Write@DYN_TYPEMEMBERS@@QAEJPAVSTREAM@@@Z 1002a54f f dtmbrs.obj
 0001:0002958b       ?BuildBindNameTable@DYN_TYPEMEMBERS@@QAEJXZ 1002a58b f dtmbrs.obj
 0001:000295e1       ?UpdateBinderOptimization@DYN_TYPEMEMBERS@@IAEJIIH@Z 1002a5e1 f dtmbrs.obj
 0001:00029709       ?UpdateNameCacheOfHdefnList@DYN_TYPEMEMBERS@@IAEJIW4INFOKIND@@I@Z 1002a709 f dtmbrs.obj
 0001:0002978d       ?UpdateNameCacheOfBaseClass@DYN_TYPEMEMBERS@@IAEJPAUITypeInfo@@I@Z 1002a78d f dtmbrs.obj
 0001:00029a1f       ?BuildNameCache@DYN_TYPEMEMBERS@@QAEJI@Z 1002aa1f f dtmbrs.obj
 0001:00029c37       ?GetSize@DYN_TYPEMEMBERS@@UAEIXZ 1002ac37 f dtmbrs.obj
 0001:00029c45       ?AdjustForAlignment@DYN_TYPEMEMBERS@@KAIIIH@Z 1002ac45 f dtmbrs.obj
 0001:00029c70       ?AlignMember@DYN_TYPEMEMBERS@@KAIPAGIIH@Z 1002ac70 f dtmbrs.obj
 0001:00029cd9       ?AlignmentTdesckind@DYN_TYPEMEMBERS@@QAEGW4TYPEDESCKIND@@@Z 1002acd9 f dtmbrs.obj
 0001:00029d27       ??1PROPERTY_NODE@@QAE@XZ   1002ad27 f dtmbrs.obj
 0001:00029d41       ??0ENTRYMGR@@QAE@XZ        1002ad41 f entrymgr.obj
 0001:00029d50       ??1ENTRYMGR@@QAE@XZ        1002ad50 f entrymgr.obj
 0001:00029d66       ?Init@ENTRYMGR@@QAEJPAVSHEAP_MGR@@PAVDYN_TYPEROOT@@@Z 1002ad66 f entrymgr.obj
 0001:00029d98       ?DllEntryNameOfHchunk@ENTRYMGR@@QAEJIPADI@Z 1002ad98 f entrymgr.obj
 0001:00029de3       ?Decompile@ENTRYMGR@@QAEXW4COMPSTATE@@@Z 1002ade3 f entrymgr.obj
 0001:00029de6       ?AllocDllentrydefn@ENTRYMGR@@AAEJPAIIH@Z 1002ade6 f entrymgr.obj
 0001:00029e39       ?ReleaseDllentrydefn@ENTRYMGR@@QAEXI@Z 1002ae39 f entrymgr.obj
 0001:00029e97       ?Read@ENTRYMGR@@QAEJPAVSTREAM@@@Z 1002ae97 f entrymgr.obj
 0001:00029f03       ?Write@ENTRYMGR@@QAEJPAVSTREAM@@@Z 1002af03 f entrymgr.obj
 0001:00029f44       ?ReleaseLibrary@@YAXPAUHINSTANCE__@@@Z 1002af44 f entrymgr.obj
 0001:00029f56       ?ReleaseDllEntries@@YAXPAX@Z 1002af56 f entrymgr.obj
 0001:00029f8e       ?GetAddressOfDllentry@ENTRYMGR@@QAEJIPAPAX@Z 1002af8e f entrymgr.obj
 0001:0002a147       ?Init@DYN_TYPEBIND@@QAEJPAVBLK_MGR@@PAVDYN_TYPEROOT@@@Z 1002b147 f dtbind.obj
 0001:0002a162       ??0DYN_TYPEBIND@@QAE@XZ    1002b162 f dtbind.obj
 0001:0002a1be       ??1DYN_TYPEBIND@@UAE@XZ    1002b1be f dtbind.obj
 0001:0002a1d7       ?QueryProtocol@DYN_TYPEBIND@@UAEPAXPAG@Z 1002b1d7 f dtbind.obj
 0001:0002a207       ?AddRef@DYN_TYPEBIND@@UAEXXZ 1002b207 f dtbind.obj
 0001:0002a213       ?AddInternalRef@DYN_TYPEBIND@@QAEXXZ 1002b213 f dtbind.obj
 0001:0002a21f       ?RelInternalRef@DYN_TYPEBIND@@QAEXXZ 1002b21f f dtbind.obj
 0001:0002a22b       ?Release@DYN_TYPEBIND@@UAEXXZ 1002b22b f dtbind.obj
 0001:0002a233       ?Pdtmbrs@DYN_TYPEBIND@@QBEPAVDYN_TYPEMEMBERS@@XZ 1002b233 f dtbind.obj
 0001:0002a23c       ?GetTypeInfo@DYN_TYPEBIND@@UAEJPAPAVTYPEINFO@@@Z 1002b23c f dtbind.obj
 0001:0002a253       ?BuildBindNameTable@DYN_TYPEBIND@@QAEJXZ 1002b253 f dtbind.obj
 0001:0002a260       ?BindBase@DYN_TYPEBIND@@IAEJHIIKIW4ACCESS@@PAVEXBIND@@PAVOGTOLE@@@Z 1002b260 f dtbind.obj
 0001:0002a324       ?BindIdDefn@DYN_TYPEBIND@@QAEJHKIW4ACCESS@@PAVEXBIND@@@Z 1002b324 f dtbind.obj
 0001:0002a4e4       ?BindDefnCur@DYN_TYPEBIND@@QAEJHKIW4ACCESS@@PAVEXBIND@@@Z 1002b4e4 f dtbind.obj
 0001:0002a74a       ?HvdefnPredeclared@DYN_TYPEBIND@@QAEIXZ 1002b74a f dtbind.obj
 0001:0002a757       ?Ptdata@DYN_TYPEBIND@@QAEPAVTYPE_DATA@@XZ 1002b757 f dtbind.obj
 0001:0002a760       ?BindDefnStr@DYN_TYPEBIND@@UAEJPADIW4ACCESS@@PAVEXBIND@@@Z 1002b760 f dtbind.obj
 0001:0002a7c5       ?BindTypeDefnStr@DYN_TYPEBIND@@UAEJPADIW4ACCESS@@PAVEXBIND@@@Z 1002b7c5 f dtbind.obj
 0001:0002a829       ?GetTypeKind@DYN_TYPEBIND@@UAE?AW4tagTYPEKIND@@XZ 1002b829 f dtbind.obj
 0001:0002a836       ?GetCbSize@DYN_TYPEBIND@@UAEGXZ 1002b836 f dtbind.obj
 0001:0002a83b       ?GetAlignment@DYN_TYPEBIND@@UAEGXZ 1002b83b f dtbind.obj
 0001:0002a840       ?Read@DYN_TYPEBIND@@QAEJPAVSTREAM@@@Z 1002b840 f dtbind.obj
 0001:0002a901       ?Write@DYN_TYPEBIND@@QAEJPAVSTREAM@@@Z 1002b901 f dtbind.obj
 0001:0002a989       ?BindDefnProjLevelStr@DYN_TYPEBIND@@UAEJPADIW4ACCESS@@1PAVEXBIND@@@Z 1002b989 f dtbind.obj
 0001:0002a98e       ?BindTypeDefnProjLevelStr@DYN_TYPEBIND@@UAEJPADIW4ACCESS@@1PAVEXBIND@@@Z 1002b98e f dtbind.obj
 0001:0002a993       ??_EDYN_TYPEBIND@@UAEPAXI@Z 1002b993 f dtbind.obj
 0001:0002a993       ??_GDYN_TYPEBIND@@UAEPAXI@Z 1002b993 f dtbind.obj
 0001:0002a9b1       ?GetCbSizeVft@DYN_TYPEBIND@@UAEGXZ 1002b9b1 f dtbind.obj
 0001:0002a9b6       ?GetOPvft@DYN_TYPEBIND@@UAEJXZ 1002b9b6 f dtbind.obj
 0001:0002a9ba       ?QueryProtocol@DEFN_TYPEBIND@@UAEPAXPAG@Z 1002b9ba f dfntbind.obj
 0001:0002a9f8       ?GetOPvft@DEFN_TYPEBIND@@UAEJXZ 1002b9f8 f dfntbind.obj
 0001:0002a9fe       ?GetCbSizeVft@DEFN_TYPEBIND@@UAEGXZ 1002b9fe f dfntbind.obj
 0001:0002aa02       ?BindType@DEFN_TYPEBIND@@UAEJKPADI@Z 1002ba02 f dfntbind.obj
 0001:0002aa07       ??0DYN_BINDNAME_TABLE@@QAE@XZ 1002ba07 f dbindtbl.obj
 0001:0002aa26       ??1DYN_BINDNAME_TABLE@@UAE@XZ 1002ba26 f dbindtbl.obj
 0001:0002aa2d       ?Init@DYN_BINDNAME_TABLE@@QAEJPAVBLK_MGR@@PAVDYN_TYPEROOT@@@Z 1002ba2d f dbindtbl.obj
 0001:0002aa61       ?GetBucketOfHlnam@DYN_BINDNAME_TABLE@@IBEII@Z 1002ba61 f dbindtbl.obj
 0001:0002aa87       ?BuildTable@DYN_BINDNAME_TABLE@@QAEJXZ 1002ba87 f dbindtbl.obj
 0001:0002aaeb       ?ReleaseTable@DYN_BINDNAME_TABLE@@QAEXXZ 1002baeb f dbindtbl.obj
 0001:0002ab10       ?AddHdefn@DYN_BINDNAME_TABLE@@QAEXI@Z 1002bb10 f dbindtbl.obj
 0001:0002ab54       ?Read@DYN_BINDNAME_TABLE@@QAEJPAVSTREAM@@@Z 1002bb54 f dbindtbl.obj
 0001:0002ab94       ?Write@DYN_BINDNAME_TABLE@@QAEJPAVSTREAM@@@Z 1002bb94 f dbindtbl.obj
 0001:0002abbd       ?FindIndexOfHlnam@DYN_BINDNAME_TABLE@@IBEIII@Z 1002bbbd f dbindtbl.obj
 0001:0002ac0a       ?TraverseDefnList@DYN_BINDNAME_TABLE@@IAEJI@Z 1002bc0a f dbindtbl.obj
 0001:0002ad82       ?SetTableSize@DYN_BINDNAME_TABLE@@IAEJI@Z 1002bd82 f dbindtbl.obj
 0001:0002adfc       ??_EDYN_BINDNAME_TABLE@@UAEPAXI@Z 1002bdfc f dbindtbl.obj
 0001:0002adfc       ??_GDYN_BINDNAME_TABLE@@UAEPAXI@Z 1002bdfc f dbindtbl.obj
 0001:0002ae1a       ??0GENPROJ_BINDNAME_TABLE@@QAE@XZ 1002be1a f gbindtbl.obj
 0001:0002ae48       ??1GENPROJ_BINDNAME_TABLE@@QAE@XZ 1002be48 f gbindtbl.obj
 0001:0002ae62       ?Init@GENPROJ_BINDNAME_TABLE@@QAEJPAVSHEAP_MGR@@PAVNAMMGR@@@Z 1002be62 f gbindtbl.obj
 0001:0002aeaf       ?IndexOfHlnam@GENPROJ_BINDNAME_TABLE@@QBEII@Z 1002beaf f gbindtbl.obj
 0001:0002af3c       ?Read@GENPROJ_BINDNAME_TABLE@@QAEJPAVSTREAM@@@Z 1002bf3c f gbindtbl.obj
 0001:0002afc2       ?Write@GENPROJ_BINDNAME_TABLE@@QAEJPAVSTREAM@@@Z 1002bfc2 f gbindtbl.obj
 0001:0002b02a       ?AddNameToTable@GENPROJ_BINDNAME_TABLE@@QAEJIIHH@Z 1002c02a f gbindtbl.obj
 0001:0002b0f1       ?AddQgpbinddesc@GENPROJ_BINDNAME_TABLE@@IAEXPAUGENPROJ_BIND_DESC@@@Z 1002c0f1 f gbindtbl.obj
 0001:0002b1a8       ?RemoveNameFromTableOfIbucket@GENPROJ_BINDNAME_TABLE@@IAEJI@Z 1002c1a8 f gbindtbl.obj
 0001:0002b265       ?RemoveNameFromTableOfHlnam@GENPROJ_BINDNAME_TABLE@@QAEJI@Z 1002c265 f gbindtbl.obj
 0001:0002b293       ?VerifyNameOfOrdinal@GENPROJ_BINDNAME_TABLE@@QAEJIIH@Z 1002c293 f gbindtbl.obj
 0001:0002b38f       ?FreeCaches@GENPROJ_BINDNAME_TABLE@@IAEXXZ 1002c38f f gbindtbl.obj
 0001:0002b3c0       ?AllocCaches@GENPROJ_BINDNAME_TABLE@@IAEJII@Z 1002c3c0 f gbindtbl.obj
 0001:0002b42f       ?ReleaseTable@GENPROJ_BINDNAME_TABLE@@QAEXXZ 1002c42f f gbindtbl.obj
 0001:0002b461       ?ReleaseResources@GENPROJ_BINDNAME_TABLE@@QAEXXZ 1002c461 f gbindtbl.obj
 0001:0002b4af       ?SetTableSize@GENPROJ_BINDNAME_TABLE@@IAEJI@Z 1002c4af f gbindtbl.obj
 0001:0002b63e       ??0DOCSTR_MGR@@QAE@XZ      1002c63e f dstrmgr.obj
 0001:0002b661       ??1DOCSTR_MGR@@QAE@XZ      1002c661 f dstrmgr.obj
 0001:0002b6fa       ?Init@DOCSTR_MGR@@QAEJXZ   1002c6fa f dstrmgr.obj
 0001:0002b77c       ?Read@DOCSTR_MGR@@QAEJPAVSTREAM@@@Z 1002c77c f dstrmgr.obj
 0001:0002b85e       ?Write@DOCSTR_MGR@@QAEJPAVSTREAM@@@Z 1002c85e f dstrmgr.obj
 0001:0002b8c0       ?ParseString@DOCSTR_MGR@@AAEJPBDPAPAPADPAI@Z 1002c8c0 f dstrmgr.obj
 0001:0002b9f6       ?AddWord@DOCSTR_MGR@@AAEJPADPAPAUWORD_ENTRY@@@Z 1002c9f6 f dstrmgr.obj
 0001:0002ba76       ?AddNewWord@DOCSTR_MGR@@AAEJPADPAPAUWORD_ENTRY@@@Z 1002ca76 f dstrmgr.obj
 0001:0002baef       ?GetHstOfHelpString@DOCSTR_MGR@@QAEJPBDPAI@Z 1002caef f dstrmgr.obj
 0001:0002bc84       ?CreateSubTree@DOCSTR_MGR@@AAEJPAUHUFFMAN_TREE_MEM@@0PAPAU2@@Z 1002cc84 f dstrmgr.obj
 0001:0002bce4       ?BuildHuffmanTree@DOCSTR_MGR@@AAEJPAPAUWORD_ENTRY@@PAJPAI@Z 1002cce4 f dstrmgr.obj
 0001:0002be92       ?BuildCmptHuffmanTree@DOCSTR_MGR@@AAEJPAUHUFFMAN_TREE_MEM@@@Z 1002ce92 f dstrmgr.obj
 0001:0002bf58       ?ProcessDocStrings@DOCSTR_MGR@@QAEJXZ 1002cf58 f dstrmgr.obj
 0001:0002c109       ?EncodeWords@DOCSTR_MGR@@AAEJXZ 1002d109 f dstrmgr.obj
 0001:0002c135       ?TraverseHuffmanTree@DOCSTR_MGR@@AAEJPAUHUFFMAN_TREE_MEM@@PAEI@Z 1002d135 f dstrmgr.obj
 0001:0002c1be       ?GetNthBit@DOCSTR_MGR@@AAE?AW4HCODE@@IPAE@Z 1002d1be f dstrmgr.obj
 0001:0002c23f       ?SetNthBit@DOCSTR_MGR@@AAEXIPAEW4HCODE@@@Z 1002d23f f dstrmgr.obj
 0001:0002c306       ?GetEncodedDocStrOfHst@DOCSTR_MGR@@QAEJIPAPADPAI@Z 1002d306 f dstrmgr.obj
 0001:0002c3cf       ?GetWord@DOCSTR_MGR@@AAEJPAXPAEPAIPAD@Z 1002d3cf f dstrmgr.obj
 0001:0002c445       ?GetDecodedDocStrOfHst@DOCSTR_MGR@@QAEJPAEPAPAG@Z 1002d445 f dstrmgr.obj
 0001:0002c5c6       ?ReleaseHuffmanTree@DOCSTR_MGR@@AAEXPAUHUFFMAN_TREE_MEM@@@Z 1002d5c6 f dstrmgr.obj
 0001:0002c635       ?ZeroFill@@YAXPAXK@Z       1002d635 f dstrmgr.obj
 0001:0002c654       ??1GENPROJ_TYPEBIND@@UAE@XZ 1002d654 f gptbind.obj
 0001:0002c66d       ?QueryProtocol@GENPROJ_TYPEBIND@@UAEPAXPAG@Z 1002d66d f gptbind.obj
 0001:0002c69d       ?Pgtlibole@GENPROJ_TYPEBIND@@QBEPAVOGTOLE@@XZ 1002d69d f gptbind.obj
 0001:0002c6a6       ?Init@GENPROJ_TYPEBIND@@QAEJPAVSHEAP_MGR@@@Z 1002d6a6 f gptbind.obj
 0001:0002c6e3       ??0GENPROJ_TYPEBIND@@QAE@XZ 1002d6e3 f gptbind.obj
 0001:0002c70f       ?AddNameToTable@GENPROJ_TYPEBIND@@QAEJPADIH@Z 1002d70f f gptbind.obj
 0001:0002c7ae       ?RemoveNameFromTable@GENPROJ_TYPEBIND@@QAEJPAG@Z 1002d7ae f gptbind.obj
 0001:0002c80a       ?tcomp@@YAJPAUITypeLib@@PAPAUITypeComp@@@Z 1002d80a f gptbind.obj
 0001:0002c819       ?BindAll@GENPROJ_TYPEBIND@@QAEJHKIW4ACCESS@@W4COMPSTATE@@PAVEXBIND@@@Z 1002d819 f gptbind.obj
 0001:0002c840       ?BindDefnStr@GENPROJ_TYPEBIND@@UAEJPADIW4ACCESS@@PAVEXBIND@@@Z 1002d840 f gptbind.obj
 0001:0002c8a0       ?Release@GENPROJ_TYPEBIND@@UAEXXZ 1002d8a0 f gptbind.obj
 0001:0002c8ac       ?AddRef@GENPROJ_TYPEBIND@@UAEXXZ 1002d8ac f gptbind.obj
 0001:0002c8b8       ?GetTypeKind@GENPROJ_TYPEBIND@@UAE?AW4tagTYPEKIND@@XZ 1002d8b8 f gptbind.obj
 0001:0002c8bb       ?IsProtocol@GENPROJ_TYPEBIND@@UAEHXZ 1002d8bb f gptbind.obj
 0001:0002c8be       ?GetCbSize@GENPROJ_TYPEBIND@@UAEGXZ 1002d8be f gptbind.obj
 0001:0002c8c3       ?GetAlignment@GENPROJ_TYPEBIND@@UAEGXZ 1002d8c3 f gptbind.obj
 0001:0002c8c8       ?Read@GENPROJ_TYPEBIND@@QAEJPAVSTREAM@@@Z 1002d8c8 f gptbind.obj
 0001:0002c903       ?Write@GENPROJ_TYPEBIND@@QAEJPAVSTREAM@@@Z 1002d903 f gptbind.obj
 0001:0002c93e       ?BindTypeDefnStr@GENPROJ_TYPEBIND@@UAEJPADIW4ACCESS@@PAVEXBIND@@@Z 1002d93e f gptbind.obj
 0001:0002c98c       ?BindProjLevel@GENPROJ_TYPEBIND@@QAEJHKIW4ACCESS@@0W4COMPSTATE@@PAVEXBIND@@@Z 1002d98c f gptbind.obj
 0001:0002cc68       ?BindModulesWithCaches@GENPROJ_TYPEBIND@@IAEJHKIW4ACCESS@@0W4COMPSTATE@@PAVEXBIND@@@Z 1002dc68 f gptbind.obj
 0001:0002ce11       ?BindModulesWithNammgr@GENPROJ_TYPEBIND@@IAEJHKIW4ACCESS@@0W4COMPSTATE@@PAVEXBIND@@@Z 1002de11 f gptbind.obj
 0001:0002ced6       ?BindItyp@GENPROJ_TYPEBIND@@IAEJIHKIW4ACCESS@@0W4COMPSTATE@@PAVEXBIND@@@Z 1002ded6 f gptbind.obj
 0001:0002d028       ?BindTypeDefnProjLevelStr@GENPROJ_TYPEBIND@@UAEJPADIW4ACCESS@@1PAVEXBIND@@@Z 1002e028 f gptbind.obj
 0001:0002d096       ?BindDefnProjLevelStr@GENPROJ_TYPEBIND@@UAEJPADIW4ACCESS@@1PAVEXBIND@@@Z 1002e096 f gptbind.obj
 0001:0002d105       ?ReleaseResources@GENPROJ_TYPEBIND@@QAEXXZ 1002e105 f gptbind.obj
 0001:0002d10d       ??_EGENPROJ_TYPEBIND@@UAEPAXI@Z 1002e10d f gptbind.obj
 0001:0002d10d       ??_GGENPROJ_TYPEBIND@@UAEPAXI@Z 1002e10d f gptbind.obj
 0001:0002d12b       ?GetTypeInfo@GENPROJ_TYPEBIND@@UAEJPAPAVTYPEINFO@@@Z 1002e12b f gptbind.obj
 0001:0002d13a       ??0ODfnTCmp@@QAE@XZ        1002e13a f dfntcomp.obj
 0001:0002d14c       ??1ODfnTCmp@@UAE@XZ        1002e14c f dfntcomp.obj
 0001:0002d15a       ?Create@ODfnTCmp@@SAJPAPAV1@PAVDEFN_TYPEBIND@@@Z 1002e15a f dfntcomp.obj
 0001:0002d1ab       ?Init@ODfnTCmp@@IAEJPAVDEFN_TYPEBIND@@@Z 1002e1ab f dfntcomp.obj
 0001:0002d1c6       ?QueryInterface@ODfnTCmp@@UAGJABU_GUID@@PAPAX@Z 1002e1c6 f dfntcomp.obj
 0001:0002d248       ?AddRef@ODfnTCmp@@UAGKXZ   1002e248 f dfntcomp.obj
 0001:0002d25c       ?Release@ODfnTCmp@@UAGKXZ  1002e25c f dfntcomp.obj
 0001:0002d288       ?Bind@ODfnTCmp@@UAGJPAGKGPAPAUITypeInfo@@PAW4tagDESCKIND@@PATtagBINDPTR@@@Z 1002e288 f dfntcomp.obj
 0001:0002d525       ?BindType@ODfnTCmp@@UAGJPAGKPAPAUITypeInfo@@PAPAUITypeComp@@@Z 1002e525 f dfntcomp.obj
 0001:0002d682       ??_EODfnTCmp@@UAEPAXI@Z    1002e682 f dfntcomp.obj
 0001:0002d682       ??_GODfnTCmp@@UAEPAXI@Z    1002e682 f dfntcomp.obj
 0001:0002d6a0       _SysAllocStringA@4         1002e6a0 f convert.obj
 0001:0002d6c7       _SysAllocStringLenA@8      1002e6c7 f convert.obj
 0001:0002d6d7       _SysFreeStringA@4          1002e6d7 f convert.obj
 0001:0002d6e3       _StringFromGUID2A@12       1002e6e3 f convert.obj
 0001:0002d71c       ?ConvertStringToW@@YIJPBDPAPAG@Z 1002e71c f convert.obj
 0001:0002d763       ?ConvertStringToA@@YIJPBGPAPAD@Z 1002e763 f convert.obj
 0001:0002d7bc       ?ConvertStringAlloc@@YIJKPAPAX@Z 1002e7bc f convert.obj
 0001:0002d806       ?ConvertStringFree@@YIXPAD@Z 1002e806 f convert.obj
 0001:0002d83f       ?ConvertBstrToWInPlace@@YIJPAPAG@Z 1002e83f f convert.obj
 0001:0002d897       ?ConvertBstrToW@@YIJPBDPAPAG@Z 1002e897 f convert.obj
 0001:0002d8ef       ?ConvertBstrToAInPlace@@YIJPAPAD@Z 1002e8ef f convert.obj
 0001:0002d90d       ?ConvertBstrToA@@YIJPAGPAPAD@Z 1002e90d f convert.obj
 0001:0002d964       ?ConvertBstrAlloc@@YIJKPAPAG@Z 1002e964 f convert.obj
 0001:0002d97d       ?OpenForReadOnly@GTLibStorage@@SAJPAUILockBytes@@PAPAUIStorage@@@Z 1002e97d f gtlibstg.obj
 0001:0002db73       ??0GTLibStorage@@IAE@XZ    1002eb73 f gtlibstg.obj
 0001:0002dbb1       ??1GTLibStorage@@IAE@XZ    1002ebb1 f gtlibstg.obj
 0001:0002dbd4       ?QueryInterface@GTLibStorage@@UAGJABU_GUID@@PAPAX@Z 1002ebd4 f gtlibstg.obj
 0001:0002dc10       ?AddRef@GTLibStorage@@UAGKXZ 1002ec10 f gtlibstg.obj
 0001:0002dc1e       ?Release@GTLibStorage@@UAGKXZ 1002ec1e f gtlibstg.obj
 0001:0002dc44       ?LookupStream@GTLibStorage@@IAEPAUStreamInfo@@PBD@Z 1002ec44 f gtlibstg.obj
 0001:0002dc97       ?OpenStream@GTLibStorage@@UAGJPBGPAXKKPAPAUIStream@@@Z 1002ec97 f gtlibstg.obj
 0001:0002dd3c       ?Stat@GTLibStorage@@UAGJPAUtagSTATSTG@@K@Z 1002ed3c f gtlibstg.obj
 0001:0002dd8a       ?Create@GTLibStorage@@SAJPAUILockBytes@@IPAPAUIStorage@@@Z 1002ed8a f gtlibstg.obj
 0001:0002de2c       ?CreateStream@GTLibStorage@@UAGJPBGKKKPAPAUIStream@@@Z 1002ee2c f gtlibstg.obj
 0001:0002df0b       ?NotifyStreamClosed@GTLibStorage@@IAEXK@Z 1002ef0b f gtlibstg.obj
 0001:0002df2a       ?SwapStreamInfos@GTLibStorage@@IAEXPAUStreamInfo@@0@Z 1002ef2a f gtlibstg.obj
 0001:0002df8b       ?SortStreamInfo@GTLibStorage@@IAEXPAUStreamInfo@@I@Z 1002ef8b f gtlibstg.obj
 0001:0002e0fa       ?Commit@GTLibStorage@@UAGJK@Z 1002f0fa f gtlibstg.obj
 0001:0002e24d       ?CreateStorage@GTLibStorage@@UAGJPBGKKKPAPAUIStorage@@@Z 1002f24d f gtlibstg.obj
 0001:0002e255       ?OpenStorage@GTLibStorage@@UAGJPBGPAUIStorage@@KPAPAGKPAPAU2@@Z 1002f255 f gtlibstg.obj
 0001:0002e25d       ?CopyTo@GTLibStorage@@UAGJKPBU_GUID@@PAPAGPAUIStorage@@@Z 1002f25d f gtlibstg.obj
 0001:0002e265       ?MoveElementTo@GTLibStorage@@UAGJPBGPAUIStorage@@0K@Z 1002f265 f gtlibstg.obj
 0001:0002e26d       ?Revert@GTLibStorage@@UAGJXZ 1002f26d f gtlibstg.obj
 0001:0002e275       ?EnumElements@GTLibStorage@@UAGJKPAXKPAPAUIEnumSTATSTG@@@Z 1002f275 f gtlibstg.obj
 0001:0002e27d       ?DestroyElement@GTLibStorage@@UAGJPBG@Z 1002f27d f gtlibstg.obj
 0001:0002e285       ?RenameElement@GTLibStorage@@UAGJPBG0@Z 1002f285 f gtlibstg.obj
 0001:0002e28d       ?SetElementTimes@GTLibStorage@@UAGJPBGPBU_FILETIME@@11@Z 1002f28d f gtlibstg.obj
 0001:0002e295       ?SetStateBits@GTLibStorage@@UAGJKK@Z 1002f295 f gtlibstg.obj
 0001:0002e29d       ?SetClass@GTLibStorage@@UAGJABU_GUID@@@Z 1002f29d f gtlibstg.obj
 0001:0002e2b5       ??0GTLibStream@@IAE@XZ     1002f2b5 f gtlibstg.obj
 0001:0002e2be       ??1GTLibStream@@IAE@XZ     1002f2be f gtlibstg.obj
 0001:0002e306       ?Open@GTLibStream@@SAJPAUILockBytes@@KKPAPAUIStream@@@Z 1002f306 f gtlibstg.obj
 0001:0002e35b       ?QueryInterface@GTLibStream@@UAGJABU_GUID@@PAPAX@Z 1002f35b f gtlibstg.obj
 0001:0002e397       ?AddRef@GTLibStream@@UAGKXZ 1002f397 f gtlibstg.obj
 0001:0002e3a5       ?Release@GTLibStream@@UAGKXZ 1002f3a5 f gtlibstg.obj
 0001:0002e3cb       ?Read@GTLibStream@@UAGJPAXKPAK@Z 1002f3cb f gtlibstg.obj
 0001:0002e41c       ?Seek@GTLibStream@@UAGJT_LARGE_INTEGER@@KPAT_ULARGE_INTEGER@@@Z 1002f41c f gtlibstg.obj
 0001:0002e480       ?Create@GTLibStream@@SAJPAUILockBytes@@KPAVGTLibStorage@@PAPAUIStream@@@Z 1002f480 f gtlibstg.obj
 0001:0002e4e3       ?Write@GTLibStream@@UAGJPBXKPAK@Z 1002f4e3 f gtlibstg.obj
 0001:0002e52b       ?Commit@GTLibStream@@UAGJK@Z 1002f52b f gtlibstg.obj
 0001:0002e530       ?SetSize@GTLibStream@@UAGJT_ULARGE_INTEGER@@@Z 1002f530 f gtlibstg.obj
 0001:0002e538       ?CopyTo@GTLibStream@@UAGJPAUIStream@@T_ULARGE_INTEGER@@PAT3@2@Z 1002f538 f gtlibstg.obj
 0001:0002e540       ?Revert@GTLibStream@@UAGJXZ 1002f540 f gtlibstg.obj
 0001:0002e548       ?LockRegion@GTLibStream@@UAGJT_ULARGE_INTEGER@@0K@Z 1002f548 f gtlibstg.obj
 0001:0002e550       ?UnlockRegion@GTLibStream@@UAGJT_ULARGE_INTEGER@@0K@Z 1002f550 f gtlibstg.obj
 0001:0002e558       ?Stat@GTLibStream@@UAGJPAUtagSTATSTG@@K@Z 1002f558 f gtlibstg.obj
 0001:0002e560       ?Clone@GTLibStream@@UAGJPAPAUIStream@@@Z 1002f560 f gtlibstg.obj
 0001:0002e568       ?OpenFileLockBytes@@YAJHPAGPAPAUILockBytes@@@Z 1002f568 f gtlibstg.obj
 0001:0002e5db       ?CreateFileLockBytesOnHFILE@@YAJHHKKPAPAUILockBytes@@@Z 1002f5db f gtlibstg.obj
 0001:0002e6fe       ??0FileLockBytes@@IAE@XZ   1002f6fe f gtlibstg.obj
 0001:0002e70e       ??1FileLockBytes@@IAE@XZ   1002f70e f gtlibstg.obj
 0001:0002e724       ?AddRef@FileLockBytes@@UAGKXZ 1002f724 f gtlibstg.obj
 0001:0002e732       ?Release@FileLockBytes@@UAGKXZ 1002f732 f gtlibstg.obj
 0001:0002e758       ?ReadAt@FileLockBytes@@UAGJT_ULARGE_INTEGER@@PAXKPAK@Z 1002f758 f gtlibstg.obj
 0001:0002e7ba       ?QueryInterface@FileLockBytes@@UAGJABU_GUID@@PAPAX@Z 1002f7ba f gtlibstg.obj
 0001:0002e7f6       ?WriteAt@FileLockBytes@@UAGJT_ULARGE_INTEGER@@PBXKPAK@Z 1002f7f6 f gtlibstg.obj
 0001:0002e854       ?Flush@FileLockBytes@@UAGJXZ 1002f854 f gtlibstg.obj
 0001:0002e859       ?SetSize@FileLockBytes@@UAGJT_ULARGE_INTEGER@@@Z 1002f859 f gtlibstg.obj
 0001:0002e861       ?LockRegion@FileLockBytes@@UAGJT_ULARGE_INTEGER@@0K@Z 1002f861 f gtlibstg.obj
 0001:0002e869       ?UnlockRegion@FileLockBytes@@UAGJT_ULARGE_INTEGER@@0K@Z 1002f869 f gtlibstg.obj
 0001:0002e86e       ?Stat@FileLockBytes@@UAGJPAUtagSTATSTG@@K@Z 1002f86e f gtlibstg.obj
 0001:0002e876       ??0FileLockBytesMemory@@IAE@XZ 1002f876 f gtlibstg.obj
 0001:0002e886       ??1FileLockBytesMemory@@IAE@XZ 1002f886 f gtlibstg.obj
 0001:0002e8bc       ?AddRef@FileLockBytesMemory@@UAGKXZ 1002f8bc f gtlibstg.obj
 0001:0002e8ca       ?Release@FileLockBytesMemory@@UAGKXZ 1002f8ca f gtlibstg.obj
 0001:0002e8f0       ?ReadAt@FileLockBytesMemory@@UAGJT_ULARGE_INTEGER@@PAXKPAK@Z 1002f8f0 f gtlibstg.obj
 0001:0002e991       ?QueryInterface@FileLockBytesMemory@@UAGJABU_GUID@@PAPAX@Z 1002f991 f gtlibstg.obj
 0001:0002e9cd       ?WriteAt@FileLockBytesMemory@@UAGJT_ULARGE_INTEGER@@PBXKPAK@Z 1002f9cd f gtlibstg.obj
 0001:0002e9d5       ?Flush@FileLockBytesMemory@@UAGJXZ 1002f9d5 f gtlibstg.obj
 0001:0002e9da       ?SetSize@FileLockBytesMemory@@UAGJT_ULARGE_INTEGER@@@Z 1002f9da f gtlibstg.obj
 0001:0002e9e2       ?LockRegion@FileLockBytesMemory@@UAGJT_ULARGE_INTEGER@@0K@Z 1002f9e2 f gtlibstg.obj
 0001:0002e9ea       ?UnlockRegion@FileLockBytesMemory@@UAGJT_ULARGE_INTEGER@@0K@Z 1002f9ea f gtlibstg.obj
 0001:0002e9ef       ?Stat@FileLockBytesMemory@@UAGJPAUtagSTATSTG@@K@Z 1002f9ef f gtlibstg.obj
 0001:0002ea00       _CoSetState@4              1002fa00 f ole32:ole32.dll
 0001:0002ea10       __CRT_INIT@12              1002fa10 f crtdll:crtdll.obj
 0001:0002eb30       __DllMainCRTStartup@12     1002fb30 f crtdll:crtdll.obj
 0001:0002ec40       _wcslen                    1002fc40 f crtdll:msvcrt.dll
 0001:0002ec46       __purecall                 1002fc46 f crtdll:msvcrt.dll
 0001:0002ec50       __ftol                     1002fc50 f crtdll:msvcrt.dll
 0001:0002ec56       _wcschr                    1002fc56 f crtdll:msvcrt.dll
 0001:0002ec5c       _wcscpy                    1002fc5c f crtdll:msvcrt.dll
 0001:0002ec62       _wcscmp                    1002fc62 f crtdll:msvcrt.dll
 0001:0002ec68       _wcsncpy                   1002fc68 f crtdll:msvcrt.dll
 0001:0002ec6e       _wcsncmp                   1002fc6e f crtdll:msvcrt.dll
 0001:0002ec74       __stat                     1002fc74 f crtdll:msvcrt.dll
 0001:0002ec7a       _ultoa                     1002fc7a f crtdll:msvcrt.dll
 0001:0002ec7a       __ultoa                    1002fc7a f crtdll:msvcrt.dll
 0001:0002ec80       _atoi                      1002fc80 f crtdll:msvcrt.dll
 0001:0002ec86       _strchr                    1002fc86 f crtdll:msvcrt.dll
 0001:0002ec8c       _strrchr                   1002fc8c f crtdll:msvcrt.dll
 0001:0002ec92       _memmove                   1002fc92 f crtdll:msvcrt.dll
 0001:0002ec98       _wcscat                    1002fc98 f crtdll:msvcrt.dll
 0001:0002ec9e       _wcstoul                   1002fc9e f crtdll:msvcrt.dll
 0001:0002eca4       _remove                    1002fca4 f crtdll:msvcrt.dll
 0001:0002ecaa       _wcsrchr                   1002fcaa f crtdll:msvcrt.dll
 0001:0002ecb0       __chkstk                   1002fcb0   crtdll:chkstk.obj
 0001:0002ecb0       __alloca_probe             1002fcb0   crtdll:chkstk.obj
 0001:0002ece8       __except_handler3          1002fce8 f crtdll:exsup3.obj
 0001:0002eda5       __seh_longjmp_unwind@4     1002fda5 f crtdll:exsup3.obj
 0001:0002edc0       __wcsicmp                  1002fdc0 f crtdll:msvcrt.dll
 0001:0002edc0       _wcsicmp                   1002fdc0 f crtdll:msvcrt.dll
 0001:0002edc6       _itoa                      1002fdc6 f crtdll:msvcrt.dll
 0001:0002edc6       __itoa                     1002fdc6 f crtdll:msvcrt.dll
 0001:0002edcc       __initterm                 1002fdcc f crtdll:msvcrt.dll
 0001:0002edd2       __global_unwind2           1002fdd2 f crtdll:msvcrt.dll
 0001:0002edfa       __local_unwind2            1002fdfa f crtdll:exsup.obj
 0001:0002ee52       __NLG_Return2              1002fe52   crtdll:exsup.obj
 0001:0002ee62       __abnormal_termination     1002fe62 f crtdll:exsup.obj
 0001:0002ee85       __NLG_Notify1              1002fe85 f crtdll:exsup.obj
 0001:0002ee8e       __NLG_Notify               1002fe8e f crtdll:exsup.obj
 0001:0002eea1       __NLG_Dispatch             1002fea1   crtdll:exsup.obj
 0001:0002eea6       _WNetGetConnectionW@12     1002fea6 f mpr:MPR.dll
 0001:0002eeac       _WNetGetConnectionA@12     1002feac f mpr:MPR.dll
 0002:00000000       ___xc_a                    10030000   crtdll:cinitexe.obj
 0002:0000000c       ___xc_z                    1003000c   crtdll:cinitexe.obj
 0002:00000010       ___xi_a                    10030010   crtdll:cinitexe.obj
 0002:00000014       ___xi_z                    10030014   crtdll:cinitexe.obj
 0002:00000090       ??_7COleAutomationPSFactory@@6B@ 10030090   psfactry.obj
 0002:000000a8       ??_7CHolder@@6B@           100300a8   dispmrsh.obj
 0002:000000b8       ??_7CPDUnkImpl@@6B@        100300b8   dispprox.obj
 0002:000000c8       ??_7CPDProxImpl@@6B@       100300c8   dispprox.obj
 0002:000000e0       ??_7CPDDispImpl@@6B@       100300e0   dispprox.obj
 0002:00000100       ??_7CStubDisp@@6B@         10030100   dispstub.obj
 0002:00000128       ??_7CPEVUnkImpl@@6B@       10030128   evprox.obj
 0002:00000138       ??_7CPEVProxImpl@@6B@      10030138   evprox.obj
 0002:00000150       ??_7CPEVEnumVARIANTImpl@@6B@ 10030150   evprox.obj
 0002:00000170       ??_7CStubEnumVARIANT@@6B@  10030170   evstub.obj
 0002:00000198       ??_7CPTIUnkImpl@@6B@       10030198   tiprox.obj
 0002:000001a8       ??_7CPTIProxImpl@@6B@      100301a8   tiprox.obj
 0002:000001c0       ??_7CPTITypeInfoImpl@@6B@  100301c0   tiprox.obj
 0002:00000218       ??_7CStubTypeInfo@@6B@     10030218   tistub.obj
 0002:00000240       ??_7ICreateErrorInfo@@6B@  10030240   errinfo.obj
 0002:00000260       ??_7IErrorInfo@@6B@        10030260   errinfo.obj
 0002:00000280       ??_7CErrorInfo@@6BICreateErrorInfo@@@ 10030280   errinfo.obj
 0002:000002a0       ??_7CErrorInfo@@6BIErrorInfo@@@ 100302a0   errinfo.obj
 0002:000002c0       ??_7CPTLibUnkImpl@@6B@     100302c0   tlprox.obj
 0002:000002d0       ??_7CPTLibProxImpl@@6B@    100302d0   tlprox.obj
 0002:000002e8       ??_7CPTLibTypeLibImpl@@6B@ 100302e8   tlprox.obj
 0002:00000320       ??_7CStubTypeLib@@6B@      10030320   tlstub.obj
 0002:00000348       ??_7CPTCompUnkImpl@@6B@    10030348   tcprox.obj
 0002:00000358       ??_7CPTCompProxImpl@@6B@   10030358   tcprox.obj
 0002:00000370       ??_7CPTCompTypeCompImpl@@6B@ 10030370   tcprox.obj
 0002:00000388       ??_7CStubTypeComp@@6B@     10030388   tcstub.obj
 0002:000003b0       ??_7CPriv@CProxUniv@@6B@   100303b0   ups.obj
 0002:000003c8       ??_7CStubUniv@@6B@         100303c8   ups.obj
 0002:000003f0       ??_7CStreamOnBuffer@@6B@   100303f0   dispstrm.obj
 0002:00000438       ??_7IStream@@6B@           10030438   dispstrm.obj
 0002:00000498       ??_7CDispTypeInfo@@6B@     10030498   cdispti.obj
 0002:000004f0       ??_7IDispatch@@6B@         100304f0   stddisp.obj
 0002:00000510       ??_7CStdDisp@@6B@          10030510   stddisp.obj
 0002:00000530       ??_7CStdDispUnkImpl@@6B@   10030530   stddisp.obj
 0002:00000540       _mpmmdd                    10030540   oledate.obj
 0002:00000610       _CLSID_PSDispatch          10030610   clsid.obj
 0002:00000620       _CLSID_PSEnumVARIANT       10030620   clsid.obj
 0002:00000630       _CLSID_PSTypeInfo          10030630   clsid.obj
 0002:00000640       _CLSID_PSTypeLib           10030640   clsid.obj
 0002:00000650       _CLSID_PSAutomation        10030650   clsid.obj
 0002:00000660       _CLSID_PSTypeComp          10030660   clsid.obj
 0002:00000670       ?BM_cbSizeInitial@@3IB     10030670   blkmgr.obj
 0002:00000674       ?m_cbSizeInitial@SHEAP_MGR@@2IB 10030674   sheapmgr.obj
 0002:00000678       _CLSID_PSRemoteTypeInfo    10030678   tlibguid.obj
 0002:00000688       _CLSID_GenericTypeLibOLE   10030688   obguid.obj
 0002:00000698       _IID_TYPEINFO              10030698   obguid.obj
 0002:000006a8       _IID_DYNTYPEINFO           100306a8   obguid.obj
 0002:000006b8       _IID_CDefnTypeComp         100306b8   obguid.obj
 0002:000006c8       _IID_TYPELIB_GEN_DTINFO    100306c8   obguid.obj
 0002:000006d8       _CLSID_TypeLibCF           100306d8   obguid.obj
 0002:000006e8       _IID_IGenericTypeLibOLE    100306e8   obguid.obj
 0002:000006f8       ?szProtocolName@GEN_DTINFO@@2QAGA 100306f8   gdtinfo.obj
 0002:000006fc       ?bCurVersion@DYN_TYPEROOT@@1EB 100306fc   gdtinfo.obj
 0002:00000700       ?bFirstSerByte@DYN_TYPEROOT@@1EB 10030700   gdtinfo.obj
 0002:00000704       ?cbSizeDir@DYN_TYPEROOT@@1GB 10030704   gdtinfo.obj
 0002:00000708       ??_7GEN_DTINFO@@6BICreateTypeInfo@@@ 10030708   gdtinfo.obj
 0002:00000770       ??_7GEN_DTINFO@@6BDYNTYPEINFO@@@ 10030770   gdtinfo.obj
 0002:00000838       ??_7OSTL_TI@@6BICreateTypeInfo@@@ 10030838   gdtinfo.obj
 0002:000008a0       ??_7OSTL_TI@@6BDYNTYPEINFO@@@ 100308a0   gdtinfo.obj
 0002:00000958       ??_7DYNTYPEINFO@@6B@       10030958   gdtinfo.obj
 0002:000009e8       ??_7IUnknown@@6B@          100309e8   gdtinfo.obj
 0002:000009f8       ??_7ICreateTypeInfo@@6B@   100309f8   gdtinfo.obj
 0002:00000a60       ??_7DYN_TYPEROOT@@6B@      10030a60   gdtinfo.obj
 0002:00000a80       ?wFirstSerWord@OGTOLE@@1GB 10030a80   gtlibole.obj
 0002:00000a84       ?wDefaultVersion@OGTOLE@@1GB 10030a84   gtlibole.obj
 0002:00000a88       ?wDualVersion@OGTOLE@@1GB  10030a88   gtlibole.obj
 0002:00000a8c       ?wMaxVersion@OGTOLE@@1GB   10030a8c   gtlibole.obj
 0002:00000a90       ?chMinorVerNumSep@OGTOLE@@1DB 10030a90   gtlibole.obj
 0002:00000a94       ?chLibIdSep@OGTOLE@@1GB    10030a94   gtlibole.obj
 0002:00000a98       ?szDirStreamName@OGTOLE@@1QAGA 10030a98   gtlibole.obj
 0002:00000a9c       ?oGptbind@OGTOLE@@2IB      10030a9c   gtlibole.obj
 0002:00000aa0       ??_7OGTOLE@@6BICreateTypeLib@@@ 10030aa0   gtlibole.obj
 0002:00000ad8       ??_7OGTOLE@@6BITypeLib@@@  10030ad8   gtlibole.obj
 0002:00000b18       ??_7ITypeLib@@6B@          10030b18   gtlibole.obj
 0002:00000b50       ??_7ICreateTypeLib@@6B@    10030b50   gtlibole.obj
 0002:00000b88       ??_7DOCFILE_STREAM@@6B@    10030b88   dfstream.obj
 0002:00000ba0       ??_7STREAM@@6B@            10030ba0   dfstream.obj
 0002:00000bb8       ??_7CReleaseAppData@@6B@   10030bb8   oautil.obj
 0002:00000bc4       ?oDtbind@DYN_TYPEMEMBERS@@2IB 10030bc4   dtmbrs.obj
 0002:00000bc8       ??_7DYN_TYPEMEMBERS@@6B@   10030bc8   dtmbrs.obj
 0002:00000be0       ?wFirstSerWord@ENTRYMGR@@0GB 10030be0   entrymgr.obj
 0002:00000be4       ?cbSizeSerMem@ENTRYMGR@@0GB 10030be4   entrymgr.obj
 0002:00000be8       ?wCurFormat@ENTRYMGR@@0GB  10030be8   entrymgr.obj
 0002:00000bec       ?oDbindnametbl@DYN_TYPEBIND@@2IB 10030bec   dtbind.obj
 0002:00000bf0       ??_7DYN_TYPEBIND@@6B@      10030bf0   dtbind.obj
 0002:00000c30       ??_7DEFN_TYPEBIND@@6B@     10030c30   dtbind.obj
 0002:00000c6c       ??_7DYN_BINDNAME_TABLE@@6B@ 10030c6c   dbindtbl.obj
 0002:00000c70       ?oGbindnametbl@GENPROJ_TYPEBIND@@2IB 10030c70   gptbind.obj
 0002:00000c78       ??_7GENPROJ_TYPEBIND@@6B@  10030c78   gptbind.obj
 0002:00000cb8       ??_7ODfnTCmp@@6B@          10030cb8   dfntcomp.obj
 0002:00000cd0       ??_7GTLibStorage@@6B@      10030cd0   gtlibstg.obj
 0002:00000d18       ??_7GTLibStream@@6B@       10030d18   gtlibstg.obj
 0002:00000d50       ??_7FileLockBytes@@6B@     10030d50   gtlibstg.obj
 0002:00000d78       ??_7FileLockBytesMemory@@6B@ 10030d78   gtlibstg.obj
 0002:00000dc8       _IID_IPSFactoryBuffer      10030dc8   uuid:objidl_i_guid34.obj
 0002:00000dd8       _IID_IUnknown              10030dd8   uuid:unknwn_i_guid0.obj
 0002:00000de8       _IID_IRpcProxyBuffer       10030de8   uuid:objidl_i_guid32.obj
 0002:00000df8       _IID_ITypeComp             10030df8   uuid:oaidl_i_guid6.obj
 0002:00000e08       _IID_ITypeLib              10030e08   uuid:oaidl_i_guid9.obj
 0002:00000e18       _IID_ITypeInfo             10030e18   uuid:oaidl_i_guid7.obj
 0002:00000e28       _IID_IEnumVARIANT          10030e28   uuid:oaidl_i_guid5.obj
 0002:00000e38       _IID_IDispatch             10030e38   uuid:oaidl_i_guid4.obj
 0002:00000e48       _GUID_NULL                 10030e48   uuid:cguid_i_guid0.obj
 0002:00000e58       _IID_IErrorInfo            10030e58   uuid:oaidl_i_guid12.obj
 0002:00000e68       _IID_IRpcStubBuffer        10030e68   uuid:objidl_i_guid33.obj
 0002:00000e78       _IID_ICreateErrorInfo      10030e78   uuid:oaidl_i_guid13.obj
 0002:00000e88       _IID_IStream               10030e88   uuid:objidl_i_guid17.obj
 0002:00000e98       _IID_ICreateTypeInfo       10030e98   uuid:oaidl_i_guid0.obj
 0002:00000ea8       _IID_ICreateTypeLib        10030ea8   uuid:oaidl_i_guid2.obj
 0002:00000eb8       _IID_IStorage              10030eb8   uuid:objidl_i_guid19.obj
 0002:00000ec8       _IID_ILockBytes            10030ec8   uuid:objidl_i_guid22.obj
 0003:00000000       _g_fChicago                10032000   oledisp.obj
 0003:00000004       _g_fWin32s                 10032004   oledisp.obj
 0003:00000008       _g_hinstDLL                10032008   oledisp.obj
 0003:00000080       ?g_cbVtSizes@@3PAEA        10032080   dispmrsh.obj
 0003:00000098       ?g_cbFtype@@3PAEA          10032098   dispmrsh.obj
 0003:000000f0       ?g_rgpfnUnk@@3PAPAXA       100320f0   uvft.obj
 0003:000008f8       ?g_rgpfnDisp@@3PAPAXA      100328f8   uvft.obj
 0003:000010fc       ?g_cfnUnk@@3JA             100330fc   uvft.obj
 0003:00001100       ?g_cfnDisp@@3JA            10033100   uvft.obj
 0003:00001104       _g_S_OK                    10033104   invhelp.obj
 0003:00001108       _g_E_INVALIDARG            10033108   invhelp.obj
 0003:00001110       _g_dpsNext                 10033110   bstrdate.obj
 0003:00001208       _g_fDay31th                10033208   bstrdate.obj
 0003:000013e0       _g_dblMaxPosCy             100333e0   asmhelp.obj
 0003:000013e8       _g_dblMaxNegCy             100333e8   asmhelp.obj
 0003:00001430       ?pstrInf@@3PAGA            10033430   convertt.obj
 0003:00001438       ?pstrInd@@3PAGA            10033438   convertt.obj
 0003:00001440       ?pstrNan@@3PAGA            10033440   convertt.obj
 0003:000014e8       _g_rgfdescIdldesc          100334e8   tables.obj
 0003:00001518       _g_rgfdescElemdesc         10033518   tables.obj
 0003:00001548       _g_rgfdescTypeattr         10033548   tables.obj
 0003:00001648       _g_rgfdescFuncdesc         10033648   tables.obj
 0003:000016e8       _g_rgfdescVardesc          100336e8   tables.obj
 0003:00001738       ?g_rgbCodePage1252@@3PAEA  10033738   tlibutil.obj
 0003:00001838       ?g_rgbCodePage10000@@3PAEA 10033838   tlibutil.obj
 0003:00001938       ?g_rgbCodePage1250@@3PAEA  10033938   tlibutil.obj
 0003:00001a38       ?g_rgbCodePage1251@@3PAEA  10033a38   tlibutil.obj
 0003:00001b38       ?g_rgbCodePage10029@@3PAEA 10033b38   tlibutil.obj
 0003:00001c38       ?g_rgbCodePage10007@@3PAEA 10033c38   tlibutil.obj
 0003:00001d38       ?g_rgbCodePageWGreek@@3PAEA 10033d38   tlibutil.obj
 0003:00001e38       ?g_rgbCodePageWIceland@@3PAEA 10033e38   tlibutil.obj
 0003:00001f38       ?g_rgbCodePageWTurkish@@3PAEA 10033f38   tlibutil.obj
 0003:00002038       ?g_rgbCodePageWNorwegian@@3PAEA 10034038   tlibutil.obj
 0003:00002138       ?g_rgbCodePageWEngIreland@@3PAEA 10034138   tlibutil.obj
 0003:00002238       ?g_rgbCodePageMGreek@@3PAEA 10034238   tlibutil.obj
 0003:00002338       ?g_rgbCodePageMNorwegian@@3PAEA 10034338   tlibutil.obj
 0003:00002438       ?g_rgbCodePageMEngIreland@@3PAEA 10034438   tlibutil.obj
 0003:00002538       ?g_rgbCodePage1255@@3PAEA  10034538   tlibutil.obj
 0003:00002638       ?g_rgbCodePage1256@@3PAEA  10034638   tlibutil.obj
 0003:00002738       ?g_rgbCodePage10004@@3PAEA 10034738   tlibutil.obj
 0003:00002838       ?g_rgbCodePage10005@@3PAEA 10034838   tlibutil.obj
 0003:00002938       ?g_prgHashTbl@@3PAY01PAEA  10034938   tlibutil.obj
 0003:000029b0       ?m_rgJapneseExcepMap@@3PAY01GA 100349b0   tlibutil.obj
 0003:00002d58       ?m_rgKoreaExcepMap@@3PAY01GA 10034d58   tlibutil.obj
 0003:00002e58       ?m_rgChinaTExcepMap@@3PAY01GA 10034e58   tlibutil.obj
 0003:00002f58       ?m_rgChinaSExcepMap@@3PAY01GA 10034f58   tlibutil.obj
 0003:00003058       ?g_rgbPartialBaseTbl1252@@3PAEA 10035058   tlibutil.obj
 0003:000030d8       ?g_rgbPartialBaseTbl1250@@3PAEA 100350d8   tlibutil.obj
 0003:00003158       ?g_rgbPartialBaseTbl10000@@3PAEA 10035158   tlibutil.obj
 0003:000031d8       ?g_rgbPartialBaseTbl10029@@3PAEA 100351d8   tlibutil.obj
 0003:00003258       ?g_rgbPartialBaseTbl10007@@3PAEA 10035258   tlibutil.obj
 0003:000032d8       ?g_rgbPartialBaseTblWTurkish@@3PAEA 100352d8   tlibutil.obj
 0003:00003358       ?g_rgbPartialBaseTblWNorwegian@@3PAEA 10035358   tlibutil.obj
 0003:000033d8       ?g_rgbPartialBaseTblWEngIreland@@3PAEA 100353d8   tlibutil.obj
 0003:00003458       ?g_rgbPartialBaseTblMNorwegian@@3PAEA 10035458   tlibutil.obj
 0003:000034d8       ?g_rgbPartialBaseTblMEngIreland@@3PAEA 100354d8   tlibutil.obj
 0003:00003558       ?g_prgbPartialBaseTbl@@3PAY01PAEA 10035558   tlibutil.obj
 0003:000035b0       ?g_rgbExcepTblWin1030@@3PAY01EA 100355b0   tlibutil.obj
 0003:000035d0       ?g_rgbExcepTblMac1030@@3PAY01EA 100355d0   tlibutil.obj
 0003:000035f0       ?g_rgbExcepTblWin1034@@3PAY01EA 100355f0   tlibutil.obj
 0003:000035f8       ?g_rgbExcepTblMac1034@@3PAY01EA 100355f8   tlibutil.obj
 0003:00003600       ?g_rgbExcepTblWin1035@@3PAY01EA 10035600   tlibutil.obj
 0003:00003620       ?g_rgbExcepTblMac1035@@3PAY01EA 10035620   tlibutil.obj
 0003:00003640       ?g_rgbExcepTblWin1038@@3PAY01EA 10035640   tlibutil.obj
 0003:00003668       ?g_rgbExcepTblMac1038@@3PAY01EA 10035668   tlibutil.obj
 0003:00003690       ?g_rgbExcepTblWin1045@@3PAY01EA 10035690   tlibutil.obj
 0003:000036c8       ?g_rgbExcepTblMac1045@@3PAY01EA 100356c8   tlibutil.obj
 0003:00003700       ?g_rgbExcepTblWin1051@@3PAY01EA 10035700   tlibutil.obj
 0003:00003710       ?g_rgbExcepTblMac1051@@3PAY01EA 10035710   tlibutil.obj
 0003:00003718       ?g_rgbExcepTblNew@@3PAY01EA 10035718   tlibutil.obj
 0003:00003720       ?g_rgLcidToExcepTbl@@3PAY01ULcidToExcep@@A 10035720   tlibutil.obj
 0003:00003830       ?g_fSBCS@@3HA              10035830   mbstring.obj
 0003:00003834       ?_mbascii@@3IA             10035834   mbstring.obj
 0003:00003838       ?g_szGuidStdole@@3PAGA     10035838   gdtinfo.obj
 0003:00003894       ??_C@_13ECNF@?$AA?5?$AA?$AA?$AA?$AH?$AA?$AA@ 10035894   nammgr.obj
 0003:00003ac0       ?bFirstSerByte@IMPMGR@@0EA 10035ac0   impmgr.obj
 0003:00003ac4       ?bCurVersion@IMPMGR@@0EA   10035ac4   impmgr.obj
 0003:00003ac8       ?szPlatSubkey1@@3PAGA      10035ac8   clutil.obj
 0003:00003acc       ?szPlatSubkey2@@3PAGA      10035acc   clutil.obj
 0003:00003ad0       ?g_rgrgcbSizeType@@3PAY0CA@DA 10035ad0   clutil.obj
 0003:00003b30       ?g_rgcbAlignment@@3PADA    10035b30   clutil.obj
 0003:00003b8c       ?g_itlsAppData@@3KA        10035b8c   oautil.obj
 0003:00003b9c       ?szProtocolName@DYN_TYPEBIND@@2PAGA 10035b9c   dtbind.obj
 0003:00003bc0       ?szProtocolName@DEFN_TYPEBIND@@2PAGA 10035bc0   dfntbind.obj
 0003:00003bc4       ?szBaseName@DEFN_TYPEBIND@@2PAGA 10035bc4   dfntbind.obj
 0003:00003c08       ?szProtocolName@GENPROJ_TYPEBIND@@2PAGA 10035c08   gptbind.obj
 0003:00003c40       __NLG_Destination          10035c40   crtdll:exsup.obj
 0003:00003c50       _g_rgchLeadByteTable       10035c50   mbstring.obj
 0003:00003d60       ?g_AppObjectTable@@3VAppObjectTable@@A 10035d60   oautil.obj
 0003:00003d84       ___onexitend               10035d84   <common>
 0003:00003d88       ___onexitbegin             10035d88   <common>
 0003:00003d8c       __pRawDllMain              10035d8c   <common>
 0004:00000000       __IMPORT_DESCRIPTOR_ole32  10036000   ole32:ole32.dll
 0004:00000014       __IMPORT_DESCRIPTOR_USER32 10036014   user32:USER32.dll
 0004:00000028       __IMPORT_DESCRIPTOR_msvcrt 10036028   crtdll:msvcrt.dll
 0004:0000003c       __IMPORT_DESCRIPTOR_KERNEL32 1003603c   kernel32:KERNEL32.dll
 0004:00000050       __IMPORT_DESCRIPTOR_ADVAPI32 10036050   advapi32:ADVAPI32.dll
 0004:00000064       __IMPORT_DESCRIPTOR_MPR    10036064   mpr:MPR.dll
 0004:00000078       __NULL_IMPORT_DESCRIPTOR   10036078   ole32:ole32.dll
 0004:0000024c       __imp__RegCreateKeyW@12    1003624c   advapi32:ADVAPI32.dll
 0004:00000250       __imp__RegQueryValueA@16   10036250   advapi32:ADVAPI32.dll
 0004:00000254       __imp__RegCloseKey@4       10036254   advapi32:ADVAPI32.dll
 0004:00000258       __imp__RegOpenKeyA@12      10036258   advapi32:ADVAPI32.dll
 0004:0000025c       __imp__RegCreateKeyA@12    1003625c   advapi32:ADVAPI32.dll
 0004:00000260       __imp__RegEnumKeyA@16      10036260   advapi32:ADVAPI32.dll
 0004:00000264       __imp__RegQueryValueW@16   10036264   advapi32:ADVAPI32.dll
 0004:00000268       __imp__RegEnumKeyW@16      10036268   advapi32:ADVAPI32.dll
 0004:0000026c       __imp__RegOpenKeyW@12      1003626c   advapi32:ADVAPI32.dll
 0004:00000270       __imp__RegSetValueA@20     10036270   advapi32:ADVAPI32.dll
 0004:00000274       __imp__RegSetValueW@20     10036274   advapi32:ADVAPI32.dll
 0004:00000278       \177ADVAPI32_NULL_THUNK_DATA 10036278   advapi32:ADVAPI32.dll
 0004:0000027c       __imp__GetFileSize@8       1003627c   kernel32:KERNEL32.dll
 0004:00000280       __imp___lclose@4           10036280   kernel32:KERNEL32.dll
 0004:00000284       __imp__IsDBCSLeadByte@4    10036284   kernel32:KERNEL32.dll
 0004:00000288       __imp___lwrite@12          10036288   kernel32:KERNEL32.dll
 0004:0000028c       __imp__MapViewOfFile@20    1003628c   kernel32:KERNEL32.dll
 0004:00000290       __imp__UnmapViewOfFile@4   10036290   kernel32:KERNEL32.dll
 0004:00000294       __imp__CloseHandle@4       10036294   kernel32:KERNEL32.dll
 0004:00000298       __imp__LoadLibraryA@4      10036298   kernel32:KERNEL32.dll
 0004:0000029c       __imp__SetErrorMode@4      1003629c   kernel32:KERNEL32.dll
 0004:000002a0       __imp__GetProcAddress@8    100362a0   kernel32:KERNEL32.dll
 0004:000002a4       __imp__FreeLibrary@4       100362a4   kernel32:KERNEL32.dll
 0004:000002a8       __imp__EnterCriticalSection@4 100362a8   kernel32:KERNEL32.dll
 0004:000002ac       __imp__LeaveCriticalSection@4 100362ac   kernel32:KERNEL32.dll
 0004:000002b0       __imp__DeleteCriticalSection@4 100362b0   kernel32:KERNEL32.dll
 0004:000002b4       __imp__TlsSetValue@8       100362b4   kernel32:KERNEL32.dll
 0004:000002b8       __imp__TlsFree@4           100362b8   kernel32:KERNEL32.dll
 0004:000002bc       __imp__TlsAlloc@0          100362bc   kernel32:KERNEL32.dll
 0004:000002c0       __imp__InitializeCriticalSection@4 100362c0   kernel32:KERNEL32.dll
 0004:000002c4       __imp__lstrcmpiA@8         100362c4   kernel32:KERNEL32.dll
 0004:000002c8       __imp___lread@12           100362c8   kernel32:KERNEL32.dll
 0004:000002cc       __imp___llseek@12          100362cc   kernel32:KERNEL32.dll
 0004:000002d0       __imp___lopen@8            100362d0   kernel32:KERNEL32.dll
 0004:000002d4       __imp__GetSystemInfo@4     100362d4   kernel32:KERNEL32.dll
 0004:000002d8       __imp__TlsGetValue@4       100362d8   kernel32:KERNEL32.dll
 0004:000002dc       __imp__GetLastError@0      100362dc   kernel32:KERNEL32.dll
 0004:000002e0       __imp__OpenFile@12         100362e0   kernel32:KERNEL32.dll
 0004:000002e4       __imp__GetDriveTypeA@4     100362e4   kernel32:KERNEL32.dll
 0004:000002e8       __imp__GetDriveTypeW@4     100362e8   kernel32:KERNEL32.dll
 0004:000002ec       __imp__GetLocaleInfoW@16   100362ec   kernel32:KERNEL32.dll
 0004:000002f0       __imp__GetStringTypeExW@20 100362f0   kernel32:KERNEL32.dll
 0004:000002f4       __imp__GetStringTypeExA@20 100362f4   kernel32:KERNEL32.dll
 0004:000002f8       __imp__LCMapStringW@24     100362f8   kernel32:KERNEL32.dll
 0004:000002fc       __imp__LCMapStringA@24     100362fc   kernel32:KERNEL32.dll
 0004:00000300       __imp__CompareStringW@24   10036300   kernel32:KERNEL32.dll
 0004:00000304       __imp__CompareStringA@24   10036304   kernel32:KERNEL32.dll
 0004:00000308       __imp__GetUserDefaultLCID@0 10036308   kernel32:KERNEL32.dll
 0004:0000030c       __imp__GetProfileIntA@12   1003630c   kernel32:KERNEL32.dll
 0004:00000310       __imp__CreateFileMappingA@24 10036310   kernel32:KERNEL32.dll
 0004:00000314       __imp__GetLocalTime@4      10036314   kernel32:KERNEL32.dll
 0004:00000318       __imp__GetLocaleInfoA@16   10036318   kernel32:KERNEL32.dll
 0004:0000031c       __imp__MultiByteToWideChar@24 1003631c   kernel32:KERNEL32.dll
 0004:00000320       __imp__WideCharToMultiByte@32 10036320   kernel32:KERNEL32.dll
 0004:00000324       __imp__GetVersion@0        10036324   kernel32:KERNEL32.dll
 0004:00000328       \177KERNEL32_NULL_THUNK_DATA 10036328   kernel32:KERNEL32.dll
 0004:0000032c       __imp__WNetGetConnectionA@12 1003632c   mpr:MPR.dll
 0004:00000330       __imp__WNetGetConnectionW@12 10036330   mpr:MPR.dll
 0004:00000334       \177MPR_NULL_THUNK_DATA    10036334   mpr:MPR.dll
 0004:00000338       \177USER32_NULL_THUNK_DATA 10036338   user32:USER32.dll
 0004:0000033c       __imp___wcsicmp            1003633c   crtdll:msvcrt.dll
 0004:0000033c       __imp__wcsicmp             1003633c   crtdll:msvcrt.dll
 0004:00000340       __imp__wcsrchr             10036340   crtdll:msvcrt.dll
 0004:00000344       __imp__remove              10036344   crtdll:msvcrt.dll
 0004:00000348       __imp__wcstoul             10036348   crtdll:msvcrt.dll
 0004:0000034c       __imp__wcscat              1003634c   crtdll:msvcrt.dll
 0004:00000350       __imp___itoa               10036350   crtdll:msvcrt.dll
 0004:00000354       __imp__memmove             10036354   crtdll:msvcrt.dll
 0004:00000358       __imp__strrchr             10036358   crtdll:msvcrt.dll
 0004:0000035c       __imp__strchr              1003635c   crtdll:msvcrt.dll
 0004:00000360       __imp__atoi                10036360   crtdll:msvcrt.dll
 0004:00000364       __imp___ultoa              10036364   crtdll:msvcrt.dll
 0004:00000368       __imp___stat               10036368   crtdll:msvcrt.dll
 0004:0000036c       __imp__wcsncmp             1003636c   crtdll:msvcrt.dll
 0004:00000370       __imp__towlower            10036370   crtdll:msvcrt.dll
 0004:00000374       __imp___initterm           10036374   crtdll:msvcrt.dll
 0004:00000378       __imp__free                10036378   crtdll:msvcrt.dll
 0004:0000037c       __imp___errno              1003637c   crtdll:msvcrt.dll
 0004:00000380       __imp____p__pctype         10036380   crtdll:msvcrt.dll
 0004:00000384       __imp____p___mb_cur_max    10036384   crtdll:msvcrt.dll
 0004:00000388       __imp___isctype            10036388   crtdll:msvcrt.dll
 0004:0000038c       __imp__wcscmp              1003638c   crtdll:msvcrt.dll
 0004:00000390       __imp__wcscpy              10036390   crtdll:msvcrt.dll
 0004:00000394       __imp__wcschr              10036394   crtdll:msvcrt.dll
 0004:00000398       __imp__wcstod              10036398   crtdll:msvcrt.dll
 0004:0000039c       __imp__floor               1003639c   crtdll:msvcrt.dll
 0004:000003a0       __imp___ftol               100363a0   crtdll:msvcrt.dll
 0004:000003a4       __imp__strtoul             100363a4   crtdll:msvcrt.dll
 0004:000003a8       __imp___purecall           100363a8   crtdll:msvcrt.dll
 0004:000003ac       __imp__wcslen              100363ac   crtdll:msvcrt.dll
 0004:000003b0       __imp__malloc              100363b0   crtdll:msvcrt.dll
 0004:000003b4       __imp__wcsncpy             100363b4   crtdll:msvcrt.dll
 0004:000003b8       __imp__modf                100363b8   crtdll:msvcrt.dll
 0004:000003bc       __imp___global_unwind2     100363bc   crtdll:msvcrt.dll
 0004:000003c0       __imp__stricmp             100363c0   crtdll:msvcrt.dll
 0004:000003c0       __imp___stricmp            100363c0   crtdll:msvcrt.dll
 0004:000003c4       \177msvcrt_NULL_THUNK_DATA 100363c4   crtdll:msvcrt.dll
 0004:000003c8       __imp__CoCreateInstance@20 100363c8   ole32:ole32.dll
 0004:000003cc       __imp__WriteClassStg@8     100363cc   ole32:ole32.dll
 0004:000003d0       __imp__WriteFmtUserTypeStg@12 100363d0   ole32:ole32.dll
 0004:000003d4       __imp__ReadClassStg@8      100363d4   ole32:ole32.dll
 0004:000003d8       __imp__StringFromGUID2@12  100363d8   ole32:ole32.dll
 0004:000003dc       __imp__CreateBindCtx@8     100363dc   ole32:ole32.dll
 0004:000003e0       __imp__MkParseDisplayName@16 100363e0   ole32:ole32.dll
 0004:000003e4       __imp__CoSetState@4        100363e4   ole32:ole32.dll
 0004:000003e8       __imp__StringFromCLSID@8   100363e8   ole32:ole32.dll
 0004:000003ec       __imp__CreateFileMoniker@8 100363ec   ole32:ole32.dll
 0004:000003f0       __imp__GetRunningObjectTable@8 100363f0   ole32:ole32.dll
 0004:000003f4       __imp__CoGetMalloc@8       100363f4   ole32:ole32.dll
 0004:000003f8       __imp__CoUnmarshalInterface@12 100363f8   ole32:ole32.dll
 0004:000003fc       __imp__CoMarshalInterface@24 100363fc   ole32:ole32.dll
 0004:00000400       __imp__CoUnmarshalHresult@8 10036400   ole32:ole32.dll
 0004:00000404       __imp__CoMarshalHresult@8  10036404   ole32:ole32.dll
 0004:00000408       \177ole32_NULL_THUNK_DATA  10036408   ole32:ole32.dll

 entry point at        0001:0002eb30

 Static symbols

 0001:00024848       _$E35                      10025848 f oautil.obj
 0001:0002484d       _$E34                      1002584d f oautil.obj
 0001:000248ad       _$E38                      100258ad f oautil.obj
 0001:000248b2       _$E37                      100258b2 f oautil.obj
 0001:000244c5       ?SkipVolumeName@@YAPAGPAG@Z 100254c5 f clutil.obj
 0001:00024513       ?StripDirsFromEnd@@YAPAGPAGI@Z 10025513 f clutil.obj
 0001:0001ebc1       ?FFullyQualified@@YAHPBG@Z 1001fbc1 f gtlibole.obj
 0001:0001f44a       ?RegisterPathAndAlias@@YAJPAUHKEY__@@PAG@Z 1002044a f gtlibole.obj
 0001:00017450       ?CreateActiveObjectMoniker@@YGJABU_GUID@@PAPAUIMoniker@@@Z 10018450 f getobj.obj
 0001:00015080       ?ConvI4FromR8@@YGJPAN@Z    10016080 f convertt.obj
 0001:00015dc0       ?NegCyNoOflo@@YGXPATtagCY@@@Z 10016dc0 f convertt.obj
 0001:00016450       ?FixNegativeCyStr@@YGHPAGGPAH@Z 10017450 f convertt.obj
 0001:000165a0       ?fStripCurrency@@YGHPAPAG0PAG@Z 100175a0 f convertt.obj
 0001:000165e0       ?fParseBegin@@YGHPAPAGPAG1@Z 100175e0 f convertt.obj
 0001:00016640       ?fParseEnd@@YGHPAPAGPAG1@Z 10017640 f convertt.obj
 0001:000166c0       ?StrToCy@@YGJPAGPAPAGHPATtagCY@@KK@Z 100176c0 f convertt.obj
 0001:00016b00       ?AddCyNoOflo@@YGXPATtagCY@@0@Z 10017b00 f convertt.obj
 0001:00016b40       ?StrToLong@@YGJPAGPAPAG@Z  10017b40 f convertt.obj
 0001:00016c30       ?HexOctStrToLong@@YGJPAGPAPAG@Z 10017c30 f convertt.obj
 0001:00016cb0       ?StrToHex@@YGKPAGPAPAG@Z   10017cb0 f convertt.obj
 0001:00016d50       ?StrToOct@@YGKPAGPAPAG@Z   10017d50 f convertt.obj
 0001:00016de0       ?GetDispProperty@@YGJPAUIDispatch@@KGPAUtagVARIANT@@@Z 10017de0 f convertt.obj
 0001:00013cb0       ?ExtractValueProperty@@YGJPAUIDispatch@@KPAUtagVARIANT@@@Z 10014cb0 f variant.obj
 0001:0001341d       _$$$00013@0                1001441d f oleconva.obj
 0001:00010840       _GetDateInfo@12            10011840 f bstrdate.obj
 0001:00010c50       _ddlex@16                  10011c50 f bstrdate.obj
 0001:000110b0       _MonthNumOfMonthName@8     100120b0 f bstrdate.obj
 0001:00011170       _IsImperialEra@12          10012170 f bstrdate.obj
 0001:000114d0       _IsRepublicEra@12          100124d0 f bstrdate.obj
 0001:000118c0       _IsDBCSAmPm@12             100128c0 f bstrdate.obj
 0001:00011c30       _ddsep@12                  10012c30 f bstrdate.obj
 0001:00012350       _DayOfNN@12                10013350 f bstrdate.obj
 0001:000125a0       _LEGAL_DAY@12              100135a0 f bstrdate.obj
 0001:00012630       _DayOfNNN@12               10013630 f bstrdate.obj
 0001:00012840       _DayOfMN@12                10013840 f bstrdate.obj
 0001:000128a0       _DayOfMNN@12               100138a0 f bstrdate.obj
 0001:000129a0       _AdjustTime@8              100139a0 f bstrdate.obj
 0001:000129e0       _AdjustUDSTime@12          100139e0 f bstrdate.obj
 0001:00012a30       _AdjustUDSDate@12          10013a30 f bstrdate.obj
 0001:00012bf0       _RenderDate@16             10013bf0 f bstrdate.obj
 0001:00012e70       _GetImperialEra@8          10013e70 f bstrdate.obj
 0001:00012f50       _RenderTime@12             10013f50 f bstrdate.obj
 0001:00013070       _AppendAmPm@16             10014070 f bstrdate.obj
 0001:0000da70       ?InvkindOfDispkind@@YGJGPAW4tagINVOKEKIND@@@Z 1000ea70 f cdispti.obj
 0001:0000c33f       _$$$00003                  1000d33f f invoke.obj
 0001:000070f0       ?HrDupBstr@@YAJPAGPAPAG@Z  100080f0 f errinfo.obj
 0001:00004630       ?DispatchNext@@YGJPAUIEnumVARIANT@@PAUIStream@@@Z 10005630 f evstub.obj
 0001:00004790       ?DispatchSkip@@YGJPAUIEnumVARIANT@@PAUIStream@@@Z 10005790 f evstub.obj
 0001:000047f0       ?DispatchReset@@YGJPAUIEnumVARIANT@@PAUIStream@@@Z 100057f0 f evstub.obj
 0001:00004820       ?DispatchClone@@YGJPAUIEnumVARIANT@@PAUIStream@@@Z 10005820 f evstub.obj
 0001:00003c80       ?DispatchGetSysKind@@YGJPAUIStream@@@Z 10004c80 f dispstub.obj
 0001:00001820       ?SafeArrayWrite@@YAJPAUIStream@@PAUtagSAFEARRAY@@W4tagSYSKIND@@@Z 10002820 f dispmrsh.obj
 0001:00001a40       ?SafeArrayRead@@YAJPAUIStream@@PAPAUtagSAFEARRAY@@W4tagSYSKIND@@@Z 10002a40 f dispmrsh.obj
 0001:00001b90       ?SafeArrayReadData@@YAJPAUIStream@@PAUtagSAFEARRAY@@W4tagSYSKIND@@@Z 10002b90 f dispmrsh.obj
 0001:00001d30       ?SafeArrayReadExisting@@YGJPAUIStream@@EPAPAUtagSAFEARRAY@@W4tagSYSKIND@@@Z 10002d30 f dispmrsh.obj
 0001:0002edd8       __unwind_handler           1002fdd8 f crtdll:exsup.obj

FIXUPS: 2fdb5 fffffcf3 103 1e 28 fffd37dc e ffffdcde c6 48 26 26 26 26
FIXUPS: 1273 2a 2f 10e 20 23 23 20 10 27 25 e5 15 58 fffffa2b 5 3c 5 23
FIXUPS: 2fd43 d 11 2f fffd2b80 15 2b 40 3b 34 33 76 9a 18 15 2e 15 2c c
FIXUPS: 2c2a 1a 52 44 3d 72 79 12a 40 14 26 f5 1b 153 19 123 6 ffffedd5
FIXUPS: 2136 4f 88 e 19 36 34 13 3d f9 14 14 58 14 14 63 db 17 17 17 a
FIXUPS: 2626 93 4d 1b 1b 15 72 c a a fffff0b5 34 1e 28 26 22e 2a 16 e 13
FIXUPS: 1bee 39 18 10 15 25 177 34 17 f 14 3e 17 f 14 12 31 141 31 34 c
FIXUPS: 20f4 17b1 1b 8b 1b 3c 63 26 1b 79 21 3f 8c 1b 11b 4c a7 85 36 1b
FIXUPS: 3fb2 65 22 5b 33 39 21 88 ffffd584 56 25 3a a2 31cb 15 44 15 13
FIXUPS: 4ae4 9 9 2a d 27 1c d 2e 1f 3c f f f b 13 6 ffffe8ae 9 9 40 8 7
FIXUPS: 3573 1d 148 6 1bb0 3e 47 1b 41 1f ffffee7a 11 e ee 6 a8 a1 1e ac
FIXUPS: 4549 72 30 20 55 50 13 d 4b c8 27 43 40 4b 6a 2e b0 b6a 3c c c
FIXUPS: 55ea 13 6 77 2f 3a 5a 2d 10 54 3d 38 1a fffff4e8 9 9 1c 18 11e
FIXUPS: 4eaf 1a7 1b 86 57 65 1b 55 50 196d 16 4c 22 f 47 2b 60 93 44 dc
FIXUPS: 6f12 36 1a 37 29 52 1e 3a 3b 31 3f 32 3c 1f f ffffe225 b e d4 6
FIXUPS: 556b 107b 1a 45 1b ab 5c 21 10 13 2b 4d 1b 58 21 73 1b 59 1d 5a
FIXUPS: 6a30 42 3c 38 43 8 1d 35 e c 6 23 14 fffff195 21 45 1b 88 2f 1c
FIXUPS: 5f15 1b 88 2f 1c 54 1b ac 7c 46 53 1b 5d 78 1b 5d a6 1b 87 5c 1b
FIXUPS: 6575 15 a 38 158e 1b 1b 20 a a b7 5a 1b 20 a 5f 24 66 24 4d 37
FIXUPS: 7ed9 ffffda1c 9 9 1c 18 11e 6 196 1b 65 2f 1c 53 1b 168c 3c 9 9
FIXUPS: 7411 9 9 9 9 9 9 9 9 10 13 6 f5 3d 5c 1e 86 43 91 43 8f 4b 72 36
FIXUPS: 795d 51 70 da 1849 1b ffffec19 9 9 c e e4 6 53 2b a 4b 20 6f 11
FIXUPS: 821d 11 1f 11 39 60 52 4d 10 10 ffffee52 b e d4 6 a0 1835 42 18
FIXUPS: 8c41 e 54 1b 41 21 55 1b 110 51 25 21 67 11 11 4d 1b 57 17 24 40
FIXUPS: 9137 1b 98 1b 2c 5d 5a 22 a3e 7e 25 1b 47 7c 22 32 d ffffe62b 9
FIXUPS: 8567 1c 18 ee 6 ae e2 1b 83 46 1b 60 21 44 1b 60 75 1b 58 21 4e
FIXUPS: 96db 1f 3c 9 9 9 9 9 9 9 9 9 13 6 118 1e 6f 73 1e 57 19 56 1e 137
FIXUPS: 9c37 21 21 f a a 49 32 3f2 6 ae f7 1b 72 23 2d 6f 1f 1c 11 1c 18
FIXUPS: a4a4 16 a a 57 1b 57 17 24 21 46 48 1b ffffeeac b e d4 6 3076 d6
FIXUPS: c871 ffffded7 b e d4 6 a0 1f 3c 9 9 13 6 c9 45 5c 18 16 18 1a 62
FIXUPS: abfe 3f 1e 1d fffff35d 9 9 1c 18 1b1f 13 c c 13 6 216 5c 21 31
FIXUPS: be6c 28 2b 1e 25 1e 1e 80 14 28 28 102 11 34 3c f0 5f 2c 63 45
FIXUPS: c448 13b ffffea44 49 6 ac 5e f8 6 39 59 20 117 20 ba 58 1e 2c 15e
FIXUPS: b6fb 34 2d 2a 3b 21 d6 11 e ee 6 8c 22 97 15 360f 55 88 78 a7 5d
FIXUPS: f399 10 10 9 22 1b 8b 6c 14 9 fffff1ef ffffe832 21 fffffbcd 6 338
FIXUPS: c942 2a 3a 40 ffffe3d4 d1 23 1b 13 b2 39ee 2d 2d 10 9 13f 3f 33
FIXUPS: ebee ee 13 26 93 13 30 99 38 38 10 12 3c 57 1c 3f 5c 12 35 39 19
FIXUPS: f112 10 9 1882 2b 36 1c 26 12 67 2b ffffef58 3b 8a 25 32 181 32
FIXUPS: fd47 7 65 fffffb7c 76 fffffbf0 19 3d e 117 d6 54 ffffeedf e 4e
FIXUPS: e84f 15 17a3 50 10 98 6e 57 15 3f 75 39 19 66 37 2b cc 82 5e 16
FIXUPS: 1057f 16 37 bf 21 28 12 c 12 143 1f a8 1c 26 303e ce 61 25 36 55
FIXUPS: 13bb8 1b 9d 40 ae 28 31 cd 27 41 99 73 4d bf 17 49 17 ffffd071
FIXUPS: 11200 34 fffffd3c 2c f ffffeeb5 5e 2c 369b bc 39 11 1f 11 1f 11
FIXUPS: 13712 11 1f 11 1f 11 27 11 1f 11 1f 11 29 14 11 1c 53 11 1b 19
FIXUPS: 1392e 1b 19 11 fffff573 34 17 125 69 69 69 69 66 35 17 13 1d 17
FIXUPS: 1335e 38 11 1f 11 25 25 27 11 1f 11 25 25 27 11 1f 11 25 fffff1ac
FIXUPS: 12723 13 2c 25 60 17 5a 115 96 5c a5 86 58 71 10 17 2e 1b 17 51
FIXUPS: 12d4e 2d 30 39 29 20 2a 21 17 1f 1d ffffef11 18 36 24 13e 15 35
FIXUPS: 11ffc 1e c7 14 27 18 dc 55 1b 52 17 13 1c 2c 25 7f 17 5a 98 5f
FIXUPS: 12577 25 ae 55 1b ffffed75 1e9 d7 13 37 19 34 cd 1d 2b 1c 39 20
FIXUPS: 11922 1c 1d 2a 24 12e 5f 86 cc 1c 22 14 1a a 14 22 24 1c 50 326c
FIXUPS: 15048 52 16 16 11 12 13 32 31 16 15 15 19 19 19 1f e9 13 49 b b
FIXUPS: 15373 f 10 13 32 ffffbed1 31 46 6b 27 3644 a5 24 17 54 78 2d 20
FIXUPS: 14c00 12 181 e 12 12 13 18 44 12 12 13 18 59 12 13 18 69 13 18
FIXUPS: 14fef e e 12 2290 1d 81 25 95 30 180 e 1db 190 4a 85 2a 25 19 13
FIXUPS: 17a8a 1d7 29 1e4 ffffc884 b 30 15 9a 20 22 50 5a 14 37 9d 20c1
FIXUPS: 16a92 14 46 19 2d 6b c a 33 42 4d 1c a 3d 3b 104 1a f 41 1f f 43
FIXUPS: 16f99 21 e2 50 63 3e 97 28 30 fffff225 5f c2 a e 2b 38 32 2c 2b
FIXUPS: 16706 35 38 f 53 20 38 1e 20 20 20 25 1b 22 14 28 34 17 12 20 e
FIXUPS: 16a42 fffff30f 8 e 2e 56 25 38 28 20 33 18 8e 7 85 1a 1a e 2e 40
FIXUPS: 1616b 85 20 28 18 25 76 55 5c 14 8f 1b 26 1beb f 78 a af 4f 50
FIXUPS: 18254 ffffd473 79 100 66 10 a6 35 e 26 76 3d 2b 13 1a 38 13 2a
FIXUPS: 15bcb 3d 28 20 54 10 66 2882 11 16 6 24 c 6 d 6a 1c 27 21d 4f 13
FIXUPS: 18990 1d cb 31 c b 26 10 24 11 14 12 c fffff9fb d fffffe88 9f 73
FIXUPS: 198d6 45 fffff6d7 15d e4 fffffb10 17 b 11 6 1e 21 57 2b 3b c b
FIXUPS: 18ea3 1e 31 12 35 e 32 fffffccf 30 41 fffffecb f 34 8 fffff9b2
FIXUPS: 1c6f2 23 c9 35 9e 3e 2e d 13 ca d 5b a a ffffcf00 cf fffffa5d 29
FIXUPS: 194f7 a5 70 7e 46 6e 6d 2e f 11 46 b 39 24 27cf 26 26 1d 10 f 1c
FIXUPS: 1c134 2e 34 e 5b 32 22 a8 f e 1d 2d 2f f 26 43 2d 1c 41 47 11 16
FIXUPS: 1c517 ce 9d fffff582 b 8 12 2f 18 22 e 2a e 26 35 39 1b 15 d 2d
FIXUPS: 1bde4 29 33 3e 1b 18 17 33 e 85 14 18 49 2a 33 fffff53f 8 32 14
FIXUPS: 1b60a 21 21 27 42 1b 35 3f 15 a 40 3d 59 13 31 13d 18 2d 8 48 6
FIXUPS: 1bb28 12 6f c c 2f e fffff165 6c 5f 45 3b ab 1e 29 13 48 a0 26
FIXUPS: 1b200 42 11 17 e 8 30 19 15 7a 26 b6 25 43 38 15 a 4a 2c 26 fffff02a
FIXUPS: 1a5c2 9 2f f 1b 1a 4c 75 21 4b 1e 41 4a ad 31 3e 3a 1d 51 43 66
FIXUPS: 1aa94 81 29 2d 5c 55 2b 14 dc 13 fffff0c3 90 6 a 3f 20 1a e 1b
FIXUPS: 19f6f 11 6 a 6 28 d 3a 20 14 21 8d 8a 29 149 38 15 8c 4a 32 1f
FIXUPS: 1a534 2c 350a ea 158 67 41 d2 2d 58 aa 5d 1d 6b 44 bf 1d c 69 15
FIXUPS: 1e1ea 65 a6 f c 30 6d ffffb898 45 1e 3a 23 24 c7 3038 15f 5c 189
FIXUPS: 1d1b5 18 b bd ba 76 44 11 26 28 b 57 a8 12 9f 4c 2b 66 21 4a 32
FIXUPS: 1d80e 9 d 3c 1b 1a1 23 1324 7b 5e 31 4a 11 2b ae 4e fffff401 26
FIXUPS: 1e41d 6 193 2c 7 6 4f 9 49 6 ffffe47d 14 32 34 9 25 20 cb 7e 79
FIXUPS: 1cde2 198e 14 1a 62 f d 19 10 d 74 2d b 12 1b 49 4d b 26 60 74
FIXUPS: 1eada 18 1d a 34 17 2e a7 a0 2a 13 12 425c 6 e 19 f 1f a 67 f 18
FIXUPS: 23087 c 6e 22 7b 28 63 36 36 3c 25 18 15 6 14 a a ffffb3a6 27 a
FIXUPS: 1e73e 17 4362 32 11 1e 2b 12 14 2e 12 13 21 38 14 33 1e 10 34 9d
FIXUPS: 22dae 5d 2a 1e 3f 2b 36 9 c b 1e 14 e 1d fffff7d3 43 1b 12 8 2e
FIXUPS: 227f3 c b 2a 1b 12 2c 11 2e 8 38 e f 3f 17 15 16 16 16 15 17 15
FIXUPS: 22a2e 17 17 17 fffff5e9 20 73 67 13 27 2c 14 9 30 33 1f 70 1c 1c
FIXUPS: 223b3 a7 23 23 20 21 36 48 20 20 48 33 b7 15 15 16 24 fffff426
FIXUPS: 21b6a 1d 18 17 1d 31 22 40 20 1d b 12 57 49 8 27 22 8 19 df f 4b
FIXUPS: 21f5d 10 d f b 2a 4d 37 f fffff748 21 1e 1e 13 1a 2f 49 14 10 d
FIXUPS: 218f9 27 12 8 c 1d 13 88 21 1d 9 15 22 21 12 e 60 6 e 16 6 fffff623
FIXUPS: 21178 1a 24 f9 19 15 12 d 13 15 1e a 13 17 f e 20 14 f 13 1c 10
FIXUPS: 21425 50 10 20 1c 12b 1a 2a 15d fffff42b 1b 2c e 8 8 62 2e 24 10
FIXUPS: 20cf6 30 4e 2e 24 e 18 26 11 2b 6e 29 17 50 1a 41 2c 79 14 24 1f
FIXUPS: 210c3 fffff5fd b b b b 121 29 95 f f c 23 b b b 8 8 a1 33 e 13
FIXUPS: 20a52 6 14 d 20 d 35 18 23 4a 2d fffff58b 13 1b 19 24 15 20 27
FIXUPS: 20215 d2 10 14 1a 1f 1f 11 55 3c 2c 1e 16 26 5e 61 f 11 10 c f
FIXUPS: 205b1 e f9 fffff5b2 21 f 36 22 20 2e 25 f c 24 1b 9 27 27 83 30
FIXUPS: 1fedf 47 64 33 21 18 d 19 13 3d 20 1f 21 c 15 fffff62f 17 21 21
FIXUPS: 1f7a9 25 6e 34 c1 6b 2f 19 13 e 19 60 11 54 18 1f 11 11 19 10 17
FIXUPS: 1fb8f f f 6d 8 1d 1b fffff593 8a 17 19 1a 2d 28 22 64 24 26 19
FIXUPS: 1f426 22 18 28 2e 17 2c 31 18 24 3c 48 17 4f 2c 17 17 22 17 1f
FIXUPS: 238f2 13 25 2a 3b 1e 10 18 12 10 b fffff96b 3e 1a 129 76 54 f3
FIXUPS: 2372e 54 6 ffffb89c 1d 25 10 14 7c 14 33 4f 37 d 4e49 21 21 21
FIXUPS: 24099 1f 61 11 10 1e d e 11 4b 33 11 8 13 8 7 d 28 fffff530 1c
FIXUPS: 237d4 19 14 14 6 23 6 21 1ed5 2c 27 15 1d 10 36 10 18 ffffea71
FIXUPS: 23a49 8 35 3e 49 d7 2a 16 a3 4f 29 7c 53 93 21 43 5c 15 a 22 22
FIXUPS: 23ff0 121a 69 1e 23 36 17 1c 2c 13 13 1a 69 24 18 e 18 13 1c 15
FIXUPS: 254a9 49 12 1a 7e 1d 44 14 1b e 1c 67 5e fffff7a0 11 9 16 9 14
FIXUPS: 24f11 1d 5c 18 10 f 2c 12 1a e 1a b 16 b 1d 19 16 f 16 15 1f 89
FIXUPS: 251a8 2a 13 d fffff89f c 29 1e 17 13 2b 18 15 37 4d 17 12 a 62
FIXUPS: 24d58 15 11 36 c 19 1d 29 9 e f c 17 11 8 9 19 b9f e 63 22 ffffe9ea
FIXUPS: 244ec 24 87 24 23 30 4d 66 27 22 18 54 30 19 95 e 22 2a 2b 2b 2f
FIXUPS: 2499b 26 29 1b 49 23 1bf4 1c 17 1e b6 41 44 15 2e d 23 16 27 19
FIXUPS: 268d7 12 7 4d 2e 12 8 10 22 ffffee92 5b a 9e 13 d 5c 7 16 704 14
FIXUPS: 26111 14 10 10 10 10 10 e 14 1c 13 13 13 13 13 13 13 13 f f f f
FIXUPS: 26296 10 45 db 10c 10b e 6c fffff5d6 50 14 7 87 17 d 22 9 21 31
FIXUPS: 25dd2 2f 1d 8 9 2f 3e 9 12 1b a8 75 31 17 12 21 1e 11 14 14 14
FIXUPS: 28a74 1e 43 44 37 15 1c d d 10 c3 3f 13 2f 16 b 35 bc 1a8 36 19
FIXUPS: 29030 39 3f 19 38 46 15 34 20 ffffca67 f 25a7 d1 3c 4b db 13 bb
FIXUPS: 284d6 1c 57 1e 33 21 26 3c 9f 6f 37 24 13 90 13 2b 1f 1b 56 27
FIXUPS: 28938 3a 4e 1e 5a ffffeea0 c2 33 2b 19 e 2e 27 2c 19 e 42 11 2c
FIXUPS: 27b55 34 17 12 c4 41 33 4e e 90 ac aa 2f 12 81 31 13 10e fffff156
FIXUPS: 272af 81 5f 4e 1d 1c 23 12 11 b 26 21 4c 47 31 11 f 23 21 e 9 e2
FIXUPS: 2771d 20 d 64 44 d 35 47 e 31ad 19 1c 1d bf 18 62 e 17 15 14 2c
FIXUPS: 2ac9f 92 7 ffffbd72 c 60 19 11e 44 16 2f a0 88 63 43 54 12b 52
FIXUPS: 27102 175 30cf 3c 9 16 19 be 6f 11 11 1d d d 22 d d 25 c 28 28
FIXUPS: 2a619 22 13b af 26 19 12 77 26 19 12 66 54 ffffef82 15 59 15 57
FIXUPS: 29afc 2e 13 10f 7 9 6b 13 31 ab a6 88 1e f 94 4e 1d 41 27 2f 46
FIXUPS: 2a137 1d d0 30 4a 87 b67 1f 17 21 30 d 1b 37 39 2b 22 33 15 c5
FIXUPS: 2b132 ffffe1d6 fd 103 1b2 102 21 8 d b 25 e 42 5c 12 12 21 e 1e50
FIXUPS: 2b780 21 19 1c f 21 18 36 13 13 f f f f d 50 10 10 e 10 e e d 1d
FIXUPS: 2b9a4 fffff3a4 d b 31 69 85 b62 fffff776 2a 4a 20 f e c 7 5 7 8
FIXUPS: 2b257 17 2d 21 11 32 43 19 12 1d ea 59 33 12 25 c f9 10f 8 5 d3f
FIXUPS: 2c4df 36 d f 23 30 99 e fffff40e 11 2c 1a 1a 12 14 d 29 26 39 17
FIXUPS: 2bb9f 10 90 9 be 5c 47 1f 38 d fffffbc1 4d5 32 79 f f 15 16 19
FIXUPS: 2bfcf 23 d e e 83 a 14 d a f 51 d5 40 d 24 12 29 bd 28 1d 37 4c
FIXUPS: 2c450 864 7d b8 135 20 6b ba 11 d 33 74 35 1f 11 12 e 1d7 f 57
FIXUPS: 2d4d4 8d 80 a 21 a ffffe80b 8 23 8 8 24 14 21a2 7 f 21 1e 19 7
FIXUPS: 2e0ba 21 1f f 8 d ffffe5d0 4c 36 20 10 d0 d 104 4b 3b 5e 1f 31
FIXUPS: 2cac7 87 37 58 28 38 c70 3c 43 20 7 13 1b 25 f 1d 8a 17 21 d3 1d
FIXUPS: 2db8d 91 24 50 32 a7 b5 32 5f 3c 23 2b 17 22 48 3d b 668 1a d ffffefce
FIXUPS: 2d681 f 22 7 14 34 1a 7 f 7 19 19 7 c 24 18 7 f 7 19 f 34 1d 7
FIXUPS: 2d869 1c d f 105a a 22 15 12 1d fffff7f5 16 b d 7 df 6 71 2c 7
FIXUPS: 2e33a 31 25 12 27 5c 18 1f 3a 39 40 5e 2a 7 1c 29 b48 1b0 33 17
FIXUPS: 2f3b7 6 cb 17 f1 14 17 c1 17 27 26 64 6 192 6 ffffeddd 11 c 6a
FIXUPS: 2e777 25 b5 1a e 13 23 1a e 11d 10b 16 e a8 65 6 35 3b 21 2a 16
FIXUPS: 2ed22 d 67 17 39 6a 7f 1c 10 da 19 1d 19 25 20 13 18 15 11 18
